
WIFI-TCPIP-EXT1.elf:     file format elf32-littlearm

Sections:
Idx Name          Size      VMA       LMA       File off  Algn
  0 .text         0000939c  00400000  00400000  00010000  2**6
                  CONTENTS, ALLOC, LOAD, READONLY, CODE
  1 .ARM.exidx    00000008  0040939c  0040939c  0001939c  2**2
                  CONTENTS, ALLOC, LOAD, READONLY, DATA
  2 .relocate     00000884  20400000  004093a4  00020000  2**3
                  CONTENTS, ALLOC, LOAD, CODE
  3 .bss          00000794  20400884  00409c28  00020884  2**2
                  ALLOC
  4 .stack        00002000  20401018  0040a3bc  00020884  2**0
                  ALLOC
  5 .heap         00000200  20403018  0040c3bc  00020884  2**0
                  ALLOC
  6 .ARM.attributes 0000002e  00000000  00000000  00020884  2**0
                  CONTENTS, READONLY
  7 .comment      00000059  00000000  00000000  000208b2  2**0
                  CONTENTS, READONLY
  8 .debug_info   0001d622  00000000  00000000  0002090b  2**0
                  CONTENTS, READONLY, DEBUGGING
  9 .debug_abbrev 0000437b  00000000  00000000  0003df2d  2**0
                  CONTENTS, READONLY, DEBUGGING
 10 .debug_loc    0000e737  00000000  00000000  000422a8  2**0
                  CONTENTS, READONLY, DEBUGGING
 11 .debug_aranges 00001178  00000000  00000000  000509df  2**0
                  CONTENTS, READONLY, DEBUGGING
 12 .debug_ranges 00001150  00000000  00000000  00051b57  2**0
                  CONTENTS, READONLY, DEBUGGING
 13 .debug_macro  000256a8  00000000  00000000  00052ca7  2**0
                  CONTENTS, READONLY, DEBUGGING
 14 .debug_line   00017091  00000000  00000000  0007834f  2**0
                  CONTENTS, READONLY, DEBUGGING
 15 .debug_str    00092104  00000000  00000000  0008f3e0  2**0
                  CONTENTS, READONLY, DEBUGGING
 16 .debug_frame  00003a84  00000000  00000000  001214e4  2**2
                  CONTENTS, READONLY, DEBUGGING

Disassembly of section .text:

00400000 <_sfixed>:
  400000:	20403018 	.word	0x20403018
  400004:	00403c99 	.word	0x00403c99
  400008:	00403c95 	.word	0x00403c95
  40000c:	00403c95 	.word	0x00403c95
  400010:	00403c95 	.word	0x00403c95
  400014:	00403c95 	.word	0x00403c95
  400018:	00403c95 	.word	0x00403c95
	...
  40002c:	00403c95 	.word	0x00403c95
  400030:	00403c95 	.word	0x00403c95
  400034:	00000000 	.word	0x00000000
  400038:	00403c95 	.word	0x00403c95
  40003c:	00403c95 	.word	0x00403c95
  400040:	00403c95 	.word	0x00403c95
  400044:	00403c95 	.word	0x00403c95
  400048:	00404431 	.word	0x00404431
  40004c:	00403c95 	.word	0x00403c95
  400050:	00403c95 	.word	0x00403c95
  400054:	00403c95 	.word	0x00403c95
  400058:	00403c95 	.word	0x00403c95
  40005c:	00403c95 	.word	0x00403c95
  400060:	00403c95 	.word	0x00403c95
  400064:	00000000 	.word	0x00000000
  400068:	00403785 	.word	0x00403785
  40006c:	00403799 	.word	0x00403799
  400070:	004037ad 	.word	0x004037ad
  400074:	00403c95 	.word	0x00403c95
  400078:	00403c95 	.word	0x00403c95
  40007c:	00403c95 	.word	0x00403c95
  400080:	004037c1 	.word	0x004037c1
  400084:	004037d5 	.word	0x004037d5
  400088:	00403c95 	.word	0x00403c95
  40008c:	00403c95 	.word	0x00403c95
  400090:	00403c95 	.word	0x00403c95
  400094:	00403c95 	.word	0x00403c95
  400098:	00403c95 	.word	0x00403c95
  40009c:	00403c95 	.word	0x00403c95
  4000a0:	00403c95 	.word	0x00403c95
  4000a4:	00403c95 	.word	0x00403c95
  4000a8:	00403c95 	.word	0x00403c95
  4000ac:	00403c95 	.word	0x00403c95
  4000b0:	00403c95 	.word	0x00403c95
  4000b4:	00403c95 	.word	0x00403c95
  4000b8:	00403c95 	.word	0x00403c95
  4000bc:	00403c95 	.word	0x00403c95
  4000c0:	00403c95 	.word	0x00403c95
  4000c4:	00403c95 	.word	0x00403c95
  4000c8:	00403c95 	.word	0x00403c95
  4000cc:	00403c95 	.word	0x00403c95
  4000d0:	00000000 	.word	0x00000000
  4000d4:	00403c95 	.word	0x00403c95
  4000d8:	00000000 	.word	0x00000000
  4000dc:	00403c95 	.word	0x00403c95
  4000e0:	00403c95 	.word	0x00403c95
  4000e4:	00403c95 	.word	0x00403c95
  4000e8:	00403c95 	.word	0x00403c95
  4000ec:	00403c95 	.word	0x00403c95
  4000f0:	00403c95 	.word	0x00403c95
  4000f4:	00403c95 	.word	0x00403c95
  4000f8:	00403c95 	.word	0x00403c95
  4000fc:	00403c95 	.word	0x00403c95
  400100:	00403c95 	.word	0x00403c95
  400104:	00403c95 	.word	0x00403c95
  400108:	00403c95 	.word	0x00403c95
  40010c:	00403c95 	.word	0x00403c95
  400110:	00403c95 	.word	0x00403c95
	...
  400120:	00403c95 	.word	0x00403c95
  400124:	00403c95 	.word	0x00403c95
  400128:	00403c95 	.word	0x00403c95
  40012c:	00403c95 	.word	0x00403c95
  400130:	00403c95 	.word	0x00403c95
  400134:	00000000 	.word	0x00000000
  400138:	00403c95 	.word	0x00403c95
  40013c:	00403c95 	.word	0x00403c95

00400140 <__do_global_dtors_aux>:
  400140:	b510      	push	{r4, lr}
  400142:	4c05      	ldr	r4, [pc, #20]	; (400158 <__do_global_dtors_aux+0x18>)
  400144:	7823      	ldrb	r3, [r4, #0]
  400146:	b933      	cbnz	r3, 400156 <__do_global_dtors_aux+0x16>
  400148:	4b04      	ldr	r3, [pc, #16]	; (40015c <__do_global_dtors_aux+0x1c>)
  40014a:	b113      	cbz	r3, 400152 <__do_global_dtors_aux+0x12>
  40014c:	4804      	ldr	r0, [pc, #16]	; (400160 <__do_global_dtors_aux+0x20>)
  40014e:	f3af 8000 	nop.w
  400152:	2301      	movs	r3, #1
  400154:	7023      	strb	r3, [r4, #0]
  400156:	bd10      	pop	{r4, pc}
  400158:	20400884 	.word	0x20400884
  40015c:	00000000 	.word	0x00000000
  400160:	004093a4 	.word	0x004093a4

00400164 <frame_dummy>:
  400164:	4b08      	ldr	r3, [pc, #32]	; (400188 <frame_dummy+0x24>)
  400166:	b510      	push	{r4, lr}
  400168:	b11b      	cbz	r3, 400172 <frame_dummy+0xe>
  40016a:	4908      	ldr	r1, [pc, #32]	; (40018c <frame_dummy+0x28>)
  40016c:	4808      	ldr	r0, [pc, #32]	; (400190 <frame_dummy+0x2c>)
  40016e:	f3af 8000 	nop.w
  400172:	4808      	ldr	r0, [pc, #32]	; (400194 <frame_dummy+0x30>)
  400174:	6803      	ldr	r3, [r0, #0]
  400176:	b903      	cbnz	r3, 40017a <frame_dummy+0x16>
  400178:	bd10      	pop	{r4, pc}
  40017a:	4b07      	ldr	r3, [pc, #28]	; (400198 <frame_dummy+0x34>)
  40017c:	2b00      	cmp	r3, #0
  40017e:	d0fb      	beq.n	400178 <frame_dummy+0x14>
  400180:	e8bd 4010 	ldmia.w	sp!, {r4, lr}
  400184:	4718      	bx	r3
  400186:	bf00      	nop
  400188:	00000000 	.word	0x00000000
  40018c:	20400888 	.word	0x20400888
  400190:	004093a4 	.word	0x004093a4
  400194:	004093a4 	.word	0x004093a4
  400198:	00000000 	.word	0x00000000

0040019c <rtc_set_hour_mode>:
 * \param p_rtc Pointer to an RTC instance.
 * \param ul_mode 1 for 12-hour mode, 0 for 24-hour mode.
 */
void rtc_set_hour_mode(Rtc *p_rtc, uint32_t ul_mode)
{
	if (ul_mode) {
  40019c:	b121      	cbz	r1, 4001a8 <rtc_set_hour_mode+0xc>
		p_rtc->RTC_MR |= RTC_MR_HRMOD;
  40019e:	6843      	ldr	r3, [r0, #4]
  4001a0:	f043 0301 	orr.w	r3, r3, #1
  4001a4:	6043      	str	r3, [r0, #4]
  4001a6:	4770      	bx	lr
	} else {
		p_rtc->RTC_MR &= (~RTC_MR_HRMOD);
  4001a8:	6843      	ldr	r3, [r0, #4]
  4001aa:	f023 0301 	bic.w	r3, r3, #1
  4001ae:	6043      	str	r3, [r0, #4]
  4001b0:	4770      	bx	lr
  4001b2:	bf00      	nop

004001b4 <rtc_enable_interrupt>:
 * \param p_rtc Pointer to an RTC instance.
 * \param ul_sources Interrupts to be enabled.
 */
void rtc_enable_interrupt(Rtc *p_rtc, uint32_t ul_sources)
{
	p_rtc->RTC_IER = ul_sources;
  4001b4:	6201      	str	r1, [r0, #32]
  4001b6:	4770      	bx	lr

004001b8 <rtc_get_time>:
 * \param pul_minute Current minute.
 * \param pul_second Current second.
 */
void rtc_get_time(Rtc *p_rtc, uint32_t *pul_hour, uint32_t *pul_minute,
		uint32_t *pul_second)
{
  4001b8:	b430      	push	{r4, r5}
	uint32_t ul_time;
	uint32_t ul_temp;

	/* Get the current RTC time (multiple reads are necessary to insure a stable value). */
	ul_time = p_rtc->RTC_TIMR;
  4001ba:	6885      	ldr	r5, [r0, #8]
	while (ul_time != p_rtc->RTC_TIMR) {
  4001bc:	6884      	ldr	r4, [r0, #8]
  4001be:	42a5      	cmp	r5, r4
  4001c0:	d003      	beq.n	4001ca <rtc_get_time+0x12>
		ul_time = p_rtc->RTC_TIMR;
  4001c2:	6884      	ldr	r4, [r0, #8]
	uint32_t ul_time;
	uint32_t ul_temp;

	/* Get the current RTC time (multiple reads are necessary to insure a stable value). */
	ul_time = p_rtc->RTC_TIMR;
	while (ul_time != p_rtc->RTC_TIMR) {
  4001c4:	6885      	ldr	r5, [r0, #8]
  4001c6:	42a5      	cmp	r5, r4
  4001c8:	d1fb      	bne.n	4001c2 <rtc_get_time+0xa>
		ul_time = p_rtc->RTC_TIMR;
	}

	/* Hour */
	if (pul_hour) {
  4001ca:	b161      	cbz	r1, 4001e6 <rtc_get_time+0x2e>
		ul_temp = (ul_time & RTC_TIMR_HOUR_Msk) >> RTC_TIMR_HOUR_Pos;
		*pul_hour = (ul_temp >> BCD_SHIFT) * BCD_FACTOR + (ul_temp & BCD_MASK);
  4001cc:	f3c4 5001 	ubfx	r0, r4, #20, #2
  4001d0:	eb00 0580 	add.w	r5, r0, r0, lsl #2
  4001d4:	f3c4 4003 	ubfx	r0, r4, #16, #4
  4001d8:	eb00 0045 	add.w	r0, r0, r5, lsl #1

		if ((ul_time & RTC_TIMR_AMPM) == RTC_TIMR_AMPM) {
  4001dc:	f414 0f80 	tst.w	r4, #4194304	; 0x400000
			*pul_hour += 12;
  4001e0:	bf18      	it	ne
  4001e2:	300c      	addne	r0, #12
  4001e4:	6008      	str	r0, [r1, #0]
		}
	}

	/* Minute */
	if (pul_minute) {
  4001e6:	b142      	cbz	r2, 4001fa <rtc_get_time+0x42>
		ul_temp = (ul_time & RTC_TIMR_MIN_Msk) >> RTC_TIMR_MIN_Pos;
		*pul_minute = (ul_temp >> BCD_SHIFT) * BCD_FACTOR +  (ul_temp & BCD_MASK);
  4001e8:	f3c4 3102 	ubfx	r1, r4, #12, #3
  4001ec:	eb01 0181 	add.w	r1, r1, r1, lsl #2
  4001f0:	f3c4 2003 	ubfx	r0, r4, #8, #4
  4001f4:	eb00 0141 	add.w	r1, r0, r1, lsl #1
  4001f8:	6011      	str	r1, [r2, #0]
	}

	/* Second */
	if (pul_second) {
  4001fa:	b143      	cbz	r3, 40020e <rtc_get_time+0x56>
		ul_temp = (ul_time & RTC_TIMR_SEC_Msk) >> RTC_TIMR_SEC_Pos;
		*pul_second = (ul_temp >> BCD_SHIFT) * BCD_FACTOR + (ul_temp & BCD_MASK);
  4001fc:	f3c4 1202 	ubfx	r2, r4, #4, #3
  400200:	eb02 0282 	add.w	r2, r2, r2, lsl #2
  400204:	f004 040f 	and.w	r4, r4, #15
  400208:	eb04 0442 	add.w	r4, r4, r2, lsl #1
  40020c:	601c      	str	r4, [r3, #0]
	}
}
  40020e:	bc30      	pop	{r4, r5}
  400210:	4770      	bx	lr
  400212:	bf00      	nop

00400214 <rtc_set_time>:
 *
 * \return 0 for OK, else invalid setting.
 */
uint32_t rtc_set_time(Rtc *p_rtc, uint32_t ul_hour, uint32_t ul_minute,
		uint32_t ul_second)
{
  400214:	b4f0      	push	{r4, r5, r6, r7}
	uint32_t ul_time = 0;

	/* If 12-hour mode, set AMPM bit */
	if ((p_rtc->RTC_MR & RTC_MR_HRMOD) == RTC_MR_HRMOD) {
  400216:	6844      	ldr	r4, [r0, #4]
		if (ul_hour > 12) {
  400218:	f014 0f01 	tst.w	r4, #1
  40021c:	d005      	beq.n	40022a <rtc_set_time+0x16>
  40021e:	290c      	cmp	r1, #12
  400220:	d903      	bls.n	40022a <rtc_set_time+0x16>
			ul_hour -= 12;
  400222:	390c      	subs	r1, #12
			ul_time |= RTC_TIMR_AMPM;
  400224:	f44f 0680 	mov.w	r6, #4194304	; 0x400000
  400228:	e000      	b.n	40022c <rtc_set_time+0x18>
 * \return 0 for OK, else invalid setting.
 */
uint32_t rtc_set_time(Rtc *p_rtc, uint32_t ul_hour, uint32_t ul_minute,
		uint32_t ul_second)
{
	uint32_t ul_time = 0;
  40022a:	2600      	movs	r6, #0
  40022c:	4c1c      	ldr	r4, [pc, #112]	; (4002a0 <rtc_set_time+0x8c>)
  40022e:	fba4 5703 	umull	r5, r7, r4, r3
  400232:	08ff      	lsrs	r7, r7, #3
  400234:	eb07 0587 	add.w	r5, r7, r7, lsl #2
  400238:	eba3 0345 	sub.w	r3, r3, r5, lsl #1
  40023c:	ea43 1307 	orr.w	r3, r3, r7, lsl #4
  400240:	fba4 7502 	umull	r7, r5, r4, r2
  400244:	08ed      	lsrs	r5, r5, #3
  400246:	ea43 3305 	orr.w	r3, r3, r5, lsl #12
  40024a:	eb05 0585 	add.w	r5, r5, r5, lsl #2
  40024e:	eba2 0245 	sub.w	r2, r2, r5, lsl #1
  400252:	ea43 2202 	orr.w	r2, r3, r2, lsl #8
  400256:	4332      	orrs	r2, r6
  400258:	fba4 4301 	umull	r4, r3, r4, r1
  40025c:	08db      	lsrs	r3, r3, #3
  40025e:	ea42 5203 	orr.w	r2, r2, r3, lsl #20
	/* Minute */
	ul_time |= ((ul_minute / BCD_FACTOR) << (RTC_TIMR_MIN_Pos + BCD_SHIFT)) |
			((ul_minute % BCD_FACTOR) << RTC_TIMR_MIN_Pos);

	/* Second */
	ul_time |= ((ul_second / BCD_FACTOR) << (RTC_TIMR_SEC_Pos + BCD_SHIFT)) |
  400262:	eb03 0383 	add.w	r3, r3, r3, lsl #2
  400266:	eba1 0343 	sub.w	r3, r1, r3, lsl #1
  40026a:	ea42 4103 	orr.w	r1, r2, r3, lsl #16
			((ul_second % BCD_FACTOR) << RTC_TIMR_SEC_Pos);

	/* Update time register. Check the spec for the flow. */
	p_rtc->RTC_CR |= RTC_CR_UPDTIM;
  40026e:	6803      	ldr	r3, [r0, #0]
  400270:	f043 0301 	orr.w	r3, r3, #1
  400274:	6003      	str	r3, [r0, #0]
	while ((p_rtc->RTC_SR & RTC_SR_ACKUPD) != RTC_SR_ACKUPD);
  400276:	6983      	ldr	r3, [r0, #24]
  400278:	f013 0f01 	tst.w	r3, #1
  40027c:	d0fb      	beq.n	400276 <rtc_set_time+0x62>
	p_rtc->RTC_SCCR = RTC_SCCR_ACKCLR;
  40027e:	2301      	movs	r3, #1
  400280:	61c3      	str	r3, [r0, #28]
	p_rtc->RTC_TIMR = ul_time;
  400282:	6081      	str	r1, [r0, #8]
	p_rtc->RTC_CR &= (~RTC_CR_UPDTIM);
  400284:	6803      	ldr	r3, [r0, #0]
  400286:	f023 0301 	bic.w	r3, r3, #1
  40028a:	6003      	str	r3, [r0, #0]
	p_rtc->RTC_SCCR |= RTC_SCCR_SECCLR;
  40028c:	69c3      	ldr	r3, [r0, #28]
  40028e:	f043 0304 	orr.w	r3, r3, #4
  400292:	61c3      	str	r3, [r0, #28]

	return (p_rtc->RTC_VER & RTC_VER_NVTIM);
  400294:	6ac0      	ldr	r0, [r0, #44]	; 0x2c
}
  400296:	f000 0001 	and.w	r0, r0, #1
  40029a:	bcf0      	pop	{r4, r5, r6, r7}
  40029c:	4770      	bx	lr
  40029e:	bf00      	nop
  4002a0:	cccccccd 	.word	0xcccccccd

004002a4 <rtc_set_time_alarm>:
 */
uint32_t rtc_set_time_alarm(Rtc *p_rtc,
		uint32_t ul_hour_flag, uint32_t ul_hour,
		uint32_t ul_minute_flag, uint32_t ul_minute,
		uint32_t ul_second_flag, uint32_t ul_second)
{
  4002a4:	b4f0      	push	{r4, r5, r6, r7}
  4002a6:	9c04      	ldr	r4, [sp, #16]
  4002a8:	9d06      	ldr	r5, [sp, #24]
	uint32_t ul_alarm = 0;

	/* Hour alarm setting */
	if (ul_hour_flag) {
  4002aa:	b1b9      	cbz	r1, 4002dc <rtc_set_time_alarm+0x38>
		/* If 12-hour mode, set AMPM bit */
		if ((p_rtc->RTC_MR & RTC_MR_HRMOD) == RTC_MR_HRMOD) {
  4002ac:	6841      	ldr	r1, [r0, #4]
			if (ul_hour > 12) {
  4002ae:	f011 0f01 	tst.w	r1, #1
  4002b2:	d005      	beq.n	4002c0 <rtc_set_time_alarm+0x1c>
  4002b4:	2a0c      	cmp	r2, #12
  4002b6:	d903      	bls.n	4002c0 <rtc_set_time_alarm+0x1c>
				ul_hour -= 12;
  4002b8:	3a0c      	subs	r2, #12
				ul_alarm |= RTC_TIMR_AMPM;
  4002ba:	f44f 0780 	mov.w	r7, #4194304	; 0x400000
  4002be:	e000      	b.n	4002c2 <rtc_set_time_alarm+0x1e>
uint32_t rtc_set_time_alarm(Rtc *p_rtc,
		uint32_t ul_hour_flag, uint32_t ul_hour,
		uint32_t ul_minute_flag, uint32_t ul_minute,
		uint32_t ul_second_flag, uint32_t ul_second)
{
	uint32_t ul_alarm = 0;
  4002c0:	2700      	movs	r7, #0
				ul_hour -= 12;
				ul_alarm |= RTC_TIMR_AMPM;
			}
		}

		ul_alarm |= ((ul_hour / BCD_FACTOR) << (RTC_TIMR_HOUR_Pos + BCD_SHIFT)) |
  4002c2:	491b      	ldr	r1, [pc, #108]	; (400330 <rtc_set_time_alarm+0x8c>)
  4002c4:	fba1 6102 	umull	r6, r1, r1, r2
  4002c8:	08c9      	lsrs	r1, r1, #3
  4002ca:	eb01 0681 	add.w	r6, r1, r1, lsl #2
  4002ce:	eba2 0246 	sub.w	r2, r2, r6, lsl #1
  4002d2:	0412      	lsls	r2, r2, #16
  4002d4:	ea42 5201 	orr.w	r2, r2, r1, lsl #20
  4002d8:	433a      	orrs	r2, r7
  4002da:	e000      	b.n	4002de <rtc_set_time_alarm+0x3a>
uint32_t rtc_set_time_alarm(Rtc *p_rtc,
		uint32_t ul_hour_flag, uint32_t ul_hour,
		uint32_t ul_minute_flag, uint32_t ul_minute,
		uint32_t ul_second_flag, uint32_t ul_second)
{
	uint32_t ul_alarm = 0;
  4002dc:	2200      	movs	r2, #0
		ul_alarm |= ((ul_hour / BCD_FACTOR) << (RTC_TIMR_HOUR_Pos + BCD_SHIFT)) |
				((ul_hour % BCD_FACTOR) << RTC_TIMR_HOUR_Pos);
	}

	/* Minute alarm setting */
	if (ul_minute_flag) {
  4002de:	b15b      	cbz	r3, 4002f8 <rtc_set_time_alarm+0x54>
		ul_alarm |= ((ul_minute / BCD_FACTOR) << (RTC_TIMR_MIN_Pos + BCD_SHIFT)) |
  4002e0:	4b13      	ldr	r3, [pc, #76]	; (400330 <rtc_set_time_alarm+0x8c>)
  4002e2:	fba3 1304 	umull	r1, r3, r3, r4
  4002e6:	08db      	lsrs	r3, r3, #3
  4002e8:	eb03 0183 	add.w	r1, r3, r3, lsl #2
  4002ec:	eba4 0441 	sub.w	r4, r4, r1, lsl #1
  4002f0:	0224      	lsls	r4, r4, #8
  4002f2:	ea44 3403 	orr.w	r4, r4, r3, lsl #12
  4002f6:	4322      	orrs	r2, r4
				((ul_minute % BCD_FACTOR) << RTC_TIMR_MIN_Pos);
	}

	/* Second alarm setting */
	if (ul_second_flag) {
  4002f8:	9b05      	ldr	r3, [sp, #20]
  4002fa:	b153      	cbz	r3, 400312 <rtc_set_time_alarm+0x6e>
		ul_alarm |= ((ul_second / BCD_FACTOR) << (RTC_TIMR_SEC_Pos + BCD_SHIFT)) |
  4002fc:	4b0c      	ldr	r3, [pc, #48]	; (400330 <rtc_set_time_alarm+0x8c>)
  4002fe:	fba3 1305 	umull	r1, r3, r3, r5
  400302:	08db      	lsrs	r3, r3, #3
  400304:	eb03 0183 	add.w	r1, r3, r3, lsl #2
  400308:	eba5 0541 	sub.w	r5, r5, r1, lsl #1
  40030c:	ea45 1303 	orr.w	r3, r5, r3, lsl #4
  400310:	431a      	orrs	r2, r3
				((ul_second % BCD_FACTOR) << RTC_TIMR_SEC_Pos);
	}

	p_rtc->RTC_TIMALR &= ~(RTC_TIMALR_SECEN | RTC_TIMALR_MINEN | RTC_TIMALR_HOUREN);
  400312:	6901      	ldr	r1, [r0, #16]
  400314:	4b07      	ldr	r3, [pc, #28]	; (400334 <rtc_set_time_alarm+0x90>)
  400316:	400b      	ands	r3, r1
  400318:	6103      	str	r3, [r0, #16]
	p_rtc->RTC_TIMALR = ul_alarm;
  40031a:	6102      	str	r2, [r0, #16]
	p_rtc->RTC_TIMALR |= (RTC_TIMALR_SECEN | RTC_TIMALR_MINEN | RTC_TIMALR_HOUREN);
  40031c:	6902      	ldr	r2, [r0, #16]
  40031e:	4b06      	ldr	r3, [pc, #24]	; (400338 <rtc_set_time_alarm+0x94>)
  400320:	4313      	orrs	r3, r2
  400322:	6103      	str	r3, [r0, #16]

	return (p_rtc->RTC_VER & RTC_VER_NVTIMALR);
  400324:	6ac0      	ldr	r0, [r0, #44]	; 0x2c
}
  400326:	f000 0004 	and.w	r0, r0, #4
  40032a:	bcf0      	pop	{r4, r5, r6, r7}
  40032c:	4770      	bx	lr
  40032e:	bf00      	nop
  400330:	cccccccd 	.word	0xcccccccd
  400334:	ff7f7f7f 	.word	0xff7f7f7f
  400338:	00808080 	.word	0x00808080

0040033c <rtc_set_date>:
 *
 * \return 0 for OK, else invalid setting.
 */
uint32_t rtc_set_date(Rtc *p_rtc, uint32_t ul_year, uint32_t ul_month,
		uint32_t ul_day, uint32_t ul_week)
{
  40033c:	b5f0      	push	{r4, r5, r6, r7, lr}

	/* Week */
	ul_date |= (ul_week << RTC_CALR_DAY_Pos);

	/* Day */
	ul_date |= ((ul_day / BCD_FACTOR) << (RTC_CALR_DATE_Pos + BCD_SHIFT)) |
  40033e:	4e2a      	ldr	r6, [pc, #168]	; (4003e8 <rtc_set_date+0xac>)
  400340:	fba6 4e03 	umull	r4, lr, r6, r3
  400344:	ea4f 0ede 	mov.w	lr, lr, lsr #3
  400348:	9c05      	ldr	r4, [sp, #20]
  40034a:	0564      	lsls	r4, r4, #21
  40034c:	ea44 770e 	orr.w	r7, r4, lr, lsl #28
  400350:	eb0e 0e8e 	add.w	lr, lr, lr, lsl #2
  400354:	eba3 054e 	sub.w	r5, r3, lr, lsl #1
  400358:	ea47 6505 	orr.w	r5, r7, r5, lsl #24
  40035c:	fba6 4302 	umull	r4, r3, r6, r2
  400360:	08db      	lsrs	r3, r3, #3
  400362:	ea45 5503 	orr.w	r5, r5, r3, lsl #20
  400366:	eb03 0383 	add.w	r3, r3, r3, lsl #2
  40036a:	eba2 0343 	sub.w	r3, r2, r3, lsl #1
  40036e:	ea45 4403 	orr.w	r4, r5, r3, lsl #16
  400372:	4b1e      	ldr	r3, [pc, #120]	; (4003ec <rtc_set_date+0xb0>)
  400374:	fba3 2301 	umull	r2, r3, r3, r1
  400378:	099b      	lsrs	r3, r3, #6
  40037a:	ea44 1203 	orr.w	r2, r4, r3, lsl #4
  40037e:	4c1c      	ldr	r4, [pc, #112]	; (4003f0 <rtc_set_date+0xb4>)
  400380:	fba4 3401 	umull	r3, r4, r4, r1
  400384:	0963      	lsrs	r3, r4, #5
  400386:	fba6 5403 	umull	r5, r4, r6, r3
  40038a:	08e4      	lsrs	r4, r4, #3
  40038c:	eb04 0484 	add.w	r4, r4, r4, lsl #2
  400390:	eba3 0344 	sub.w	r3, r3, r4, lsl #1
  400394:	4313      	orrs	r3, r2
  400396:	fba6 2401 	umull	r2, r4, r6, r1
  40039a:	08e4      	lsrs	r4, r4, #3
  40039c:	eb04 0284 	add.w	r2, r4, r4, lsl #2
  4003a0:	eba1 0242 	sub.w	r2, r1, r2, lsl #1
  4003a4:	ea43 2302 	orr.w	r3, r3, r2, lsl #8
  4003a8:	fba6 2604 	umull	r2, r6, r6, r4
  4003ac:	08f6      	lsrs	r6, r6, #3
  4003ae:	eb06 0686 	add.w	r6, r6, r6, lsl #2
  4003b2:	eba4 0646 	sub.w	r6, r4, r6, lsl #1
  4003b6:	ea43 3206 	orr.w	r2, r3, r6, lsl #12
			((ul_day % BCD_FACTOR) << RTC_CALR_DATE_Pos);

	/* Update calendar register. Check the spec for the flow. */
	p_rtc->RTC_CR |= RTC_CR_UPDCAL;
  4003ba:	6803      	ldr	r3, [r0, #0]
  4003bc:	f043 0302 	orr.w	r3, r3, #2
  4003c0:	6003      	str	r3, [r0, #0]
	while ((p_rtc->RTC_SR & RTC_SR_ACKUPD) != RTC_SR_ACKUPD);
  4003c2:	6983      	ldr	r3, [r0, #24]
  4003c4:	f013 0f01 	tst.w	r3, #1
  4003c8:	d0fb      	beq.n	4003c2 <rtc_set_date+0x86>

	p_rtc->RTC_SCCR = RTC_SCCR_ACKCLR;
  4003ca:	2301      	movs	r3, #1
  4003cc:	61c3      	str	r3, [r0, #28]
	p_rtc->RTC_CALR = ul_date;
  4003ce:	60c2      	str	r2, [r0, #12]
	p_rtc->RTC_CR &= (~RTC_CR_UPDCAL);
  4003d0:	6803      	ldr	r3, [r0, #0]
  4003d2:	f023 0302 	bic.w	r3, r3, #2
  4003d6:	6003      	str	r3, [r0, #0]
	/* Clear SECENV in SCCR */
	p_rtc->RTC_SCCR |= RTC_SCCR_SECCLR;
  4003d8:	69c3      	ldr	r3, [r0, #28]
  4003da:	f043 0304 	orr.w	r3, r3, #4
  4003de:	61c3      	str	r3, [r0, #28]

	return (p_rtc->RTC_VER & RTC_VER_NVCAL);
  4003e0:	6ac0      	ldr	r0, [r0, #44]	; 0x2c
}
  4003e2:	f000 0002 	and.w	r0, r0, #2
  4003e6:	bdf0      	pop	{r4, r5, r6, r7, pc}
  4003e8:	cccccccd 	.word	0xcccccccd
  4003ec:	10624dd3 	.word	0x10624dd3
  4003f0:	51eb851f 	.word	0x51eb851f

004003f4 <rtc_set_date_alarm>:
 * \return 0 for OK, else invalid setting.
 */
uint32_t rtc_set_date_alarm(Rtc *p_rtc,
		uint32_t ul_month_flag, uint32_t ul_month,
		uint32_t ul_day_flag, uint32_t ul_day)
{
  4003f4:	b430      	push	{r4, r5}
  4003f6:	9c02      	ldr	r4, [sp, #8]
	uint32_t ul_alarm = 0;

	/* Month alarm setting */
	if (ul_month_flag) {
  4003f8:	b159      	cbz	r1, 400412 <rtc_set_date_alarm+0x1e>
		ul_alarm |= ((ul_month / BCD_FACTOR) << (RTC_CALR_MONTH_Pos + BCD_SHIFT)) |
  4003fa:	4914      	ldr	r1, [pc, #80]	; (40044c <rtc_set_date_alarm+0x58>)
  4003fc:	fba1 5102 	umull	r5, r1, r1, r2
  400400:	08c9      	lsrs	r1, r1, #3
  400402:	eb01 0581 	add.w	r5, r1, r1, lsl #2
  400406:	eba2 0245 	sub.w	r2, r2, r5, lsl #1
  40040a:	0412      	lsls	r2, r2, #16
  40040c:	ea42 5201 	orr.w	r2, r2, r1, lsl #20
  400410:	e000      	b.n	400414 <rtc_set_date_alarm+0x20>
 */
uint32_t rtc_set_date_alarm(Rtc *p_rtc,
		uint32_t ul_month_flag, uint32_t ul_month,
		uint32_t ul_day_flag, uint32_t ul_day)
{
	uint32_t ul_alarm = 0;
  400412:	2200      	movs	r2, #0
		ul_alarm |= ((ul_month / BCD_FACTOR) << (RTC_CALR_MONTH_Pos + BCD_SHIFT)) |
				((ul_month % BCD_FACTOR) << RTC_CALR_MONTH_Pos);
	}

	/* Day alarm setting */
	if (ul_day_flag) {
  400414:	b15b      	cbz	r3, 40042e <rtc_set_date_alarm+0x3a>
		ul_alarm |= ((ul_day / BCD_FACTOR) << (RTC_CALR_DATE_Pos + BCD_SHIFT)) |
  400416:	4b0d      	ldr	r3, [pc, #52]	; (40044c <rtc_set_date_alarm+0x58>)
  400418:	fba3 1304 	umull	r1, r3, r3, r4
  40041c:	08db      	lsrs	r3, r3, #3
  40041e:	eb03 0183 	add.w	r1, r3, r3, lsl #2
  400422:	eba4 0441 	sub.w	r4, r4, r1, lsl #1
  400426:	0624      	lsls	r4, r4, #24
  400428:	ea44 7403 	orr.w	r4, r4, r3, lsl #28
  40042c:	4322      	orrs	r2, r4
				((ul_day % BCD_FACTOR) << RTC_CALR_DATE_Pos);
	}

	/* Set alarm */
	p_rtc->RTC_CALALR &= ~(RTC_CALALR_MTHEN | RTC_CALALR_DATEEN);
  40042e:	6941      	ldr	r1, [r0, #20]
  400430:	4b07      	ldr	r3, [pc, #28]	; (400450 <rtc_set_date_alarm+0x5c>)
  400432:	400b      	ands	r3, r1
  400434:	6143      	str	r3, [r0, #20]
	p_rtc->RTC_CALALR = ul_alarm;
  400436:	6142      	str	r2, [r0, #20]
	p_rtc->RTC_CALALR |= (RTC_CALALR_MTHEN | RTC_CALALR_DATEEN);
  400438:	6942      	ldr	r2, [r0, #20]
  40043a:	4b06      	ldr	r3, [pc, #24]	; (400454 <rtc_set_date_alarm+0x60>)
  40043c:	4313      	orrs	r3, r2
  40043e:	6143      	str	r3, [r0, #20]

	return (p_rtc->RTC_VER & RTC_VER_NVCALALR);
  400440:	6ac0      	ldr	r0, [r0, #44]	; 0x2c
}
  400442:	f000 0008 	and.w	r0, r0, #8
  400446:	bc30      	pop	{r4, r5}
  400448:	4770      	bx	lr
  40044a:	bf00      	nop
  40044c:	cccccccd 	.word	0xcccccccd
  400450:	7f7fffff 	.word	0x7f7fffff
  400454:	80800000 	.word	0x80800000

00400458 <rtc_get_status>:
 *
 * \return Status of the RTC.
 */
uint32_t rtc_get_status(Rtc *p_rtc)
{
	return (p_rtc->RTC_SR);
  400458:	6980      	ldr	r0, [r0, #24]
}
  40045a:	4770      	bx	lr

0040045c <rtc_clear_status>:
 * \param p_rtc Pointer to an RTC instance.
 * \param ul_clear Some flag bits which will be cleared.
 */
void rtc_clear_status(Rtc *p_rtc, uint32_t ul_clear)
{
	p_rtc->RTC_SCCR = ul_clear;
  40045c:	61c1      	str	r1, [r0, #28]
  40045e:	4770      	bx	lr

00400460 <com_interpretando_buffer>:
#include <stdio.h>
#include <stdlib.h>
#include <string.h>


com_t *com_interpretando_buffer(char *pdata){
  400460:	b538      	push	{r3, r4, r5, lr}
  400462:	4605      	mov	r5, r0
	com_t *ret;
	char  *hour_data;
	ret = (com_t *) malloc(sizeof(com_t));
  400464:	2008      	movs	r0, #8
  400466:	4b3d      	ldr	r3, [pc, #244]	; (40055c <com_interpretando_buffer+0xfc>)
  400468:	4798      	blx	r3
  40046a:	4604      	mov	r4, r0
	if (!strcmp(pdata,PACOTE_LED_ON)){
  40046c:	493c      	ldr	r1, [pc, #240]	; (400560 <com_interpretando_buffer+0x100>)
  40046e:	4628      	mov	r0, r5
  400470:	4b3c      	ldr	r3, [pc, #240]	; (400564 <com_interpretando_buffer+0x104>)
  400472:	4798      	blx	r3
  400474:	b948      	cbnz	r0, 40048a <com_interpretando_buffer+0x2a>
		printf("%s \n", PACOTE_LED_ON);
  400476:	493a      	ldr	r1, [pc, #232]	; (400560 <com_interpretando_buffer+0x100>)
  400478:	483b      	ldr	r0, [pc, #236]	; (400568 <com_interpretando_buffer+0x108>)
  40047a:	4b3c      	ldr	r3, [pc, #240]	; (40056c <com_interpretando_buffer+0x10c>)
  40047c:	4798      	blx	r3
		ret->pkg_type  = command_LED_ON;
  40047e:	2301      	movs	r3, #1
  400480:	7023      	strb	r3, [r4, #0]
		ret->pkg_value = NULL;
  400482:	2300      	movs	r3, #0
  400484:	6063      	str	r3, [r4, #4]
		return ret;
  400486:	4620      	mov	r0, r4
  400488:	bd38      	pop	{r3, r4, r5, pc}
	} else 	if (!strcmp(pdata, PACOTE_LED_OFF)){
  40048a:	4939      	ldr	r1, [pc, #228]	; (400570 <com_interpretando_buffer+0x110>)
  40048c:	4628      	mov	r0, r5
  40048e:	4b35      	ldr	r3, [pc, #212]	; (400564 <com_interpretando_buffer+0x104>)
  400490:	4798      	blx	r3
  400492:	b948      	cbnz	r0, 4004a8 <com_interpretando_buffer+0x48>
		printf("%s \n", PACOTE_LED_OFF);
  400494:	4936      	ldr	r1, [pc, #216]	; (400570 <com_interpretando_buffer+0x110>)
  400496:	4834      	ldr	r0, [pc, #208]	; (400568 <com_interpretando_buffer+0x108>)
  400498:	4b34      	ldr	r3, [pc, #208]	; (40056c <com_interpretando_buffer+0x10c>)
  40049a:	4798      	blx	r3
		ret->pkg_type  = command_LED_OFF;
  40049c:	2302      	movs	r3, #2
  40049e:	7023      	strb	r3, [r4, #0]
		ret->pkg_value = NULL;
  4004a0:	2300      	movs	r3, #0
  4004a2:	6063      	str	r3, [r4, #4]
		return ret;
  4004a4:	4620      	mov	r0, r4
  4004a6:	bd38      	pop	{r3, r4, r5, pc}
	} else if (!strcmp(pdata,PACOTE_TESTE_RX)){
  4004a8:	4932      	ldr	r1, [pc, #200]	; (400574 <com_interpretando_buffer+0x114>)
  4004aa:	4628      	mov	r0, r5
  4004ac:	4b2d      	ldr	r3, [pc, #180]	; (400564 <com_interpretando_buffer+0x104>)
  4004ae:	4798      	blx	r3
  4004b0:	b928      	cbnz	r0, 4004be <com_interpretando_buffer+0x5e>
		ret->pkg_type  = PACOTE_TESTE_COM;
  4004b2:	2301      	movs	r3, #1
  4004b4:	7023      	strb	r3, [r4, #0]
		ret->pkg_value = PACOTE_TESTE_tx_OK;
  4004b6:	4b30      	ldr	r3, [pc, #192]	; (400578 <com_interpretando_buffer+0x118>)
  4004b8:	6063      	str	r3, [r4, #4]
		return ret;
  4004ba:	4620      	mov	r0, r4
  4004bc:	bd38      	pop	{r3, r4, r5, pc}
	} else if ((hour_data = strstr(pdata, PACOTE_HEADER_RX)) != NULL) {
  4004be:	492f      	ldr	r1, [pc, #188]	; (40057c <com_interpretando_buffer+0x11c>)
  4004c0:	4628      	mov	r0, r5
  4004c2:	4b2f      	ldr	r3, [pc, #188]	; (400580 <com_interpretando_buffer+0x120>)
  4004c4:	4798      	blx	r3
  4004c6:	b138      	cbz	r0, 4004d8 <com_interpretando_buffer+0x78>
		hour_t *h = parse_hour(hour_data + 5);
  4004c8:	3005      	adds	r0, #5
  4004ca:	4b2e      	ldr	r3, [pc, #184]	; (400584 <com_interpretando_buffer+0x124>)
  4004cc:	4798      	blx	r3
		ret->pkg_value = h;
  4004ce:	6060      	str	r0, [r4, #4]
		ret->pkg_type  = PACOTE_ALARM_SET;
  4004d0:	2310      	movs	r3, #16
  4004d2:	7023      	strb	r3, [r4, #0]
		return ret;
  4004d4:	4620      	mov	r0, r4
  4004d6:	bd38      	pop	{r3, r4, r5, pc}
	} else if (!strcmp(pdata,pacote_Cafeteria_ON)){
  4004d8:	492b      	ldr	r1, [pc, #172]	; (400588 <com_interpretando_buffer+0x128>)
  4004da:	4628      	mov	r0, r5
  4004dc:	4b21      	ldr	r3, [pc, #132]	; (400564 <com_interpretando_buffer+0x104>)
  4004de:	4798      	blx	r3
  4004e0:	b948      	cbnz	r0, 4004f6 <com_interpretando_buffer+0x96>
		printf("%s \n", pacote_Cafeteria_ON);
  4004e2:	4929      	ldr	r1, [pc, #164]	; (400588 <com_interpretando_buffer+0x128>)
  4004e4:	4820      	ldr	r0, [pc, #128]	; (400568 <com_interpretando_buffer+0x108>)
  4004e6:	4b21      	ldr	r3, [pc, #132]	; (40056c <com_interpretando_buffer+0x10c>)
  4004e8:	4798      	blx	r3
		ret->pkg_value = NULL;
  4004ea:	2300      	movs	r3, #0
  4004ec:	6063      	str	r3, [r4, #4]
		ret->pkg_type  = command_Cafeteria_ON;
  4004ee:	2303      	movs	r3, #3
  4004f0:	7023      	strb	r3, [r4, #0]
		return ret;
  4004f2:	4620      	mov	r0, r4
  4004f4:	bd38      	pop	{r3, r4, r5, pc}
	} else if (!strcmp(pdata,pacote_Cafeteria_OFF)){
  4004f6:	4925      	ldr	r1, [pc, #148]	; (40058c <com_interpretando_buffer+0x12c>)
  4004f8:	4628      	mov	r0, r5
  4004fa:	4b1a      	ldr	r3, [pc, #104]	; (400564 <com_interpretando_buffer+0x104>)
  4004fc:	4798      	blx	r3
  4004fe:	b948      	cbnz	r0, 400514 <com_interpretando_buffer+0xb4>
		printf("%s \n", pacote_Cafeteria_OFF);
  400500:	4922      	ldr	r1, [pc, #136]	; (40058c <com_interpretando_buffer+0x12c>)
  400502:	4819      	ldr	r0, [pc, #100]	; (400568 <com_interpretando_buffer+0x108>)
  400504:	4b19      	ldr	r3, [pc, #100]	; (40056c <com_interpretando_buffer+0x10c>)
  400506:	4798      	blx	r3
		ret->pkg_value = NULL;
  400508:	2300      	movs	r3, #0
  40050a:	6063      	str	r3, [r4, #4]
		ret->pkg_type  = command_Cafeteria_OFF;
  40050c:	2304      	movs	r3, #4
  40050e:	7023      	strb	r3, [r4, #0]
		return ret;
  400510:	4620      	mov	r0, r4
  400512:	bd38      	pop	{r3, r4, r5, pc}
	} else if (!strcmp(pdata, pacote_Buzzer_ON)){
  400514:	491e      	ldr	r1, [pc, #120]	; (400590 <com_interpretando_buffer+0x130>)
  400516:	4628      	mov	r0, r5
  400518:	4b12      	ldr	r3, [pc, #72]	; (400564 <com_interpretando_buffer+0x104>)
  40051a:	4798      	blx	r3
  40051c:	b940      	cbnz	r0, 400530 <com_interpretando_buffer+0xd0>
		printf("%s \n", pacote_Buzzer_ON);
  40051e:	491c      	ldr	r1, [pc, #112]	; (400590 <com_interpretando_buffer+0x130>)
  400520:	4811      	ldr	r0, [pc, #68]	; (400568 <com_interpretando_buffer+0x108>)
  400522:	4b12      	ldr	r3, [pc, #72]	; (40056c <com_interpretando_buffer+0x10c>)
  400524:	4798      	blx	r3
		ret->pkg_type  = command_Buzzer_ON;
  400526:	2021      	movs	r0, #33	; 0x21
  400528:	7020      	strb	r0, [r4, #0]
		ret->pkg_value = NULL;
  40052a:	2300      	movs	r3, #0
  40052c:	6063      	str	r3, [r4, #4]
		return(command_Buzzer_ON);
  40052e:	bd38      	pop	{r3, r4, r5, pc}
	} else if (!strcmp(pdata, pacote_Buzzer_OFF)){
  400530:	4918      	ldr	r1, [pc, #96]	; (400594 <com_interpretando_buffer+0x134>)
  400532:	4628      	mov	r0, r5
  400534:	4b0b      	ldr	r3, [pc, #44]	; (400564 <com_interpretando_buffer+0x104>)
  400536:	4798      	blx	r3
  400538:	b948      	cbnz	r0, 40054e <com_interpretando_buffer+0xee>
		printf("%s \n", pacote_Buzzer_OFF);
  40053a:	4916      	ldr	r1, [pc, #88]	; (400594 <com_interpretando_buffer+0x134>)
  40053c:	480a      	ldr	r0, [pc, #40]	; (400568 <com_interpretando_buffer+0x108>)
  40053e:	4b0b      	ldr	r3, [pc, #44]	; (40056c <com_interpretando_buffer+0x10c>)
  400540:	4798      	blx	r3
		ret->pkg_value = NULL;
  400542:	2300      	movs	r3, #0
  400544:	6063      	str	r3, [r4, #4]
		ret->pkg_type  = command_Buzzer_OFF;
  400546:	2322      	movs	r3, #34	; 0x22
  400548:	7023      	strb	r3, [r4, #0]
		return ret;
  40054a:	4620      	mov	r0, r4
  40054c:	bd38      	pop	{r3, r4, r5, pc}
	}
	ret->pkg_type  = PACOTE_ERRO;
  40054e:	23ff      	movs	r3, #255	; 0xff
  400550:	7023      	strb	r3, [r4, #0]
	ret->pkg_value = NULL;
  400552:	2300      	movs	r3, #0
  400554:	6063      	str	r3, [r4, #4]
	return ret;
  400556:	4620      	mov	r0, r4
  400558:	bd38      	pop	{r3, r4, r5, pc}
  40055a:	bf00      	nop
  40055c:	004046dd 	.word	0x004046dd
  400560:	00408038 	.word	0x00408038
  400564:	00404f29 	.word	0x00404f29
  400568:	00408040 	.word	0x00408040
  40056c:	004046b5 	.word	0x004046b5
  400570:	00408048 	.word	0x00408048
  400574:	00408050 	.word	0x00408050
  400578:	0040805c 	.word	0x0040805c
  40057c:	00408064 	.word	0x00408064
  400580:	00405595 	.word	0x00405595
  400584:	00400599 	.word	0x00400599
  400588:	0040806c 	.word	0x0040806c
  40058c:	0040807c 	.word	0x0040807c
  400590:	0040808c 	.word	0x0040808c
  400594:	00408098 	.word	0x00408098

00400598 <parse_hour>:
#define MINUTE_DIGIT_ID   4

#define CHAR_TO_INT(val) (val - '0')

hour_t *parse_hour(char *hour_str)
{
  400598:	b510      	push	{r4, lr}
  40059a:	4604      	mov	r4, r0
	hour_t *h = (hour_t *) malloc(sizeof(hour_t));
  40059c:	2002      	movs	r0, #2
  40059e:	4b0a      	ldr	r3, [pc, #40]	; (4005c8 <parse_hour+0x30>)
  4005a0:	4798      	blx	r3
	h->hour = CHAR_TO_INT(hour_str[HOUR_DECIMAL_ID]) * 10 +
  4005a2:	7823      	ldrb	r3, [r4, #0]
  4005a4:	3b30      	subs	r3, #48	; 0x30
  4005a6:	eb03 0383 	add.w	r3, r3, r3, lsl #2
  4005aa:	7862      	ldrb	r2, [r4, #1]
  4005ac:	3a30      	subs	r2, #48	; 0x30
  4005ae:	eb02 0343 	add.w	r3, r2, r3, lsl #1
  4005b2:	7003      	strb	r3, [r0, #0]
			  CHAR_TO_INT(hour_str[HOUR_DIGIT_ID]);
	h->minute = CHAR_TO_INT(hour_str[MINUTE_DECIMAL_ID]) * 10 +
  4005b4:	78e3      	ldrb	r3, [r4, #3]
  4005b6:	3b30      	subs	r3, #48	; 0x30
  4005b8:	eb03 0383 	add.w	r3, r3, r3, lsl #2
  4005bc:	7922      	ldrb	r2, [r4, #4]
  4005be:	3a30      	subs	r2, #48	; 0x30
  4005c0:	eb02 0343 	add.w	r3, r2, r3, lsl #1
  4005c4:	7043      	strb	r3, [r0, #1]
	            CHAR_TO_INT(hour_str[MINUTE_DIGIT_ID]);
	return h;
  4005c6:	bd10      	pop	{r4, pc}
  4005c8:	004046dd 	.word	0x004046dd

004005cc <rtc_init>:
#define HOUR   9
#define MINUTE 5
#define SECOND 0

void rtc_init(void)
{
  4005cc:	b530      	push	{r4, r5, lr}
  4005ce:	b083      	sub	sp, #12
	// PMC
	pmc_enable_periph_clk(ID_RTC);
  4005d0:	2002      	movs	r0, #2
  4005d2:	4b13      	ldr	r3, [pc, #76]	; (400620 <rtc_init+0x54>)
  4005d4:	4798      	blx	r3

	// Default RTC config for 24hrs mode
	rtc_set_hour_mode(RTC, 0);
  4005d6:	4c13      	ldr	r4, [pc, #76]	; (400624 <rtc_init+0x58>)
  4005d8:	2100      	movs	r1, #0
  4005da:	4620      	mov	r0, r4
  4005dc:	4b12      	ldr	r3, [pc, #72]	; (400628 <rtc_init+0x5c>)
  4005de:	4798      	blx	r3

	// Configure date and hour manually
	// TODO: Use actual time, not random consts
	//       (gather data from the internet
	//		 once online)
	rtc_set_date(RTC, YEAR, MONTH, DAY, WEEK);
  4005e0:	230d      	movs	r3, #13
  4005e2:	9300      	str	r3, [sp, #0]
  4005e4:	231b      	movs	r3, #27
  4005e6:	2203      	movs	r2, #3
  4005e8:	f240 71e1 	movw	r1, #2017	; 0x7e1
  4005ec:	4620      	mov	r0, r4
  4005ee:	4d0f      	ldr	r5, [pc, #60]	; (40062c <rtc_init+0x60>)
  4005f0:	47a8      	blx	r5
	rtc_set_time(RTC, HOUR, MINUTE, SECOND);
  4005f2:	2300      	movs	r3, #0
  4005f4:	2205      	movs	r2, #5
  4005f6:	2109      	movs	r1, #9
  4005f8:	4620      	mov	r0, r4
  4005fa:	4d0d      	ldr	r5, [pc, #52]	; (400630 <rtc_init+0x64>)
  4005fc:	47a8      	blx	r5

    \param [in]      IRQn  External interrupt number. Value cannot be negative.
 */
__STATIC_INLINE void NVIC_DisableIRQ(IRQn_Type IRQn)
{
  NVIC->ICER[((uint32_t)(IRQn) >> 5)] = (1 << ((uint32_t)(IRQn) & 0x1F)); /* disable interrupt */
  4005fe:	4b0d      	ldr	r3, [pc, #52]	; (400634 <rtc_init+0x68>)
  400600:	2204      	movs	r2, #4
  400602:	f8c3 2080 	str.w	r2, [r3, #128]	; 0x80

    \param [in]      IRQn  External interrupt number. Value cannot be negative.
 */
__STATIC_INLINE void NVIC_ClearPendingIRQ(IRQn_Type IRQn)
{
  NVIC->ICPR[((uint32_t)(IRQn) >> 5)] = (1 << ((uint32_t)(IRQn) & 0x1F)); /* Clear pending interrupt */
  400606:	f8c3 2180 	str.w	r2, [r3, #384]	; 0x180
__STATIC_INLINE void NVIC_SetPriority(IRQn_Type IRQn, uint32_t priority)
{
  if(IRQn < 0) {
    SCB->SHPR[((uint32_t)(IRQn) & 0xF)-4] = ((priority << (8 - __NVIC_PRIO_BITS)) & 0xff); } /* set Priority for Cortex-M  System Interrupts */
  else {
    NVIC->IP[(uint32_t)(IRQn)]            = ((priority << (8 - __NVIC_PRIO_BITS)) & 0xff); } /* set Priority for device specific Interrupts  */
  40060a:	2120      	movs	r1, #32
  40060c:	f883 1302 	strb.w	r1, [r3, #770]	; 0x302
    \param [in]      IRQn  External interrupt number. Value cannot be negative.
 */
__STATIC_INLINE void NVIC_EnableIRQ(IRQn_Type IRQn)
{
/*  NVIC->ISER[((uint32_t)(IRQn) >> 5)] = (1 << ((uint32_t)(IRQn) & 0x1F));  enable interrupt */
  NVIC->ISER[(uint32_t)((int32_t)IRQn) >> 5] = (uint32_t)(1 << ((uint32_t)((int32_t)IRQn) & (uint32_t)0x1F)); /* enable interrupt */
  400610:	601a      	str	r2, [r3, #0]
	NVIC_ClearPendingIRQ(RTC_IRQn);
	NVIC_SetPriority(RTC_IRQn, 1);
	NVIC_EnableIRQ(RTC_IRQn);

	// Enable alarm interrupts
	rtc_enable_interrupt(RTC, RTC_IER_ALREN);
  400612:	2102      	movs	r1, #2
  400614:	4620      	mov	r0, r4
  400616:	4b08      	ldr	r3, [pc, #32]	; (400638 <rtc_init+0x6c>)
  400618:	4798      	blx	r3
}
  40061a:	b003      	add	sp, #12
  40061c:	bd30      	pop	{r4, r5, pc}
  40061e:	bf00      	nop
  400620:	00403995 	.word	0x00403995
  400624:	400e1860 	.word	0x400e1860
  400628:	0040019d 	.word	0x0040019d
  40062c:	0040033d 	.word	0x0040033d
  400630:	00400215 	.word	0x00400215
  400634:	e000e100 	.word	0xe000e100
  400638:	004001b5 	.word	0x004001b5

0040063c <rtc_set_alarm>:

void rtc_set_alarm(hour_t *h)
{
  40063c:	b570      	push	{r4, r5, r6, lr}
  40063e:	b086      	sub	sp, #24
  400640:	4604      	mov	r4, r0
	uint32_t date_err = rtc_set_date_alarm(RTC,
  400642:	4d16      	ldr	r5, [pc, #88]	; (40069c <rtc_set_alarm+0x60>)
  400644:	231b      	movs	r3, #27
  400646:	9300      	str	r3, [sp, #0]
  400648:	2301      	movs	r3, #1
  40064a:	2203      	movs	r2, #3
  40064c:	4619      	mov	r1, r3
  40064e:	4628      	mov	r0, r5
  400650:	4e13      	ldr	r6, [pc, #76]	; (4006a0 <rtc_set_alarm+0x64>)
  400652:	47b0      	blx	r6
  400654:	4606      	mov	r6, r0
			1, MONTH, 1, DAY);
	uint32_t time_err = rtc_set_time_alarm(RTC,
  400656:	7822      	ldrb	r2, [r4, #0]
  400658:	2300      	movs	r3, #0
  40065a:	9302      	str	r3, [sp, #8]
  40065c:	2101      	movs	r1, #1
  40065e:	9101      	str	r1, [sp, #4]
  400660:	7863      	ldrb	r3, [r4, #1]
  400662:	9300      	str	r3, [sp, #0]
  400664:	460b      	mov	r3, r1
  400666:	4628      	mov	r0, r5
  400668:	4d0e      	ldr	r5, [pc, #56]	; (4006a4 <rtc_set_alarm+0x68>)
  40066a:	47a8      	blx	r5
			1, h->hour, 1, h->minute, 1, 0);
	if (!time_err && !date_err) {
  40066c:	b980      	cbnz	r0, 400690 <rtc_set_alarm+0x54>
  40066e:	b97e      	cbnz	r6, 400690 <rtc_set_alarm+0x54>
		printf("Alarm set to: %.2hhd:%.2hhd\n",
  400670:	7862      	ldrb	r2, [r4, #1]
  400672:	7821      	ldrb	r1, [r4, #0]
  400674:	480c      	ldr	r0, [pc, #48]	; (4006a8 <rtc_set_alarm+0x6c>)
  400676:	4c0d      	ldr	r4, [pc, #52]	; (4006ac <rtc_set_alarm+0x70>)
  400678:	47a0      	blx	r4
				h->hour, h->minute);
		uint32_t pul_hour, pul_minute;
		rtc_get_time(RTC, &pul_hour, &pul_minute,
  40067a:	2300      	movs	r3, #0
  40067c:	aa05      	add	r2, sp, #20
  40067e:	a904      	add	r1, sp, #16
  400680:	4806      	ldr	r0, [pc, #24]	; (40069c <rtc_set_alarm+0x60>)
  400682:	4d0b      	ldr	r5, [pc, #44]	; (4006b0 <rtc_set_alarm+0x74>)
  400684:	47a8      	blx	r5
				NULL);
		printf("Current time: %.2hhd:%.2hhd\n",
  400686:	9a05      	ldr	r2, [sp, #20]
  400688:	9904      	ldr	r1, [sp, #16]
  40068a:	480a      	ldr	r0, [pc, #40]	; (4006b4 <rtc_set_alarm+0x78>)
  40068c:	47a0      	blx	r4
  40068e:	e002      	b.n	400696 <rtc_set_alarm+0x5a>
				pul_hour, pul_minute);

	} else
		puts("RTC alarm set error");
  400690:	4809      	ldr	r0, [pc, #36]	; (4006b8 <rtc_set_alarm+0x7c>)
  400692:	4b0a      	ldr	r3, [pc, #40]	; (4006bc <rtc_set_alarm+0x80>)
  400694:	4798      	blx	r3
  400696:	b006      	add	sp, #24
  400698:	bd70      	pop	{r4, r5, r6, pc}
  40069a:	bf00      	nop
  40069c:	400e1860 	.word	0x400e1860
  4006a0:	004003f5 	.word	0x004003f5
  4006a4:	004002a5 	.word	0x004002a5
  4006a8:	004080a4 	.word	0x004080a4
  4006ac:	004046b5 	.word	0x004046b5
  4006b0:	004001b9 	.word	0x004001b9
  4006b4:	004080c4 	.word	0x004080c4
  4006b8:	004080e4 	.word	0x004080e4
  4006bc:	00404d79 	.word	0x00404d79

004006c0 <chip_isr>:

static tpfNmBspIsr gpfIsr;

static void chip_isr(uint32_t id, uint32_t mask)
{
	if ((id == CONF_WINC_SPI_INT_PIO_ID) && (mask == CONF_WINC_SPI_INT_MASK)) {
  4006c0:	2810      	cmp	r0, #16
  4006c2:	d108      	bne.n	4006d6 <chip_isr+0x16>
  4006c4:	f1b1 5f80 	cmp.w	r1, #268435456	; 0x10000000
  4006c8:	d105      	bne.n	4006d6 <chip_isr+0x16>
#include "conf_winc.h"

static tpfNmBspIsr gpfIsr;

static void chip_isr(uint32_t id, uint32_t mask)
{
  4006ca:	b508      	push	{r3, lr}
	if ((id == CONF_WINC_SPI_INT_PIO_ID) && (mask == CONF_WINC_SPI_INT_MASK)) {
		if (gpfIsr) {
  4006cc:	4b02      	ldr	r3, [pc, #8]	; (4006d8 <chip_isr+0x18>)
  4006ce:	681b      	ldr	r3, [r3, #0]
  4006d0:	b103      	cbz	r3, 4006d4 <chip_isr+0x14>
			gpfIsr();
  4006d2:	4798      	blx	r3
  4006d4:	bd08      	pop	{r3, pc}
  4006d6:	4770      	bx	lr
  4006d8:	204008a0 	.word	0x204008a0

004006dc <nm_bsp_sleep>:
*	@param[IN]	u32TimeMsec
*				Time in milliseconds
*/
void nm_bsp_sleep(uint32 u32TimeMsec)
{
	while(u32TimeMsec--) {
  4006dc:	b140      	cbz	r0, 4006f0 <nm_bsp_sleep+0x14>
*	@brief	Sleep in units of mSec
*	@param[IN]	u32TimeMsec
*				Time in milliseconds
*/
void nm_bsp_sleep(uint32 u32TimeMsec)
{
  4006de:	b570      	push	{r4, r5, r6, lr}
  4006e0:	4604      	mov	r4, r0
	while(u32TimeMsec--) {
		delay_ms(4);
  4006e2:	4e04      	ldr	r6, [pc, #16]	; (4006f4 <nm_bsp_sleep+0x18>)
  4006e4:	4d04      	ldr	r5, [pc, #16]	; (4006f8 <nm_bsp_sleep+0x1c>)
  4006e6:	4630      	mov	r0, r6
  4006e8:	47a8      	blx	r5
*	@param[IN]	u32TimeMsec
*				Time in milliseconds
*/
void nm_bsp_sleep(uint32 u32TimeMsec)
{
	while(u32TimeMsec--) {
  4006ea:	3c01      	subs	r4, #1
  4006ec:	d1fb      	bne.n	4006e6 <nm_bsp_sleep+0xa>
  4006ee:	bd70      	pop	{r4, r5, r6, pc}
  4006f0:	4770      	bx	lr
  4006f2:	bf00      	nop
  4006f4:	00031635 	.word	0x00031635
  4006f8:	20400001 	.word	0x20400001

004006fc <nm_bsp_reset>:
 *	@fn		nm_bsp_reset
 *	@brief	Reset WINC1500 SoC by setting CHIP_EN and RESET_N signals low,
 *           CHIP_EN high then RESET_N high
 */
void nm_bsp_reset(void)
{
  4006fc:	e92d 41f0 	stmdb	sp!, {r4, r5, r6, r7, r8, lr}
	Pio *base = arch_ioport_pin_to_base(pin);

	if (level) {
		base->PIO_SODR = arch_ioport_pin_to_mask(pin);
	} else {
		base->PIO_CODR = arch_ioport_pin_to_mask(pin);
  400700:	4f09      	ldr	r7, [pc, #36]	; (400728 <nm_bsp_reset+0x2c>)
  400702:	f44f 3800 	mov.w	r8, #131072	; 0x20000
  400706:	f8c7 8034 	str.w	r8, [r7, #52]	; 0x34
  40070a:	4d08      	ldr	r5, [pc, #32]	; (40072c <nm_bsp_reset+0x30>)
  40070c:	2608      	movs	r6, #8
  40070e:	636e      	str	r6, [r5, #52]	; 0x34
	ioport_set_pin_level(CONF_WINC_PIN_CHIP_ENABLE, IOPORT_PIN_LEVEL_LOW);
	ioport_set_pin_level(CONF_WINC_PIN_RESET, IOPORT_PIN_LEVEL_LOW);
	nm_bsp_sleep(100);
  400710:	2064      	movs	r0, #100	; 0x64
  400712:	4c07      	ldr	r4, [pc, #28]	; (400730 <nm_bsp_reset+0x34>)
  400714:	47a0      	blx	r4
		bool level)
{
	Pio *base = arch_ioport_pin_to_base(pin);

	if (level) {
		base->PIO_SODR = arch_ioport_pin_to_mask(pin);
  400716:	f8c7 8030 	str.w	r8, [r7, #48]	; 0x30
	ioport_set_pin_level(CONF_WINC_PIN_CHIP_ENABLE, IOPORT_PIN_LEVEL_HIGH);
	nm_bsp_sleep(100);
  40071a:	2064      	movs	r0, #100	; 0x64
  40071c:	47a0      	blx	r4
  40071e:	632e      	str	r6, [r5, #48]	; 0x30
	ioport_set_pin_level(CONF_WINC_PIN_RESET, IOPORT_PIN_LEVEL_HIGH);
	nm_bsp_sleep(100);
  400720:	2064      	movs	r0, #100	; 0x64
  400722:	47a0      	blx	r4
  400724:	e8bd 81f0 	ldmia.w	sp!, {r4, r5, r6, r7, r8, pc}
  400728:	400e1200 	.word	0x400e1200
  40072c:	400e1000 	.word	0x400e1000
  400730:	004006dd 	.word	0x004006dd

00400734 <nm_bsp_init>:
*	@fn		nm_bsp_init
*	@brief	Initialize BSP
*	@return	0 in case of success and -1 in case of failure
*/
sint8 nm_bsp_init(void)
{
  400734:	b510      	push	{r4, lr}
	gpfIsr = NULL;
  400736:	2200      	movs	r2, #0
  400738:	4b14      	ldr	r3, [pc, #80]	; (40078c <nm_bsp_init+0x58>)
  40073a:	601a      	str	r2, [r3, #0]
 *
 * \param ul_id Id (number) of the peripheral clock.
 */
static inline void sysclk_enable_peripheral_clock(uint32_t ul_id)
{
	pmc_enable_periph_clk(ul_id);
  40073c:	200a      	movs	r0, #10
  40073e:	4c14      	ldr	r4, [pc, #80]	; (400790 <nm_bsp_init+0x5c>)
  400740:	47a0      	blx	r4
  400742:	200b      	movs	r0, #11
  400744:	47a0      	blx	r4
  400746:	200c      	movs	r0, #12
  400748:	47a0      	blx	r4
  40074a:	2010      	movs	r0, #16
  40074c:	47a0      	blx	r4
  40074e:	2011      	movs	r0, #17
  400750:	47a0      	blx	r4
		enum ioport_direction dir)
{
	Pio *base = arch_ioport_pin_to_base(pin);

	if (dir == IOPORT_DIR_OUTPUT) {
		base->PIO_OER = arch_ioport_pin_to_mask(pin);
  400752:	4b10      	ldr	r3, [pc, #64]	; (400794 <nm_bsp_init+0x60>)
  400754:	2208      	movs	r2, #8
  400756:	611a      	str	r2, [r3, #16]
	} else if (dir == IOPORT_DIR_INPUT) {
		base->PIO_ODR = arch_ioport_pin_to_mask(pin);
	}

	base->PIO_OWER = arch_ioport_pin_to_mask(pin);
  400758:	f8c3 20a0 	str.w	r2, [r3, #160]	; 0xa0
		bool level)
{
	Pio *base = arch_ioport_pin_to_base(pin);

	if (level) {
		base->PIO_SODR = arch_ioport_pin_to_mask(pin);
  40075c:	631a      	str	r2, [r3, #48]	; 0x30
		enum ioport_direction dir)
{
	Pio *base = arch_ioport_pin_to_base(pin);

	if (dir == IOPORT_DIR_OUTPUT) {
		base->PIO_OER = arch_ioport_pin_to_mask(pin);
  40075e:	4a0e      	ldr	r2, [pc, #56]	; (400798 <nm_bsp_init+0x64>)
  400760:	f44f 3100 	mov.w	r1, #131072	; 0x20000
  400764:	6111      	str	r1, [r2, #16]
	} else if (dir == IOPORT_DIR_INPUT) {
		base->PIO_ODR = arch_ioport_pin_to_mask(pin);
	}

	base->PIO_OWER = arch_ioport_pin_to_mask(pin);
  400766:	f8c2 10a0 	str.w	r1, [r2, #160]	; 0xa0
		bool level)
{
	Pio *base = arch_ioport_pin_to_base(pin);

	if (level) {
		base->PIO_SODR = arch_ioport_pin_to_mask(pin);
  40076a:	6311      	str	r1, [r2, #48]	; 0x30
		enum ioport_direction dir)
{
	Pio *base = arch_ioport_pin_to_base(pin);

	if (dir == IOPORT_DIR_OUTPUT) {
		base->PIO_OER = arch_ioport_pin_to_mask(pin);
  40076c:	2204      	movs	r2, #4
  40076e:	611a      	str	r2, [r3, #16]
	} else if (dir == IOPORT_DIR_INPUT) {
		base->PIO_ODR = arch_ioport_pin_to_mask(pin);
	}

	base->PIO_OWER = arch_ioport_pin_to_mask(pin);
  400770:	f8c3 20a0 	str.w	r2, [r3, #160]	; 0xa0
		bool level)
{
	Pio *base = arch_ioport_pin_to_base(pin);

	if (level) {
		base->PIO_SODR = arch_ioport_pin_to_mask(pin);
  400774:	631a      	str	r2, [r3, #48]	; 0x30

	/* Initialize chip IOs. */
	init_chip_pins();

    /* Make sure a 1ms Systick is configured. */
    if (!(SysTick->CTRL & SysTick_CTRL_ENABLE_Msk && SysTick->CTRL & SysTick_CTRL_TICKINT_Msk)) {
  400776:	4b09      	ldr	r3, [pc, #36]	; (40079c <nm_bsp_init+0x68>)
  400778:	681b      	ldr	r3, [r3, #0]
  40077a:	f013 0f01 	tst.w	r3, #1
  40077e:	d001      	beq.n	400784 <nm_bsp_init+0x50>
  400780:	4b06      	ldr	r3, [pc, #24]	; (40079c <nm_bsp_init+0x68>)
  400782:	681b      	ldr	r3, [r3, #0]
	    delay_init();
    }

	/* Perform chip reset. */
	nm_bsp_reset();
  400784:	4b06      	ldr	r3, [pc, #24]	; (4007a0 <nm_bsp_init+0x6c>)
  400786:	4798      	blx	r3

	return 0;
}
  400788:	2000      	movs	r0, #0
  40078a:	bd10      	pop	{r4, pc}
  40078c:	204008a0 	.word	0x204008a0
  400790:	00403995 	.word	0x00403995
  400794:	400e1000 	.word	0x400e1000
  400798:	400e1200 	.word	0x400e1200
  40079c:	e000e010 	.word	0xe000e010
  4007a0:	004006fd 	.word	0x004006fd

004007a4 <nm_bsp_register_isr>:
*	@brief	Register interrupt service routine
*	@param[IN]	pfIsr
*				Pointer to ISR handler
*/
void nm_bsp_register_isr(tpfNmBspIsr pfIsr)
{
  4007a4:	b530      	push	{r4, r5, lr}
  4007a6:	b083      	sub	sp, #12
	gpfIsr = pfIsr;
  4007a8:	4b14      	ldr	r3, [pc, #80]	; (4007fc <nm_bsp_register_isr+0x58>)
  4007aa:	6018      	str	r0, [r3, #0]

	/* Configure PGIO pin for interrupt from SPI slave, used when slave has data to send. */
	pmc_enable_periph_clk(CONF_WINC_SPI_INT_PIO_ID);
  4007ac:	2010      	movs	r0, #16
  4007ae:	4b14      	ldr	r3, [pc, #80]	; (400800 <nm_bsp_register_isr+0x5c>)
  4007b0:	4798      	blx	r3
	pio_configure_pin(CONF_WINC_SPI_INT_PIN, PIO_TYPE_PIO_INPUT);
  4007b2:	f04f 5120 	mov.w	r1, #671088640	; 0x28000000
  4007b6:	207c      	movs	r0, #124	; 0x7c
  4007b8:	4b12      	ldr	r3, [pc, #72]	; (400804 <nm_bsp_register_isr+0x60>)
  4007ba:	4798      	blx	r3
	pio_pull_up(CONF_WINC_SPI_INT_PIO, CONF_WINC_SPI_INT_MASK, PIO_PULLUP);
  4007bc:	4c12      	ldr	r4, [pc, #72]	; (400808 <nm_bsp_register_isr+0x64>)
  4007be:	2201      	movs	r2, #1
  4007c0:	f04f 5180 	mov.w	r1, #268435456	; 0x10000000
  4007c4:	4620      	mov	r0, r4
  4007c6:	4b11      	ldr	r3, [pc, #68]	; (40080c <nm_bsp_register_isr+0x68>)
  4007c8:	4798      	blx	r3
	/*Interrupt on falling edge*/
	pio_handler_set(CONF_WINC_SPI_INT_PIO, CONF_WINC_SPI_INT_PIO_ID,
  4007ca:	4b11      	ldr	r3, [pc, #68]	; (400810 <nm_bsp_register_isr+0x6c>)
  4007cc:	9300      	str	r3, [sp, #0]
  4007ce:	2351      	movs	r3, #81	; 0x51
  4007d0:	f04f 5280 	mov.w	r2, #268435456	; 0x10000000
  4007d4:	2110      	movs	r1, #16
  4007d6:	4620      	mov	r0, r4
  4007d8:	4d0e      	ldr	r5, [pc, #56]	; (400814 <nm_bsp_register_isr+0x70>)
  4007da:	47a8      	blx	r5
	CONF_WINC_SPI_INT_MASK, PIO_PULLUP | PIO_IT_FALL_EDGE, chip_isr);
	pio_enable_interrupt(CONF_WINC_SPI_INT_PIO, CONF_WINC_SPI_INT_MASK);
  4007dc:	f04f 5180 	mov.w	r1, #268435456	; 0x10000000
  4007e0:	4620      	mov	r0, r4
  4007e2:	4b0d      	ldr	r3, [pc, #52]	; (400818 <nm_bsp_register_isr+0x74>)
  4007e4:	4798      	blx	r3
  4007e6:	f44f 3280 	mov.w	r2, #65536	; 0x10000
  4007ea:	4b0c      	ldr	r3, [pc, #48]	; (40081c <nm_bsp_register_isr+0x78>)
  4007ec:	601a      	str	r2, [r3, #0]
	NVIC_EnableIRQ((IRQn_Type) CONF_WINC_SPI_INT_PIO_ID);
	pio_handler_set_priority(CONF_WINC_SPI_INT_PIO, (IRQn_Type)CONF_WINC_SPI_INT_PIO_ID,
  4007ee:	2200      	movs	r2, #0
  4007f0:	2110      	movs	r1, #16
  4007f2:	4620      	mov	r0, r4
  4007f4:	4b0a      	ldr	r3, [pc, #40]	; (400820 <nm_bsp_register_isr+0x7c>)
  4007f6:	4798      	blx	r3
			CONF_WINC_SPI_INT_PRIORITY);
}
  4007f8:	b003      	add	sp, #12
  4007fa:	bd30      	pop	{r4, r5, pc}
  4007fc:	204008a0 	.word	0x204008a0
  400800:	00403995 	.word	0x00403995
  400804:	00403595 	.word	0x00403595
  400808:	400e1400 	.word	0x400e1400
  40080c:	00403451 	.word	0x00403451
  400810:	004006c1 	.word	0x004006c1
  400814:	00403719 	.word	0x00403719
  400818:	00403585 	.word	0x00403585
  40081c:	e000e100 	.word	0xe000e100
  400820:	004037e9 	.word	0x004037e9

00400824 <nm_bsp_interrupt_ctrl>:
*	@brief	Enable/Disable interrupts
*	@param[IN]	u8Enable
*				'0' disable interrupts. '1' enable interrupts
*/
void nm_bsp_interrupt_ctrl(uint8 u8Enable)
{
  400824:	b508      	push	{r3, lr}
	if (u8Enable) {
  400826:	b128      	cbz	r0, 400834 <nm_bsp_interrupt_ctrl+0x10>
		pio_enable_interrupt(CONF_WINC_SPI_INT_PIO, CONF_WINC_SPI_INT_MASK);
  400828:	f04f 5180 	mov.w	r1, #268435456	; 0x10000000
  40082c:	4804      	ldr	r0, [pc, #16]	; (400840 <nm_bsp_interrupt_ctrl+0x1c>)
  40082e:	4b05      	ldr	r3, [pc, #20]	; (400844 <nm_bsp_interrupt_ctrl+0x20>)
  400830:	4798      	blx	r3
  400832:	bd08      	pop	{r3, pc}
	}
	else {
		pio_disable_interrupt(CONF_WINC_SPI_INT_PIO, CONF_WINC_SPI_INT_MASK);
  400834:	f04f 5180 	mov.w	r1, #268435456	; 0x10000000
  400838:	4801      	ldr	r0, [pc, #4]	; (400840 <nm_bsp_interrupt_ctrl+0x1c>)
  40083a:	4b03      	ldr	r3, [pc, #12]	; (400848 <nm_bsp_interrupt_ctrl+0x24>)
  40083c:	4798      	blx	r3
  40083e:	bd08      	pop	{r3, pc}
  400840:	400e1400 	.word	0x400e1400
  400844:	00403585 	.word	0x00403585
  400848:	00403589 	.word	0x00403589

0040084c <nm_bus_init>:
 *	@fn		nm_bus_init
 *	@brief	Initialize the bus wrapper
 *	@return	M2M_SUCCESS in case of success and M2M_ERR_BUS_FAIL in case of failure
 */
sint8 nm_bus_init(void *pvinit)
{
  40084c:	b5f8      	push	{r3, r4, r5, r6, r7, lr}
	Pio *base = arch_ioport_port_to_base(port);

	if (mode & IOPORT_MODE_PULLUP) {
		base->PIO_PUER = mask;
	} else {
		base->PIO_PUDR = mask;
  40084e:	4c39      	ldr	r4, [pc, #228]	; (400934 <nm_bus_init+0xe8>)
  400850:	f44f 1180 	mov.w	r1, #1048576	; 0x100000
  400854:	6621      	str	r1, [r4, #96]	; 0x60

#if defined(IOPORT_MODE_PULLDOWN)
	if (mode & IOPORT_MODE_PULLDOWN) {
		base->PIO_PPDER = mask;
	} else {
		base->PIO_PPDDR = mask;
  400856:	f8c4 1090 	str.w	r1, [r4, #144]	; 0x90
#endif

	if (mode & IOPORT_MODE_OPEN_DRAIN) {
		base->PIO_MDER = mask;
	} else {
		base->PIO_MDDR = mask;
  40085a:	6561      	str	r1, [r4, #84]	; 0x54
	}

	if (mode & (IOPORT_MODE_GLITCH_FILTER | IOPORT_MODE_DEBOUNCE)) {
		base->PIO_IFER = mask;
	} else {
		base->PIO_IFDR = mask;
  40085c:	6261      	str	r1, [r4, #36]	; 0x24
#endif
	} else {
#if SAM3U || SAM3XA
		base->PIO_SCIFSR = mask;
#else
		base->PIO_IFSCDR = mask;
  40085e:	f8c4 1080 	str.w	r1, [r4, #128]	; 0x80
	} else {
		base->PIO_ABSR &= ~mask;
	}
#else
	if (mode & IOPORT_MODE_MUX_BIT0) {
		base->PIO_ABCDSR[0] |= mask;
  400862:	6f23      	ldr	r3, [r4, #112]	; 0x70
  400864:	430b      	orrs	r3, r1
  400866:	6723      	str	r3, [r4, #112]	; 0x70
	}

	if (mode & IOPORT_MODE_MUX_BIT1) {
		base->PIO_ABCDSR[1] |= mask;
	} else {
		base->PIO_ABCDSR[1] &= ~mask;
  400868:	6f63      	ldr	r3, [r4, #116]	; 0x74
  40086a:	f423 1380 	bic.w	r3, r3, #1048576	; 0x100000
  40086e:	6763      	str	r3, [r4, #116]	; 0x74
	Pio *base = arch_ioport_port_to_base(port);

	if (mode & IOPORT_MODE_PULLUP) {
		base->PIO_PUER = mask;
	} else {
		base->PIO_PUDR = mask;
  400870:	f44f 1200 	mov.w	r2, #2097152	; 0x200000
  400874:	6622      	str	r2, [r4, #96]	; 0x60

#if defined(IOPORT_MODE_PULLDOWN)
	if (mode & IOPORT_MODE_PULLDOWN) {
		base->PIO_PPDER = mask;
	} else {
		base->PIO_PPDDR = mask;
  400876:	f8c4 2090 	str.w	r2, [r4, #144]	; 0x90
#endif

	if (mode & IOPORT_MODE_OPEN_DRAIN) {
		base->PIO_MDER = mask;
	} else {
		base->PIO_MDDR = mask;
  40087a:	6562      	str	r2, [r4, #84]	; 0x54
	}

	if (mode & (IOPORT_MODE_GLITCH_FILTER | IOPORT_MODE_DEBOUNCE)) {
		base->PIO_IFER = mask;
	} else {
		base->PIO_IFDR = mask;
  40087c:	6262      	str	r2, [r4, #36]	; 0x24
#endif
	} else {
#if SAM3U || SAM3XA
		base->PIO_SCIFSR = mask;
#else
		base->PIO_IFSCDR = mask;
  40087e:	f8c4 2080 	str.w	r2, [r4, #128]	; 0x80
	} else {
		base->PIO_ABSR &= ~mask;
	}
#else
	if (mode & IOPORT_MODE_MUX_BIT0) {
		base->PIO_ABCDSR[0] |= mask;
  400882:	6f23      	ldr	r3, [r4, #112]	; 0x70
  400884:	4313      	orrs	r3, r2
  400886:	6723      	str	r3, [r4, #112]	; 0x70
	}

	if (mode & IOPORT_MODE_MUX_BIT1) {
		base->PIO_ABCDSR[1] |= mask;
	} else {
		base->PIO_ABCDSR[1] &= ~mask;
  400888:	6f63      	ldr	r3, [r4, #116]	; 0x74
  40088a:	f423 1300 	bic.w	r3, r3, #2097152	; 0x200000
  40088e:	6763      	str	r3, [r4, #116]	; 0x74
	Pio *base = arch_ioport_port_to_base(port);

	if (mode & IOPORT_MODE_PULLUP) {
		base->PIO_PUER = mask;
	} else {
		base->PIO_PUDR = mask;
  400890:	f44f 0380 	mov.w	r3, #4194304	; 0x400000
  400894:	6623      	str	r3, [r4, #96]	; 0x60

#if defined(IOPORT_MODE_PULLDOWN)
	if (mode & IOPORT_MODE_PULLDOWN) {
		base->PIO_PPDER = mask;
	} else {
		base->PIO_PPDDR = mask;
  400896:	f8c4 3090 	str.w	r3, [r4, #144]	; 0x90
#endif

	if (mode & IOPORT_MODE_OPEN_DRAIN) {
		base->PIO_MDER = mask;
	} else {
		base->PIO_MDDR = mask;
  40089a:	6563      	str	r3, [r4, #84]	; 0x54
	}

	if (mode & (IOPORT_MODE_GLITCH_FILTER | IOPORT_MODE_DEBOUNCE)) {
		base->PIO_IFER = mask;
	} else {
		base->PIO_IFDR = mask;
  40089c:	6263      	str	r3, [r4, #36]	; 0x24
#endif
	} else {
#if SAM3U || SAM3XA
		base->PIO_SCIFSR = mask;
#else
		base->PIO_IFSCDR = mask;
  40089e:	f8c4 3080 	str.w	r3, [r4, #128]	; 0x80
	} else {
		base->PIO_ABSR &= ~mask;
	}
#else
	if (mode & IOPORT_MODE_MUX_BIT0) {
		base->PIO_ABCDSR[0] |= mask;
  4008a2:	6f20      	ldr	r0, [r4, #112]	; 0x70
  4008a4:	4318      	orrs	r0, r3
  4008a6:	6720      	str	r0, [r4, #112]	; 0x70
	}

	if (mode & IOPORT_MODE_MUX_BIT1) {
		base->PIO_ABCDSR[1] |= mask;
	} else {
		base->PIO_ABCDSR[1] &= ~mask;
  4008a8:	6f60      	ldr	r0, [r4, #116]	; 0x74
  4008aa:	f420 0080 	bic.w	r0, r0, #4194304	; 0x400000
  4008ae:	6760      	str	r0, [r4, #116]	; 0x74
}

__always_inline static void arch_ioport_disable_port(ioport_port_t port,
		ioport_port_mask_t mask)
{
	arch_ioport_port_to_base(port)->PIO_PDR = mask;
  4008b0:	6061      	str	r1, [r4, #4]
  4008b2:	6062      	str	r2, [r4, #4]
  4008b4:	6063      	str	r3, [r4, #4]
  4008b6:	f04f 7600 	mov.w	r6, #33554432	; 0x2000000
  4008ba:	6066      	str	r6, [r4, #4]
	ioport_disable_pin(CONF_WINC_SPI_MOSI_GPIO);
	ioport_disable_pin(CONF_WINC_SPI_CLK_GPIO);
	ioport_disable_pin(CONF_WINC_SPI_CS_GPIO);
	
	/* disable CS control by peripheral */
	PIOD->PIO_PER = (1<<25);
  4008bc:	6026      	str	r6, [r4, #0]
	PIOD->PIO_OER = (1<<25);
  4008be:	6126      	str	r6, [r4, #16]
	SPI_DEASSERT_CS();
  4008c0:	6326      	str	r6, [r4, #48]	; 0x30

	spi_enable_clock(CONF_WINC_SPI);
  4008c2:	4d1d      	ldr	r5, [pc, #116]	; (400938 <nm_bus_init+0xec>)
  4008c4:	4628      	mov	r0, r5
  4008c6:	4b1d      	ldr	r3, [pc, #116]	; (40093c <nm_bus_init+0xf0>)
  4008c8:	4798      	blx	r3
 *
 * \param p_spi Pointer to an SPI instance.
 */
static inline void spi_disable(Spi *p_spi)
{
	p_spi->SPI_CR = SPI_CR_SPIDIS;
  4008ca:	2302      	movs	r3, #2
  4008cc:	602b      	str	r3, [r5, #0]
 *
 * \param p_spi Pointer to an SPI instance.
 */
static inline void spi_reset(Spi *p_spi)
{
	p_spi->SPI_CR = SPI_CR_SWRST;
  4008ce:	2380      	movs	r3, #128	; 0x80
  4008d0:	602b      	str	r3, [r5, #0]
 *
 * \param p_spi Pointer to an SPI instance.
 */
static inline void spi_set_master_mode(Spi *p_spi)
{
	p_spi->SPI_MR |= SPI_MR_MSTR;
  4008d2:	686b      	ldr	r3, [r5, #4]
  4008d4:	f043 0301 	orr.w	r3, r3, #1
  4008d8:	606b      	str	r3, [r5, #4]
 *
 * \param p_spi Pointer to an SPI instance.
 */
static inline void spi_disable_mode_fault_detect(Spi *p_spi)
{
	p_spi->SPI_MR |= SPI_MR_MODFDIS;
  4008da:	686b      	ldr	r3, [r5, #4]
  4008dc:	f043 0310 	orr.w	r3, r3, #16
  4008e0:	606b      	str	r3, [r5, #4]
	spi_disable(CONF_WINC_SPI);
	spi_reset(CONF_WINC_SPI);
	spi_set_master_mode(CONF_WINC_SPI);
	spi_disable_mode_fault_detect(CONF_WINC_SPI);
	spi_set_peripheral_chip_select_value(CONF_WINC_SPI, CONF_WINC_SPI_NPCS);
  4008e2:	2101      	movs	r1, #1
  4008e4:	4628      	mov	r0, r5
  4008e6:	4b16      	ldr	r3, [pc, #88]	; (400940 <nm_bus_init+0xf4>)
  4008e8:	4798      	blx	r3
	spi_set_clock_polarity(CONF_WINC_SPI,
  4008ea:	2200      	movs	r2, #0
  4008ec:	2101      	movs	r1, #1
  4008ee:	4628      	mov	r0, r5
  4008f0:	4b14      	ldr	r3, [pc, #80]	; (400944 <nm_bus_init+0xf8>)
  4008f2:	4798      	blx	r3
			CONF_WINC_SPI_NPCS, CONF_WINC_SPI_POL);
	spi_set_clock_phase(CONF_WINC_SPI, CONF_WINC_SPI_NPCS, CONF_WINC_SPI_PHA);
  4008f4:	2201      	movs	r2, #1
  4008f6:	4611      	mov	r1, r2
  4008f8:	4628      	mov	r0, r5
  4008fa:	4b13      	ldr	r3, [pc, #76]	; (400948 <nm_bus_init+0xfc>)
  4008fc:	4798      	blx	r3
	spi_set_bits_per_transfer(CONF_WINC_SPI, CONF_WINC_SPI_NPCS, SPI_CSR_BITS_8_BIT);
  4008fe:	2200      	movs	r2, #0
  400900:	2101      	movs	r1, #1
  400902:	4628      	mov	r0, r5
  400904:	4b11      	ldr	r3, [pc, #68]	; (40094c <nm_bus_init+0x100>)
  400906:	4798      	blx	r3
	spi_set_baudrate_div(CONF_WINC_SPI, CONF_WINC_SPI_NPCS,
			spi_calc_baudrate_div(CONF_WINC_SPI_CLOCK, sysclk_get_cpu_hz()));
  400908:	4911      	ldr	r1, [pc, #68]	; (400950 <nm_bus_init+0x104>)
  40090a:	4812      	ldr	r0, [pc, #72]	; (400954 <nm_bus_init+0x108>)
  40090c:	4b12      	ldr	r3, [pc, #72]	; (400958 <nm_bus_init+0x10c>)
  40090e:	4798      	blx	r3
	spi_set_peripheral_chip_select_value(CONF_WINC_SPI, CONF_WINC_SPI_NPCS);
	spi_set_clock_polarity(CONF_WINC_SPI,
			CONF_WINC_SPI_NPCS, CONF_WINC_SPI_POL);
	spi_set_clock_phase(CONF_WINC_SPI, CONF_WINC_SPI_NPCS, CONF_WINC_SPI_PHA);
	spi_set_bits_per_transfer(CONF_WINC_SPI, CONF_WINC_SPI_NPCS, SPI_CSR_BITS_8_BIT);
	spi_set_baudrate_div(CONF_WINC_SPI, CONF_WINC_SPI_NPCS,
  400910:	b2c2      	uxtb	r2, r0
  400912:	2101      	movs	r1, #1
  400914:	4628      	mov	r0, r5
  400916:	4b11      	ldr	r3, [pc, #68]	; (40095c <nm_bus_init+0x110>)
  400918:	4798      	blx	r3
			spi_calc_baudrate_div(CONF_WINC_SPI_CLOCK, sysclk_get_cpu_hz()));
	spi_set_transfer_delay(CONF_WINC_SPI, CONF_WINC_SPI_NPCS, CONF_WINC_SPI_DLYBS,
  40091a:	2300      	movs	r3, #0
  40091c:	461a      	mov	r2, r3
  40091e:	2101      	movs	r1, #1
  400920:	4628      	mov	r0, r5
  400922:	4f0f      	ldr	r7, [pc, #60]	; (400960 <nm_bus_init+0x114>)
  400924:	47b8      	blx	r7
 *
 * \param p_spi Pointer to an SPI instance.
 */
static inline void spi_enable(Spi *p_spi)
{
	p_spi->SPI_CR = SPI_CR_SPIEN;
  400926:	2301      	movs	r3, #1
  400928:	602b      	str	r3, [r5, #0]
			CONF_WINC_SPI_DLYBCT);
	spi_enable(CONF_WINC_SPI);
	
	SPI_DEASSERT_CS();
  40092a:	6326      	str	r6, [r4, #48]	; 0x30
	nm_bsp_reset();
  40092c:	4b0d      	ldr	r3, [pc, #52]	; (400964 <nm_bus_init+0x118>)
  40092e:	4798      	blx	r3
#endif
	return result;
}
  400930:	2000      	movs	r0, #0
  400932:	bdf8      	pop	{r3, r4, r5, r6, r7, pc}
  400934:	400e1400 	.word	0x400e1400
  400938:	40008000 	.word	0x40008000
  40093c:	004039e9 	.word	0x004039e9
  400940:	00403a15 	.word	0x00403a15
  400944:	00403a99 	.word	0x00403a99
  400948:	00403ab9 	.word	0x00403ab9
  40094c:	00403ad9 	.word	0x00403ad9
  400950:	11e1a300 	.word	0x11e1a300
  400954:	02dc6c00 	.word	0x02dc6c00
  400958:	00403aed 	.word	0x00403aed
  40095c:	00403b05 	.word	0x00403b05
  400960:	00403b31 	.word	0x00403b31
  400964:	004006fd 	.word	0x004006fd

00400968 <nm_bus_ioctl>:
 *					Arbitrary parameter depenging on IOCTL
 *	@return	M2M_SUCCESS in case of success and M2M_ERR_BUS_FAIL in case of failure
 *	@note	For SPI only, it's important to be able to send/receive at the same time
 */
sint8 nm_bus_ioctl(uint8 u8Cmd, void* pvParameter)
{
  400968:	e92d 4ff0 	stmdb	sp!, {r4, r5, r6, r7, r8, r9, sl, fp, lr}
  40096c:	b083      	sub	sp, #12
	sint8 s8Ret = 0;
	switch(u8Cmd)
  40096e:	2803      	cmp	r0, #3
  400970:	d141      	bne.n	4009f6 <nm_bus_ioctl+0x8e>
		}
		break;
#elif CONF_WINC_USE_SPI
		case NM_BUS_IOCTL_RW: {
			tstrNmSpiRw *pstrParam = (tstrNmSpiRw *)pvParameter;
			s8Ret = spi_rw(pstrParam->pu8InBuf, pstrParam->pu8OutBuf, pstrParam->u16Sz);
  400972:	680e      	ldr	r6, [r1, #0]
  400974:	684d      	ldr	r5, [r1, #4]
  400976:	890c      	ldrh	r4, [r1, #8]
	uint16 cpu16Sz		= u16Sz;
	uint8 *cppu8Mosi	= pu8Mosi;
	uint8 *cppu8Miso	= pu8Miso;
	*/
	
	uint8 u8Dummy = 0;
  400978:	2300      	movs	r3, #0
  40097a:	f88d 3004 	strb.w	r3, [sp, #4]
	uint8 u8SkipMosi = 0, u8SkipMiso = 0;
	uint16_t txd_data = 0;
	uint16_t rxd_data = 0;
  40097e:	f8ad 3006 	strh.w	r3, [sp, #6]
	uint8_t uc_pcs;

	if (!pu8Mosi) {
  400982:	b136      	cbz	r6, 400992 <nm_bus_ioctl+0x2a>
		pu8Mosi = &u8Dummy;
		u8SkipMosi = 1;
	}
	else if(!pu8Miso) {
  400984:	2d00      	cmp	r5, #0
  400986:	d133      	bne.n	4009f0 <nm_bus_ioctl+0x88>
		pu8Miso = &u8Dummy;
		u8SkipMiso = 1;
  400988:	f04f 0801 	mov.w	r8, #1
	uint8 *cppu8Mosi	= pu8Mosi;
	uint8 *cppu8Miso	= pu8Miso;
	*/
	
	uint8 u8Dummy = 0;
	uint8 u8SkipMosi = 0, u8SkipMiso = 0;
  40098c:	4699      	mov	r9, r3
	if (!pu8Mosi) {
		pu8Mosi = &u8Dummy;
		u8SkipMosi = 1;
	}
	else if(!pu8Miso) {
		pu8Miso = &u8Dummy;
  40098e:	ad01      	add	r5, sp, #4
  400990:	e004      	b.n	40099c <nm_bus_ioctl+0x34>
	uint8 *cppu8Mosi	= pu8Mosi;
	uint8 *cppu8Miso	= pu8Miso;
	*/
	
	uint8 u8Dummy = 0;
	uint8 u8SkipMosi = 0, u8SkipMiso = 0;
  400992:	f04f 0800 	mov.w	r8, #0
	uint16_t rxd_data = 0;
	uint8_t uc_pcs;

	if (!pu8Mosi) {
		pu8Mosi = &u8Dummy;
		u8SkipMosi = 1;
  400996:	f04f 0901 	mov.w	r9, #1
	uint16_t txd_data = 0;
	uint16_t rxd_data = 0;
	uint8_t uc_pcs;

	if (!pu8Mosi) {
		pu8Mosi = &u8Dummy;
  40099a:	ae01      	add	r6, sp, #4
	}
	else {
		return M2M_ERR_BUS_FAIL;
	}
	
	SPI_ASSERT_CS();
  40099c:	f04f 7200 	mov.w	r2, #33554432	; 0x2000000
  4009a0:	4b1c      	ldr	r3, [pc, #112]	; (400a14 <nm_bus_ioctl+0xac>)
  4009a2:	635a      	str	r2, [r3, #52]	; 0x34
	while (u16Sz) {
  4009a4:	b1f4      	cbz	r4, 4009e4 <nm_bus_ioctl+0x7c>
		txd_data = *pu8Mosi;
		spi_write(CONF_WINC_SPI, txd_data, 0, 0);
  4009a6:	4f1c      	ldr	r7, [pc, #112]	; (400a18 <nm_bus_ioctl+0xb0>)
  4009a8:	f8df b084 	ldr.w	fp, [pc, #132]	; 400a30 <nm_bus_ioctl+0xc8>
		
		/* Read SPI master data register. */
		spi_read(CONF_WINC_SPI, &rxd_data, &uc_pcs);
  4009ac:	f8df a084 	ldr.w	sl, [pc, #132]	; 400a34 <nm_bus_ioctl+0xcc>
	}
	
	SPI_ASSERT_CS();
	while (u16Sz) {
		txd_data = *pu8Mosi;
		spi_write(CONF_WINC_SPI, txd_data, 0, 0);
  4009b0:	2300      	movs	r3, #0
  4009b2:	461a      	mov	r2, r3
  4009b4:	7831      	ldrb	r1, [r6, #0]
  4009b6:	4638      	mov	r0, r7
  4009b8:	47d8      	blx	fp
		
		/* Read SPI master data register. */
		spi_read(CONF_WINC_SPI, &rxd_data, &uc_pcs);
  4009ba:	f10d 0205 	add.w	r2, sp, #5
  4009be:	f10d 0106 	add.w	r1, sp, #6
  4009c2:	4638      	mov	r0, r7
  4009c4:	47d0      	blx	sl
		*pu8Miso = rxd_data;
  4009c6:	f8bd 3006 	ldrh.w	r3, [sp, #6]
  4009ca:	702b      	strb	r3, [r5, #0]

		u16Sz--;
  4009cc:	3c01      	subs	r4, #1
  4009ce:	b2a4      	uxth	r4, r4
		if (!u8SkipMiso)
  4009d0:	f1b8 0f00 	cmp.w	r8, #0
  4009d4:	d100      	bne.n	4009d8 <nm_bus_ioctl+0x70>
			pu8Miso++;
  4009d6:	3501      	adds	r5, #1
		if (!u8SkipMosi)
  4009d8:	f1b9 0f00 	cmp.w	r9, #0
  4009dc:	d100      	bne.n	4009e0 <nm_bus_ioctl+0x78>
			pu8Mosi++;
  4009de:	3601      	adds	r6, #1
	else {
		return M2M_ERR_BUS_FAIL;
	}
	
	SPI_ASSERT_CS();
	while (u16Sz) {
  4009e0:	2c00      	cmp	r4, #0
  4009e2:	d1e5      	bne.n	4009b0 <nm_bus_ioctl+0x48>
		if (!u8SkipMiso)
			pu8Miso++;
		if (!u8SkipMosi)
			pu8Mosi++;
	}
	SPI_DEASSERT_CS();
  4009e4:	f04f 7200 	mov.w	r2, #33554432	; 0x2000000
  4009e8:	4b0a      	ldr	r3, [pc, #40]	; (400a14 <nm_bus_ioctl+0xac>)
  4009ea:	631a      	str	r2, [r3, #48]	; 0x30
	printf(" / MISO: 0x");
	for(i = 0; i<cpu16Sz; i++)
		printf("%x", *(cppu8Miso+i) );
	printf(" / Size %d \n", cpu16Sz);
*/
	return M2M_SUCCESS;
  4009ec:	2000      	movs	r0, #0
  4009ee:	e00e      	b.n	400a0e <nm_bus_ioctl+0xa6>
	else if(!pu8Miso) {
		pu8Miso = &u8Dummy;
		u8SkipMiso = 1;
	}
	else {
		return M2M_ERR_BUS_FAIL;
  4009f0:	f06f 0005 	mvn.w	r0, #5
#elif CONF_WINC_USE_SPI
		case NM_BUS_IOCTL_RW: {
			tstrNmSpiRw *pstrParam = (tstrNmSpiRw *)pvParameter;
			s8Ret = spi_rw(pstrParam->pu8InBuf, pstrParam->pu8OutBuf, pstrParam->u16Sz);
		}
		break;
  4009f4:	e00b      	b.n	400a0e <nm_bus_ioctl+0xa6>
#endif
		default:
			s8Ret = -1;
			M2M_ERR("Invalid IOCTL command!\n");
  4009f6:	f240 121f 	movw	r2, #287	; 0x11f
  4009fa:	4908      	ldr	r1, [pc, #32]	; (400a1c <nm_bus_ioctl+0xb4>)
  4009fc:	4808      	ldr	r0, [pc, #32]	; (400a20 <nm_bus_ioctl+0xb8>)
  4009fe:	4c09      	ldr	r4, [pc, #36]	; (400a24 <nm_bus_ioctl+0xbc>)
  400a00:	47a0      	blx	r4
  400a02:	4809      	ldr	r0, [pc, #36]	; (400a28 <nm_bus_ioctl+0xc0>)
  400a04:	47a0      	blx	r4
  400a06:	4809      	ldr	r0, [pc, #36]	; (400a2c <nm_bus_ioctl+0xc4>)
  400a08:	47a0      	blx	r4
			s8Ret = spi_rw(pstrParam->pu8InBuf, pstrParam->pu8OutBuf, pstrParam->u16Sz);
		}
		break;
#endif
		default:
			s8Ret = -1;
  400a0a:	f04f 30ff 	mov.w	r0, #4294967295
			M2M_ERR("Invalid IOCTL command!\n");
			break;
	}

	return s8Ret;
}
  400a0e:	b003      	add	sp, #12
  400a10:	e8bd 8ff0 	ldmia.w	sp!, {r4, r5, r6, r7, r8, r9, sl, fp, pc}
  400a14:	400e1400 	.word	0x400e1400
  400a18:	40008000 	.word	0x40008000
  400a1c:	004080f8 	.word	0x004080f8
  400a20:	00408108 	.word	0x00408108
  400a24:	004046b5 	.word	0x004046b5
  400a28:	0040811c 	.word	0x0040811c
  400a2c:	00408134 	.word	0x00408134
  400a30:	00403a61 	.word	0x00403a61
  400a34:	00403a2d 	.word	0x00403a2d

00400a38 <nm_bus_deinit>:
 *
 * \param p_spi Pointer to an SPI instance.
 */
static inline void spi_disable(Spi *p_spi)
{
	p_spi->SPI_CR = SPI_CR_SPIDIS;
  400a38:	2202      	movs	r2, #2
  400a3a:	4b0e      	ldr	r3, [pc, #56]	; (400a74 <nm_bus_deinit+0x3c>)
  400a3c:	601a      	str	r2, [r3, #0]
	Pio *base = arch_ioport_pin_to_base(pin);

	if (dir == IOPORT_DIR_OUTPUT) {
		base->PIO_OER = arch_ioport_pin_to_mask(pin);
	} else if (dir == IOPORT_DIR_INPUT) {
		base->PIO_ODR = arch_ioport_pin_to_mask(pin);
  400a3e:	f503 2359 	add.w	r3, r3, #888832	; 0xd9000
  400a42:	f503 6380 	add.w	r3, r3, #1024	; 0x400
  400a46:	f44f 1200 	mov.w	r2, #2097152	; 0x200000
  400a4a:	615a      	str	r2, [r3, #20]
	}

	base->PIO_OWER = arch_ioport_pin_to_mask(pin);
  400a4c:	f8c3 20a0 	str.w	r2, [r3, #160]	; 0xa0
	Pio *base = arch_ioport_pin_to_base(pin);

	if (dir == IOPORT_DIR_OUTPUT) {
		base->PIO_OER = arch_ioport_pin_to_mask(pin);
	} else if (dir == IOPORT_DIR_INPUT) {
		base->PIO_ODR = arch_ioport_pin_to_mask(pin);
  400a50:	f44f 1280 	mov.w	r2, #1048576	; 0x100000
  400a54:	615a      	str	r2, [r3, #20]
	}

	base->PIO_OWER = arch_ioport_pin_to_mask(pin);
  400a56:	f8c3 20a0 	str.w	r2, [r3, #160]	; 0xa0
	Pio *base = arch_ioport_pin_to_base(pin);

	if (dir == IOPORT_DIR_OUTPUT) {
		base->PIO_OER = arch_ioport_pin_to_mask(pin);
	} else if (dir == IOPORT_DIR_INPUT) {
		base->PIO_ODR = arch_ioport_pin_to_mask(pin);
  400a5a:	f44f 0280 	mov.w	r2, #4194304	; 0x400000
  400a5e:	615a      	str	r2, [r3, #20]
	}

	base->PIO_OWER = arch_ioport_pin_to_mask(pin);
  400a60:	f8c3 20a0 	str.w	r2, [r3, #160]	; 0xa0
	Pio *base = arch_ioport_pin_to_base(pin);

	if (dir == IOPORT_DIR_OUTPUT) {
		base->PIO_OER = arch_ioport_pin_to_mask(pin);
	} else if (dir == IOPORT_DIR_INPUT) {
		base->PIO_ODR = arch_ioport_pin_to_mask(pin);
  400a64:	f04f 7200 	mov.w	r2, #33554432	; 0x2000000
  400a68:	615a      	str	r2, [r3, #20]
	}

	base->PIO_OWER = arch_ioport_pin_to_mask(pin);
  400a6a:	f8c3 20a0 	str.w	r2, [r3, #160]	; 0xa0
	ioport_set_pin_dir(CONF_WINC_SPI_MOSI_GPIO, IOPORT_DIR_INPUT);
	ioport_set_pin_dir(CONF_WINC_SPI_MISO_GPIO, IOPORT_DIR_INPUT);
	ioport_set_pin_dir(CONF_WINC_SPI_CLK_GPIO, IOPORT_DIR_INPUT);
	ioport_set_pin_dir(CONF_WINC_SPI_CS_GPIO, IOPORT_DIR_INPUT);
	return M2M_SUCCESS;
}
  400a6e:	2000      	movs	r0, #0
  400a70:	4770      	bx	lr
  400a72:	bf00      	nop
  400a74:	40008000 	.word	0x40008000

00400a78 <m2m_memcpy>:
 */
#include "common/include/nm_common.h"

void m2m_memcpy(uint8* pDst,uint8* pSrc,uint32 sz)
{
	if(sz == 0) return;
  400a78:	b13a      	cbz	r2, 400a8a <m2m_memcpy+0x12>
  400a7a:	3901      	subs	r1, #1
  400a7c:	1882      	adds	r2, r0, r2
	do
	{
		*pDst = *pSrc;
  400a7e:	f811 3f01 	ldrb.w	r3, [r1, #1]!
  400a82:	f800 3b01 	strb.w	r3, [r0], #1
		pDst++;
		pSrc++;
	}while(--sz);
  400a86:	4290      	cmp	r0, r2
  400a88:	d1f9      	bne.n	400a7e <m2m_memcpy+0x6>
  400a8a:	4770      	bx	lr

00400a8c <m2m_memset>:
	return cs;
}

void m2m_memset(uint8* pBuf,uint8 val,uint32 sz)
{
	if(sz == 0) return;
  400a8c:	b122      	cbz	r2, 400a98 <m2m_memset+0xc>
  400a8e:	1882      	adds	r2, r0, r2
	do
	{
		*pBuf = val;
  400a90:	f800 1b01 	strb.w	r1, [r0], #1
		pBuf++;
	}while(--sz);
  400a94:	4290      	cmp	r0, r2
  400a96:	d1fb      	bne.n	400a90 <m2m_memset+0x4>
  400a98:	4770      	bx	lr
  400a9a:	bf00      	nop

00400a9c <m2m_strlen>:
}

uint16 m2m_strlen(uint8 * pcStr)
{
  400a9c:	4603      	mov	r3, r0
	uint16	u16StrLen = 0;
	while(*pcStr)
  400a9e:	7802      	ldrb	r2, [r0, #0]
  400aa0:	b13a      	cbz	r2, 400ab2 <m2m_strlen+0x16>
  400aa2:	2000      	movs	r0, #0
	{
		u16StrLen ++;
  400aa4:	3001      	adds	r0, #1
  400aa6:	b280      	uxth	r0, r0
}

uint16 m2m_strlen(uint8 * pcStr)
{
	uint16	u16StrLen = 0;
	while(*pcStr)
  400aa8:	f813 2f01 	ldrb.w	r2, [r3, #1]!
  400aac:	2a00      	cmp	r2, #0
  400aae:	d1f9      	bne.n	400aa4 <m2m_strlen+0x8>
  400ab0:	4770      	bx	lr
	}while(--sz);
}

uint16 m2m_strlen(uint8 * pcStr)
{
	uint16	u16StrLen = 0;
  400ab2:	2000      	movs	r0, #0
	{
		u16StrLen ++;
		pcStr++;
	}
	return u16StrLen;
}
  400ab4:	4770      	bx	lr
  400ab6:	bf00      	nop

00400ab8 <isr>:
tpfHifCallBack pfHifCb = NULL;
tpfHifCallBack pfCryptoCb = NULL;

static void isr(void)
{
	gu8Interrupt++;
  400ab8:	4a02      	ldr	r2, [pc, #8]	; (400ac4 <isr+0xc>)
  400aba:	7813      	ldrb	r3, [r2, #0]
  400abc:	3301      	adds	r3, #1
  400abe:	b2db      	uxtb	r3, r3
  400ac0:	7013      	strb	r3, [r2, #0]
  400ac2:	4770      	bx	lr
  400ac4:	204008ac 	.word	0x204008ac

00400ac8 <m2m_hif_cb>:
*	@author
*	@date
*	@version	1.0
*/
static void m2m_hif_cb(uint8 u8OpCode, uint16 u16DataSize, uint32 u32Addr)
{
  400ac8:	4770      	bx	lr
  400aca:	bf00      	nop

00400acc <hif_set_rx_done>:
#ifdef NM_LEVEL_INTERRUPT
	nm_bsp_interrupt_ctrl(0);
#endif
}
static sint8 hif_set_rx_done(void)
{
  400acc:	b500      	push	{lr}
  400ace:	b083      	sub	sp, #12
	uint32 reg;
	sint8 ret = M2M_SUCCESS;
#ifdef NM_EDGE_INTERRUPT
	nm_bsp_interrupt_ctrl(1);
  400ad0:	2001      	movs	r0, #1
  400ad2:	4b0b      	ldr	r3, [pc, #44]	; (400b00 <hif_set_rx_done+0x34>)
  400ad4:	4798      	blx	r3
#endif

	ret = nm_read_reg_with_ret(WIFI_HOST_RCV_CTRL_0,&reg);
  400ad6:	a901      	add	r1, sp, #4
  400ad8:	f241 0070 	movw	r0, #4208	; 0x1070
  400adc:	4b09      	ldr	r3, [pc, #36]	; (400b04 <hif_set_rx_done+0x38>)
  400ade:	4798      	blx	r3
	if(ret != M2M_SUCCESS)goto ERR1;
  400ae0:	4603      	mov	r3, r0
  400ae2:	b940      	cbnz	r0, 400af6 <hif_set_rx_done+0x2a>
	//reg &= ~(1<<0);

	/* Set RX Done */
	reg |= (1<<1);
  400ae4:	9901      	ldr	r1, [sp, #4]
  400ae6:	f041 0102 	orr.w	r1, r1, #2
  400aea:	9101      	str	r1, [sp, #4]
	ret = nm_write_reg(WIFI_HOST_RCV_CTRL_0,reg);
  400aec:	f241 0070 	movw	r0, #4208	; 0x1070
  400af0:	4b05      	ldr	r3, [pc, #20]	; (400b08 <hif_set_rx_done+0x3c>)
  400af2:	4798      	blx	r3
  400af4:	4603      	mov	r3, r0
	nm_bsp_interrupt_ctrl(1);
#endif
ERR1:
	return ret;

}
  400af6:	4618      	mov	r0, r3
  400af8:	b003      	add	sp, #12
  400afa:	f85d fb04 	ldr.w	pc, [sp], #4
  400afe:	bf00      	nop
  400b00:	00400825 	.word	0x00400825
  400b04:	00401d95 	.word	0x00401d95
  400b08:	00401da1 	.word	0x00401da1

00400b0c <hif_chip_wake>:
*	@brief	To Wakeup the chip.
*    @return		The function shall return ZERO for successful operation and a negative value otherwise.
*/

sint8 hif_chip_wake(void)
{
  400b0c:	b508      	push	{r3, lr}
	sint8 ret = M2M_SUCCESS;
	if(gu8ChipSleep == 0)
  400b0e:	4b11      	ldr	r3, [pc, #68]	; (400b54 <hif_chip_wake+0x48>)
  400b10:	781b      	ldrb	r3, [r3, #0]
  400b12:	f013 0fff 	tst.w	r3, #255	; 0xff
  400b16:	d115      	bne.n	400b44 <hif_chip_wake+0x38>
	{
		if((gu8ChipMode == M2M_PS_DEEP_AUTOMATIC)||(gu8ChipMode == M2M_PS_MANUAL))
  400b18:	4b0f      	ldr	r3, [pc, #60]	; (400b58 <hif_chip_wake+0x4c>)
  400b1a:	781b      	ldrb	r3, [r3, #0]
  400b1c:	b2db      	uxtb	r3, r3
  400b1e:	2b03      	cmp	r3, #3
  400b20:	d004      	beq.n	400b2c <hif_chip_wake+0x20>
  400b22:	4b0d      	ldr	r3, [pc, #52]	; (400b58 <hif_chip_wake+0x4c>)
  400b24:	781b      	ldrb	r3, [r3, #0]
  400b26:	b2db      	uxtb	r3, r3
  400b28:	2b04      	cmp	r3, #4
  400b2a:	d10b      	bne.n	400b44 <hif_chip_wake+0x38>
		{
			ret = nm_clkless_wake();
  400b2c:	4b0b      	ldr	r3, [pc, #44]	; (400b5c <hif_chip_wake+0x50>)
  400b2e:	4798      	blx	r3
			if(ret != M2M_SUCCESS)goto ERR1;
  400b30:	4603      	mov	r3, r0
  400b32:	b968      	cbnz	r0, 400b50 <hif_chip_wake+0x44>
			ret = nm_write_reg(WAKE_REG, WAKE_VALUE);
  400b34:	f245 6178 	movw	r1, #22136	; 0x5678
  400b38:	f241 0074 	movw	r0, #4212	; 0x1074
  400b3c:	4b08      	ldr	r3, [pc, #32]	; (400b60 <hif_chip_wake+0x54>)
  400b3e:	4798      	blx	r3
			if(ret != M2M_SUCCESS)goto ERR1;
  400b40:	4603      	mov	r3, r0
  400b42:	b928      	cbnz	r0, 400b50 <hif_chip_wake+0x44>
		}
		else
		{
		}
	}
	gu8ChipSleep++;
  400b44:	4a03      	ldr	r2, [pc, #12]	; (400b54 <hif_chip_wake+0x48>)
  400b46:	7813      	ldrb	r3, [r2, #0]
  400b48:	3301      	adds	r3, #1
  400b4a:	b2db      	uxtb	r3, r3
  400b4c:	7013      	strb	r3, [r2, #0]
  400b4e:	2300      	movs	r3, #0
ERR1:
	return ret;
}
  400b50:	4618      	mov	r0, r3
  400b52:	bd08      	pop	{r3, pc}
  400b54:	204008c8 	.word	0x204008c8
  400b58:	204008b8 	.word	0x204008b8
  400b5c:	00401905 	.word	0x00401905
  400b60:	00401da1 	.word	0x00401da1

00400b64 <hif_chip_sleep>:
*	@brief	To make the chip sleep.
*    @return		The function shall return ZERO for successful operation and a negative value otherwise.
*/

sint8 hif_chip_sleep(void)
{
  400b64:	b500      	push	{lr}
  400b66:	b083      	sub	sp, #12
	sint8 ret = M2M_SUCCESS;

	if(gu8ChipSleep >= 1)
  400b68:	4b1d      	ldr	r3, [pc, #116]	; (400be0 <hif_chip_sleep+0x7c>)
  400b6a:	781b      	ldrb	r3, [r3, #0]
  400b6c:	f013 0fff 	tst.w	r3, #255	; 0xff
  400b70:	d004      	beq.n	400b7c <hif_chip_sleep+0x18>
	{
		gu8ChipSleep--;
  400b72:	4a1b      	ldr	r2, [pc, #108]	; (400be0 <hif_chip_sleep+0x7c>)
  400b74:	7813      	ldrb	r3, [r2, #0]
  400b76:	3b01      	subs	r3, #1
  400b78:	b2db      	uxtb	r3, r3
  400b7a:	7013      	strb	r3, [r2, #0]
	}

	if(gu8ChipSleep == 0)
  400b7c:	4b18      	ldr	r3, [pc, #96]	; (400be0 <hif_chip_sleep+0x7c>)
  400b7e:	781b      	ldrb	r3, [r3, #0]
  400b80:	f013 0fff 	tst.w	r3, #255	; 0xff
  400b84:	d125      	bne.n	400bd2 <hif_chip_sleep+0x6e>
	{
		if((gu8ChipMode == M2M_PS_DEEP_AUTOMATIC)||(gu8ChipMode == M2M_PS_MANUAL))
  400b86:	4b17      	ldr	r3, [pc, #92]	; (400be4 <hif_chip_sleep+0x80>)
  400b88:	781b      	ldrb	r3, [r3, #0]
  400b8a:	b2db      	uxtb	r3, r3
  400b8c:	2b03      	cmp	r3, #3
  400b8e:	d004      	beq.n	400b9a <hif_chip_sleep+0x36>
  400b90:	4b14      	ldr	r3, [pc, #80]	; (400be4 <hif_chip_sleep+0x80>)
  400b92:	781b      	ldrb	r3, [r3, #0]
  400b94:	b2db      	uxtb	r3, r3
  400b96:	2b04      	cmp	r3, #4
  400b98:	d11d      	bne.n	400bd6 <hif_chip_sleep+0x72>
		{
			uint32 reg = 0;
  400b9a:	2300      	movs	r3, #0
  400b9c:	9301      	str	r3, [sp, #4]
			ret = nm_write_reg(WAKE_REG, SLEEP_VALUE);
  400b9e:	f244 3121 	movw	r1, #17185	; 0x4321
  400ba2:	f241 0074 	movw	r0, #4212	; 0x1074
  400ba6:	4b10      	ldr	r3, [pc, #64]	; (400be8 <hif_chip_sleep+0x84>)
  400ba8:	4798      	blx	r3
			if(ret != M2M_SUCCESS)goto ERR1;
  400baa:	4603      	mov	r3, r0
  400bac:	b9a0      	cbnz	r0, 400bd8 <hif_chip_sleep+0x74>
			/* Clear bit 1 */
			ret = nm_read_reg_with_ret(0x1, &reg);
  400bae:	a901      	add	r1, sp, #4
  400bb0:	2001      	movs	r0, #1
  400bb2:	4b0e      	ldr	r3, [pc, #56]	; (400bec <hif_chip_sleep+0x88>)
  400bb4:	4798      	blx	r3
			if(ret != M2M_SUCCESS)goto ERR1;
  400bb6:	4603      	mov	r3, r0
  400bb8:	b970      	cbnz	r0, 400bd8 <hif_chip_sleep+0x74>
			if(reg&0x2)
  400bba:	9901      	ldr	r1, [sp, #4]
  400bbc:	f011 0f02 	tst.w	r1, #2
  400bc0:	d00a      	beq.n	400bd8 <hif_chip_sleep+0x74>
			{
				reg &=~(1 << 1);
  400bc2:	f021 0102 	bic.w	r1, r1, #2
  400bc6:	9101      	str	r1, [sp, #4]
				ret = nm_write_reg(0x1, reg);
  400bc8:	2001      	movs	r0, #1
  400bca:	4b07      	ldr	r3, [pc, #28]	; (400be8 <hif_chip_sleep+0x84>)
  400bcc:	4798      	blx	r3
  400bce:	4603      	mov	r3, r0
  400bd0:	e002      	b.n	400bd8 <hif_chip_sleep+0x74>
*    @return		The function shall return ZERO for successful operation and a negative value otherwise.
*/

sint8 hif_chip_sleep(void)
{
	sint8 ret = M2M_SUCCESS;
  400bd2:	2300      	movs	r3, #0
  400bd4:	e000      	b.n	400bd8 <hif_chip_sleep+0x74>
  400bd6:	2300      	movs	r3, #0
		{
		}
	}
ERR1:
	return ret;
}
  400bd8:	4618      	mov	r0, r3
  400bda:	b003      	add	sp, #12
  400bdc:	f85d fb04 	ldr.w	pc, [sp], #4
  400be0:	204008c8 	.word	0x204008c8
  400be4:	204008b8 	.word	0x204008b8
  400be8:	00401da1 	.word	0x00401da1
  400bec:	00401d95 	.word	0x00401d95

00400bf0 <hif_send>:
*    @return		The function shall return ZERO for successful operation and a negative value otherwise.
*/

sint8 hif_send(uint8 u8Gid,uint8 u8Opcode,uint8 *pu8CtrlBuf,uint16 u16CtrlBufSize,
			   uint8 *pu8DataBuf,uint16 u16DataSize, uint16 u16DataOffset)
{
  400bf0:	e92d 4ff0 	stmdb	sp!, {r4, r5, r6, r7, r8, r9, sl, fp, lr}
  400bf4:	b087      	sub	sp, #28
  400bf6:	4680      	mov	r8, r0
  400bf8:	460f      	mov	r7, r1
  400bfa:	4692      	mov	sl, r2
  400bfc:	4699      	mov	r9, r3
  400bfe:	9c10      	ldr	r4, [sp, #64]	; 0x40
  400c00:	f8bd 6044 	ldrh.w	r6, [sp, #68]	; 0x44
  400c04:	f8bd 5048 	ldrh.w	r5, [sp, #72]	; 0x48
	sint8		ret = M2M_ERR_SEND;
	volatile tstrHifHdr	strHif;

	strHif.u8Opcode		= u8Opcode&(~NBIT7);
  400c08:	f001 037f 	and.w	r3, r1, #127	; 0x7f
  400c0c:	f88d 3015 	strb.w	r3, [sp, #21]
	strHif.u8Gid		= u8Gid;
  400c10:	f88d 0014 	strb.w	r0, [sp, #20]
	strHif.u16Length	= M2M_HIF_HDR_OFFSET;
  400c14:	2308      	movs	r3, #8
  400c16:	f8ad 3016 	strh.w	r3, [sp, #22]
	if(pu8DataBuf != NULL)
  400c1a:	b144      	cbz	r4, 400c2e <hif_send+0x3e>
	{
		strHif.u16Length += u16DataOffset + u16DataSize;
  400c1c:	f8bd 3016 	ldrh.w	r3, [sp, #22]
  400c20:	fa16 f383 	uxtah	r3, r6, r3
  400c24:	442b      	add	r3, r5
  400c26:	b29b      	uxth	r3, r3
  400c28:	f8ad 3016 	strh.w	r3, [sp, #22]
  400c2c:	e006      	b.n	400c3c <hif_send+0x4c>
	}
	else
	{
		strHif.u16Length += u16CtrlBufSize;
  400c2e:	f8bd 3016 	ldrh.w	r3, [sp, #22]
  400c32:	fa19 f383 	uxtah	r3, r9, r3
  400c36:	b29b      	uxth	r3, r3
  400c38:	f8ad 3016 	strh.w	r3, [sp, #22]
	}
	ret = hif_chip_wake();
  400c3c:	4b57      	ldr	r3, [pc, #348]	; (400d9c <hif_send+0x1ac>)
  400c3e:	4798      	blx	r3
	if(ret == M2M_SUCCESS)
  400c40:	4683      	mov	fp, r0
  400c42:	2800      	cmp	r0, #0
  400c44:	f040 8095 	bne.w	400d72 <hif_send+0x182>
	{
		volatile uint32 reg, dma_addr = 0;
  400c48:	2300      	movs	r3, #0
  400c4a:	9303      	str	r3, [sp, #12]
		volatile uint16 cnt = 0;
  400c4c:	f8ad 3006 	strh.w	r3, [sp, #6]

		reg = 0UL;
  400c50:	9302      	str	r3, [sp, #8]
		reg |= (uint32)u8Gid;
  400c52:	9b02      	ldr	r3, [sp, #8]
  400c54:	ea48 0303 	orr.w	r3, r8, r3
  400c58:	9302      	str	r3, [sp, #8]
		reg |= ((uint32)u8Opcode<<8);
  400c5a:	9b02      	ldr	r3, [sp, #8]
  400c5c:	ea43 2707 	orr.w	r7, r3, r7, lsl #8
  400c60:	9702      	str	r7, [sp, #8]
		reg |= ((uint32)strHif.u16Length<<16);
  400c62:	f8bd 2016 	ldrh.w	r2, [sp, #22]
  400c66:	9b02      	ldr	r3, [sp, #8]
  400c68:	ea43 4302 	orr.w	r3, r3, r2, lsl #16
  400c6c:	9302      	str	r3, [sp, #8]
		ret = nm_write_reg(NMI_STATE_REG,reg);
  400c6e:	9902      	ldr	r1, [sp, #8]
  400c70:	f241 008c 	movw	r0, #4236	; 0x108c
  400c74:	4b4a      	ldr	r3, [pc, #296]	; (400da0 <hif_send+0x1b0>)
  400c76:	4798      	blx	r3
		if(M2M_SUCCESS != ret) goto ERR1;
  400c78:	4683      	mov	fp, r0
  400c7a:	2800      	cmp	r0, #0
  400c7c:	f040 808a 	bne.w	400d94 <hif_send+0x1a4>


		reg = 0;
  400c80:	2300      	movs	r3, #0
  400c82:	9302      	str	r3, [sp, #8]
		reg |= (1<<1);
  400c84:	9b02      	ldr	r3, [sp, #8]
  400c86:	f043 0302 	orr.w	r3, r3, #2
  400c8a:	9302      	str	r3, [sp, #8]
		ret = nm_write_reg(WIFI_HOST_RCV_CTRL_2, reg);
  400c8c:	9902      	ldr	r1, [sp, #8]
  400c8e:	f241 0078 	movw	r0, #4216	; 0x1078
  400c92:	4b43      	ldr	r3, [pc, #268]	; (400da0 <hif_send+0x1b0>)
  400c94:	4798      	blx	r3
		if(M2M_SUCCESS != ret) goto ERR1;
  400c96:	4683      	mov	fp, r0
  400c98:	2800      	cmp	r0, #0
  400c9a:	d17b      	bne.n	400d94 <hif_send+0x1a4>
		dma_addr = 0;
  400c9c:	2300      	movs	r3, #0
  400c9e:	9303      	str	r3, [sp, #12]

		//nm_bsp_interrupt_ctrl(0);

		for(cnt = 0; cnt < 1000; cnt ++)
  400ca0:	f8ad 3006 	strh.w	r3, [sp, #6]
  400ca4:	f8bd 3006 	ldrh.w	r3, [sp, #6]
  400ca8:	b29b      	uxth	r3, r3
  400caa:	f5b3 7f7a 	cmp.w	r3, #1000	; 0x3e8
  400cae:	d21e      	bcs.n	400cee <hif_send+0xfe>
		{
			ret = nm_read_reg_with_ret(WIFI_HOST_RCV_CTRL_2,(uint32 *)&reg);
  400cb0:	f241 0878 	movw	r8, #4216	; 0x1078
  400cb4:	4f3b      	ldr	r7, [pc, #236]	; (400da4 <hif_send+0x1b4>)
  400cb6:	a902      	add	r1, sp, #8
  400cb8:	4640      	mov	r0, r8
  400cba:	47b8      	blx	r7
			if(ret != M2M_SUCCESS) break;
  400cbc:	b9b8      	cbnz	r0, 400cee <hif_send+0xfe>
			if (!(reg & 0x2))
  400cbe:	9b02      	ldr	r3, [sp, #8]
  400cc0:	f013 0f02 	tst.w	r3, #2
  400cc4:	d107      	bne.n	400cd6 <hif_send+0xe6>
			{
				ret = nm_read_reg_with_ret(0x150400,(uint32 *)&dma_addr);
  400cc6:	a903      	add	r1, sp, #12
  400cc8:	4837      	ldr	r0, [pc, #220]	; (400da8 <hif_send+0x1b8>)
  400cca:	4b36      	ldr	r3, [pc, #216]	; (400da4 <hif_send+0x1b4>)
  400ccc:	4798      	blx	r3
				if(ret != M2M_SUCCESS) {
  400cce:	b170      	cbz	r0, 400cee <hif_send+0xfe>
					/*in case of read error clear the dma address and return error*/
					dma_addr = 0;
  400cd0:	2300      	movs	r3, #0
  400cd2:	9303      	str	r3, [sp, #12]
  400cd4:	e00b      	b.n	400cee <hif_send+0xfe>
		if(M2M_SUCCESS != ret) goto ERR1;
		dma_addr = 0;

		//nm_bsp_interrupt_ctrl(0);

		for(cnt = 0; cnt < 1000; cnt ++)
  400cd6:	f8bd 3006 	ldrh.w	r3, [sp, #6]
  400cda:	3301      	adds	r3, #1
  400cdc:	b29b      	uxth	r3, r3
  400cde:	f8ad 3006 	strh.w	r3, [sp, #6]
  400ce2:	f8bd 3006 	ldrh.w	r3, [sp, #6]
  400ce6:	b29b      	uxth	r3, r3
  400ce8:	f5b3 7f7a 	cmp.w	r3, #1000	; 0x3e8
  400cec:	d3e3      	bcc.n	400cb6 <hif_send+0xc6>
				break;
			}
		}
		//nm_bsp_interrupt_ctrl(1);

		if (dma_addr != 0)
  400cee:	9b03      	ldr	r3, [sp, #12]
  400cf0:	2b00      	cmp	r3, #0
  400cf2:	d04d      	beq.n	400d90 <hif_send+0x1a0>
		{
			volatile uint32	u32CurrAddr;
			u32CurrAddr = dma_addr;
  400cf4:	9b03      	ldr	r3, [sp, #12]
  400cf6:	9304      	str	r3, [sp, #16]
			strHif.u16Length=NM_BSP_B_L_16(strHif.u16Length);
  400cf8:	f8bd 3016 	ldrh.w	r3, [sp, #22]
  400cfc:	b29b      	uxth	r3, r3
  400cfe:	f8ad 3016 	strh.w	r3, [sp, #22]
			ret = nm_write_block(u32CurrAddr, (uint8*)&strHif, M2M_HIF_HDR_OFFSET);
  400d02:	9804      	ldr	r0, [sp, #16]
  400d04:	2208      	movs	r2, #8
  400d06:	a905      	add	r1, sp, #20
  400d08:	4b28      	ldr	r3, [pc, #160]	; (400dac <hif_send+0x1bc>)
  400d0a:	4798      	blx	r3
		#ifdef CONF_WINC_USE_I2C
			nm_bsp_sleep(1);
		#endif
			if(M2M_SUCCESS != ret) goto ERR1;
  400d0c:	4683      	mov	fp, r0
  400d0e:	2800      	cmp	r0, #0
  400d10:	d140      	bne.n	400d94 <hif_send+0x1a4>
			u32CurrAddr += M2M_HIF_HDR_OFFSET;
  400d12:	9b04      	ldr	r3, [sp, #16]
  400d14:	3308      	adds	r3, #8
  400d16:	9304      	str	r3, [sp, #16]
			if(pu8CtrlBuf != NULL)
  400d18:	f1ba 0f00 	cmp.w	sl, #0
  400d1c:	d00a      	beq.n	400d34 <hif_send+0x144>
			{
				ret = nm_write_block(u32CurrAddr, pu8CtrlBuf, u16CtrlBufSize);
  400d1e:	9804      	ldr	r0, [sp, #16]
  400d20:	464a      	mov	r2, r9
  400d22:	4651      	mov	r1, sl
  400d24:	4b21      	ldr	r3, [pc, #132]	; (400dac <hif_send+0x1bc>)
  400d26:	4798      	blx	r3
			#ifdef CONF_WINC_USE_I2C
				nm_bsp_sleep(1);
			#endif
				if(M2M_SUCCESS != ret) goto ERR1;
  400d28:	4683      	mov	fp, r0
  400d2a:	2800      	cmp	r0, #0
  400d2c:	d132      	bne.n	400d94 <hif_send+0x1a4>
				u32CurrAddr += u16CtrlBufSize;
  400d2e:	9b04      	ldr	r3, [sp, #16]
  400d30:	444b      	add	r3, r9
  400d32:	9304      	str	r3, [sp, #16]
			}
			if(pu8DataBuf != NULL)
  400d34:	b174      	cbz	r4, 400d54 <hif_send+0x164>
			{
				u32CurrAddr += (u16DataOffset - u16CtrlBufSize);
  400d36:	9b04      	ldr	r3, [sp, #16]
  400d38:	ebc9 0505 	rsb	r5, r9, r5
  400d3c:	441d      	add	r5, r3
  400d3e:	9504      	str	r5, [sp, #16]
				ret = nm_write_block(u32CurrAddr, pu8DataBuf, u16DataSize);
  400d40:	9804      	ldr	r0, [sp, #16]
  400d42:	4632      	mov	r2, r6
  400d44:	4621      	mov	r1, r4
  400d46:	4b19      	ldr	r3, [pc, #100]	; (400dac <hif_send+0x1bc>)
  400d48:	4798      	blx	r3
			#ifdef CONF_WINC_USE_I2C
				nm_bsp_sleep(1);
			#endif
				if(M2M_SUCCESS != ret) goto ERR1;
  400d4a:	4683      	mov	fp, r0
  400d4c:	bb10      	cbnz	r0, 400d94 <hif_send+0x1a4>
				u32CurrAddr += u16DataSize;
  400d4e:	9b04      	ldr	r3, [sp, #16]
  400d50:	441e      	add	r6, r3
  400d52:	9604      	str	r6, [sp, #16]
			}

			reg = dma_addr << 2;
  400d54:	9b03      	ldr	r3, [sp, #12]
  400d56:	009b      	lsls	r3, r3, #2
  400d58:	9302      	str	r3, [sp, #8]
			reg |= (1 << 1);
  400d5a:	9b02      	ldr	r3, [sp, #8]
  400d5c:	f043 0302 	orr.w	r3, r3, #2
  400d60:	9302      	str	r3, [sp, #8]
			ret = nm_write_reg(WIFI_HOST_RCV_CTRL_3, reg);
  400d62:	9902      	ldr	r1, [sp, #8]
  400d64:	f241 006c 	movw	r0, #4204	; 0x106c
  400d68:	4b0d      	ldr	r3, [pc, #52]	; (400da0 <hif_send+0x1b0>)
  400d6a:	4798      	blx	r3
			if(M2M_SUCCESS != ret) goto ERR1;
  400d6c:	4683      	mov	fp, r0
  400d6e:	b988      	cbnz	r0, 400d94 <hif_send+0x1a4>
  400d70:	e00a      	b.n	400d88 <hif_send+0x198>
		}

	}
	else
	{
		M2M_ERR("(HIF)Fail to wakup the chip\n");
  400d72:	f240 129f 	movw	r2, #415	; 0x19f
  400d76:	490e      	ldr	r1, [pc, #56]	; (400db0 <hif_send+0x1c0>)
  400d78:	480e      	ldr	r0, [pc, #56]	; (400db4 <hif_send+0x1c4>)
  400d7a:	4c0f      	ldr	r4, [pc, #60]	; (400db8 <hif_send+0x1c8>)
  400d7c:	47a0      	blx	r4
  400d7e:	480f      	ldr	r0, [pc, #60]	; (400dbc <hif_send+0x1cc>)
  400d80:	47a0      	blx	r4
  400d82:	480f      	ldr	r0, [pc, #60]	; (400dc0 <hif_send+0x1d0>)
  400d84:	47a0      	blx	r4
		goto ERR1;
  400d86:	e005      	b.n	400d94 <hif_send+0x1a4>
	}
	ret = hif_chip_sleep();
  400d88:	4b0e      	ldr	r3, [pc, #56]	; (400dc4 <hif_send+0x1d4>)
  400d8a:	4798      	blx	r3
  400d8c:	4683      	mov	fp, r0
  400d8e:	e001      	b.n	400d94 <hif_send+0x1a4>
			if(M2M_SUCCESS != ret) goto ERR1;
		}
		else
		{
			M2M_DBG("Failed to alloc rx size\r");
			ret =  M2M_ERR_MEM_ALLOC;
  400d90:	f06f 0b02 	mvn.w	fp, #2
	}
	ret = hif_chip_sleep();

ERR1:
	return ret;
}
  400d94:	4658      	mov	r0, fp
  400d96:	b007      	add	sp, #28
  400d98:	e8bd 8ff0 	ldmia.w	sp!, {r4, r5, r6, r7, r8, r9, sl, fp, pc}
  400d9c:	00400b0d 	.word	0x00400b0d
  400da0:	00401da1 	.word	0x00401da1
  400da4:	00401d95 	.word	0x00401d95
  400da8:	00150400 	.word	0x00150400
  400dac:	00401e0d 	.word	0x00401e0d
  400db0:	00408390 	.word	0x00408390
  400db4:	00408108 	.word	0x00408108
  400db8:	004046b5 	.word	0x004046b5
  400dbc:	0040814c 	.word	0x0040814c
  400dc0:	00408134 	.word	0x00408134
  400dc4:	00400b65 	.word	0x00400b65

00400dc8 <hif_handle_isr>:
*	@brief	Handle interrupt received from NMC1500 firmware.
*   @return     The function SHALL return 0 for success and a negative value otherwise.
*/

sint8 hif_handle_isr(void)
{
  400dc8:	e92d 43f0 	stmdb	sp!, {r4, r5, r6, r7, r8, r9, lr}
  400dcc:	b087      	sub	sp, #28
	sint8 ret = M2M_SUCCESS;

	while (gu8Interrupt) {
  400dce:	f8df 92fc 	ldr.w	r9, [pc, #764]	; 4010cc <hif_handle_isr+0x304>
{
	sint8 ret = M2M_ERR_BUS_FAIL;
	uint32 reg;
	volatile tstrHifHdr strHif;

	ret = hif_chip_wake();
  400dd2:	4fa3      	ldr	r7, [pc, #652]	; (401060 <hif_handle_isr+0x298>)
			goto ERR1;
		}
	}
	else
	{
		M2M_ERR("(hif) FAIL to wakeup the chip\n");
  400dd4:	f8df 82f8 	ldr.w	r8, [pc, #760]	; 4010d0 <hif_handle_isr+0x308>
			if(ret == M2M_SUCCESS) {
				/*we will try forever untill we get that interrupt*/
				/*Fail return errors here due to bus errors (reading expected values)*/
				break;
			} else {
				M2M_ERR("(HIF) Fail to handle interrupt %d try Again..\n",ret);
  400dd8:	4ea2      	ldr	r6, [pc, #648]	; (401064 <hif_handle_isr+0x29c>)

sint8 hif_handle_isr(void)
{
	sint8 ret = M2M_SUCCESS;

	while (gu8Interrupt) {
  400dda:	e17b      	b.n	4010d4 <hif_handle_isr+0x30c>
		/*must be at that place because of the race of interrupt increment and that decrement*/
		/*when the interrupt enabled*/
		gu8Interrupt--;
  400ddc:	f899 3000 	ldrb.w	r3, [r9]
  400de0:	3b01      	subs	r3, #1
  400de2:	b2db      	uxtb	r3, r3
  400de4:	f889 3000 	strb.w	r3, [r9]
{
	sint8 ret = M2M_ERR_BUS_FAIL;
	uint32 reg;
	volatile tstrHifHdr strHif;

	ret = hif_chip_wake();
  400de8:	47b8      	blx	r7
	if(ret == M2M_SUCCESS)
  400dea:	4604      	mov	r4, r0
  400dec:	2800      	cmp	r0, #0
  400dee:	f040 811a 	bne.w	401026 <hif_handle_isr+0x25e>
	{
		ret = nm_read_reg_with_ret(WIFI_HOST_RCV_CTRL_0, &reg);
  400df2:	a903      	add	r1, sp, #12
  400df4:	f241 0070 	movw	r0, #4208	; 0x1070
  400df8:	4b9b      	ldr	r3, [pc, #620]	; (401068 <hif_handle_isr+0x2a0>)
  400dfa:	4798      	blx	r3
		if(M2M_SUCCESS == ret)
  400dfc:	4604      	mov	r4, r0
  400dfe:	2800      	cmp	r0, #0
  400e00:	f040 8106 	bne.w	401010 <hif_handle_isr+0x248>
		{
			if(reg & 0x1)	/* New interrupt has been received */
  400e04:	9b03      	ldr	r3, [sp, #12]
  400e06:	f013 0f01 	tst.w	r3, #1
  400e0a:	f000 80f5 	beq.w	400ff8 <hif_handle_isr+0x230>
			{
				uint16 size;

				nm_bsp_interrupt_ctrl(0);
  400e0e:	4b97      	ldr	r3, [pc, #604]	; (40106c <hif_handle_isr+0x2a4>)
  400e10:	4798      	blx	r3
				/*Clearing RX interrupt*/
				reg &= ~(1<<0);
  400e12:	9903      	ldr	r1, [sp, #12]
  400e14:	f021 0101 	bic.w	r1, r1, #1
  400e18:	9103      	str	r1, [sp, #12]
				ret = nm_write_reg(WIFI_HOST_RCV_CTRL_0,reg);
  400e1a:	f241 0070 	movw	r0, #4208	; 0x1070
  400e1e:	4b94      	ldr	r3, [pc, #592]	; (401070 <hif_handle_isr+0x2a8>)
  400e20:	4798      	blx	r3
				if(ret != M2M_SUCCESS)goto ERR1;
  400e22:	4604      	mov	r4, r0
  400e24:	2800      	cmp	r0, #0
  400e26:	f040 810e 	bne.w	401046 <hif_handle_isr+0x27e>
				gu8HifSizeDone = 0;
  400e2a:	2200      	movs	r2, #0
  400e2c:	4b91      	ldr	r3, [pc, #580]	; (401074 <hif_handle_isr+0x2ac>)
  400e2e:	701a      	strb	r2, [r3, #0]
				size = (uint16)((reg >> 2) & 0xfff);
  400e30:	9d03      	ldr	r5, [sp, #12]
  400e32:	f3c5 058b 	ubfx	r5, r5, #2, #12
				if (size > 0) {
  400e36:	2d00      	cmp	r5, #0
  400e38:	f000 80d1 	beq.w	400fde <hif_handle_isr+0x216>
					uint32 address = 0;
  400e3c:	a906      	add	r1, sp, #24
  400e3e:	f841 2d04 	str.w	r2, [r1, #-4]!
					/**
					start bus transfer
					**/
					ret = nm_read_reg_with_ret(WIFI_HOST_RCV_CTRL_1, &address);
  400e42:	f241 0084 	movw	r0, #4228	; 0x1084
  400e46:	4b88      	ldr	r3, [pc, #544]	; (401068 <hif_handle_isr+0x2a0>)
  400e48:	4798      	blx	r3
					if(M2M_SUCCESS != ret)
  400e4a:	4604      	mov	r4, r0
  400e4c:	b168      	cbz	r0, 400e6a <hif_handle_isr+0xa2>
					{
						M2M_ERR("(hif) WIFI_HOST_RCV_CTRL_1 bus fail\n");
  400e4e:	f44f 72e7 	mov.w	r2, #462	; 0x1ce
  400e52:	4641      	mov	r1, r8
  400e54:	4630      	mov	r0, r6
  400e56:	4d88      	ldr	r5, [pc, #544]	; (401078 <hif_handle_isr+0x2b0>)
  400e58:	47a8      	blx	r5
  400e5a:	4888      	ldr	r0, [pc, #544]	; (40107c <hif_handle_isr+0x2b4>)
  400e5c:	47a8      	blx	r5
  400e5e:	4888      	ldr	r0, [pc, #544]	; (401080 <hif_handle_isr+0x2b8>)
  400e60:	47a8      	blx	r5
						nm_bsp_interrupt_ctrl(1);
  400e62:	2001      	movs	r0, #1
  400e64:	4b81      	ldr	r3, [pc, #516]	; (40106c <hif_handle_isr+0x2a4>)
  400e66:	4798      	blx	r3
  400e68:	e0eb      	b.n	401042 <hif_handle_isr+0x27a>
						goto ERR1;
					}
					ret = nm_read_block(address, (uint8*)&strHif, sizeof(tstrHifHdr));
  400e6a:	2204      	movs	r2, #4
  400e6c:	a904      	add	r1, sp, #16
  400e6e:	9805      	ldr	r0, [sp, #20]
  400e70:	4b84      	ldr	r3, [pc, #528]	; (401084 <hif_handle_isr+0x2bc>)
  400e72:	4798      	blx	r3
					strHif.u16Length = NM_BSP_B_L_16(strHif.u16Length);
  400e74:	f8bd 3012 	ldrh.w	r3, [sp, #18]
  400e78:	b29b      	uxth	r3, r3
  400e7a:	f8ad 3012 	strh.w	r3, [sp, #18]
					if(M2M_SUCCESS != ret)
  400e7e:	4604      	mov	r4, r0
  400e80:	b168      	cbz	r0, 400e9e <hif_handle_isr+0xd6>
					{
						M2M_ERR("(hif) address bus fail\n");
  400e82:	f44f 72eb 	mov.w	r2, #470	; 0x1d6
  400e86:	4641      	mov	r1, r8
  400e88:	4630      	mov	r0, r6
  400e8a:	4d7b      	ldr	r5, [pc, #492]	; (401078 <hif_handle_isr+0x2b0>)
  400e8c:	47a8      	blx	r5
  400e8e:	487e      	ldr	r0, [pc, #504]	; (401088 <hif_handle_isr+0x2c0>)
  400e90:	47a8      	blx	r5
  400e92:	487b      	ldr	r0, [pc, #492]	; (401080 <hif_handle_isr+0x2b8>)
  400e94:	47a8      	blx	r5
						nm_bsp_interrupt_ctrl(1);
  400e96:	2001      	movs	r0, #1
  400e98:	4b74      	ldr	r3, [pc, #464]	; (40106c <hif_handle_isr+0x2a4>)
  400e9a:	4798      	blx	r3
  400e9c:	e0d1      	b.n	401042 <hif_handle_isr+0x27a>
						goto ERR1;
					}
					if(strHif.u16Length != size)
  400e9e:	f8bd 3012 	ldrh.w	r3, [sp, #18]
  400ea2:	b29b      	uxth	r3, r3
  400ea4:	429d      	cmp	r5, r3
  400ea6:	d01e      	beq.n	400ee6 <hif_handle_isr+0x11e>
					{
						if((size - strHif.u16Length) > 4)
  400ea8:	f8bd 3012 	ldrh.w	r3, [sp, #18]
  400eac:	b29b      	uxth	r3, r3
  400eae:	1aeb      	subs	r3, r5, r3
  400eb0:	2b04      	cmp	r3, #4
  400eb2:	dd18      	ble.n	400ee6 <hif_handle_isr+0x11e>
						{
							M2M_ERR("(hif) Corrupted packet Size = %u <L = %u, G = %u, OP = %02X>\n",
  400eb4:	f240 12df 	movw	r2, #479	; 0x1df
  400eb8:	4641      	mov	r1, r8
  400eba:	4630      	mov	r0, r6
  400ebc:	4c6e      	ldr	r4, [pc, #440]	; (401078 <hif_handle_isr+0x2b0>)
  400ebe:	47a0      	blx	r4
  400ec0:	f8bd 2012 	ldrh.w	r2, [sp, #18]
  400ec4:	f89d 3010 	ldrb.w	r3, [sp, #16]
  400ec8:	f89d 1011 	ldrb.w	r1, [sp, #17]
  400ecc:	9100      	str	r1, [sp, #0]
  400ece:	b292      	uxth	r2, r2
  400ed0:	4629      	mov	r1, r5
  400ed2:	486e      	ldr	r0, [pc, #440]	; (40108c <hif_handle_isr+0x2c4>)
  400ed4:	47a0      	blx	r4
  400ed6:	486a      	ldr	r0, [pc, #424]	; (401080 <hif_handle_isr+0x2b8>)
  400ed8:	47a0      	blx	r4
								size, strHif.u16Length, strHif.u8Gid, strHif.u8Opcode);
							nm_bsp_interrupt_ctrl(1);
  400eda:	2001      	movs	r0, #1
  400edc:	4b63      	ldr	r3, [pc, #396]	; (40106c <hif_handle_isr+0x2a4>)
  400ede:	4798      	blx	r3
							ret = M2M_ERR_BUS_FAIL;
  400ee0:	f06f 0405 	mvn.w	r4, #5
  400ee4:	e0ad      	b.n	401042 <hif_handle_isr+0x27a>
							goto ERR1;
						}
					}

					if(M2M_REQ_GROUP_WIFI == strHif.u8Gid)
  400ee6:	f89d 3010 	ldrb.w	r3, [sp, #16]
  400eea:	b2db      	uxtb	r3, r3
  400eec:	2b01      	cmp	r3, #1
  400eee:	d10d      	bne.n	400f0c <hif_handle_isr+0x144>
					{
						if(pfWifiCb)
  400ef0:	4b67      	ldr	r3, [pc, #412]	; (401090 <hif_handle_isr+0x2c8>)
  400ef2:	681b      	ldr	r3, [r3, #0]
  400ef4:	2b00      	cmp	r3, #0
  400ef6:	d060      	beq.n	400fba <hif_handle_isr+0x1f2>
							pfWifiCb(strHif.u8Opcode,strHif.u16Length - M2M_HIF_HDR_OFFSET, address + M2M_HIF_HDR_OFFSET);
  400ef8:	f89d 0011 	ldrb.w	r0, [sp, #17]
  400efc:	f8bd 1012 	ldrh.w	r1, [sp, #18]
  400f00:	3908      	subs	r1, #8
  400f02:	9a05      	ldr	r2, [sp, #20]
  400f04:	3208      	adds	r2, #8
  400f06:	b289      	uxth	r1, r1
  400f08:	4798      	blx	r3
  400f0a:	e056      	b.n	400fba <hif_handle_isr+0x1f2>

					}
					else if(M2M_REQ_GROUP_IP == strHif.u8Gid)
  400f0c:	f89d 3010 	ldrb.w	r3, [sp, #16]
  400f10:	b2db      	uxtb	r3, r3
  400f12:	2b02      	cmp	r3, #2
  400f14:	d10d      	bne.n	400f32 <hif_handle_isr+0x16a>
					{
						if(pfIpCb)
  400f16:	4b5f      	ldr	r3, [pc, #380]	; (401094 <hif_handle_isr+0x2cc>)
  400f18:	681b      	ldr	r3, [r3, #0]
  400f1a:	2b00      	cmp	r3, #0
  400f1c:	d04d      	beq.n	400fba <hif_handle_isr+0x1f2>
							pfIpCb(strHif.u8Opcode,strHif.u16Length - M2M_HIF_HDR_OFFSET, address + M2M_HIF_HDR_OFFSET);
  400f1e:	f89d 0011 	ldrb.w	r0, [sp, #17]
  400f22:	f8bd 1012 	ldrh.w	r1, [sp, #18]
  400f26:	3908      	subs	r1, #8
  400f28:	9a05      	ldr	r2, [sp, #20]
  400f2a:	3208      	adds	r2, #8
  400f2c:	b289      	uxth	r1, r1
  400f2e:	4798      	blx	r3
  400f30:	e043      	b.n	400fba <hif_handle_isr+0x1f2>
					}
					else if(M2M_REQ_GROUP_OTA == strHif.u8Gid)
  400f32:	f89d 3010 	ldrb.w	r3, [sp, #16]
  400f36:	b2db      	uxtb	r3, r3
  400f38:	2b04      	cmp	r3, #4
  400f3a:	d10d      	bne.n	400f58 <hif_handle_isr+0x190>
					{
						if(pfOtaCb)
  400f3c:	4b56      	ldr	r3, [pc, #344]	; (401098 <hif_handle_isr+0x2d0>)
  400f3e:	681b      	ldr	r3, [r3, #0]
  400f40:	2b00      	cmp	r3, #0
  400f42:	d03a      	beq.n	400fba <hif_handle_isr+0x1f2>
							pfOtaCb(strHif.u8Opcode,strHif.u16Length - M2M_HIF_HDR_OFFSET, address + M2M_HIF_HDR_OFFSET);
  400f44:	f89d 0011 	ldrb.w	r0, [sp, #17]
  400f48:	f8bd 1012 	ldrh.w	r1, [sp, #18]
  400f4c:	3908      	subs	r1, #8
  400f4e:	9a05      	ldr	r2, [sp, #20]
  400f50:	3208      	adds	r2, #8
  400f52:	b289      	uxth	r1, r1
  400f54:	4798      	blx	r3
  400f56:	e030      	b.n	400fba <hif_handle_isr+0x1f2>
					}
					else if(M2M_REQ_GROUP_CRYPTO == strHif.u8Gid)
  400f58:	f89d 3010 	ldrb.w	r3, [sp, #16]
  400f5c:	b2db      	uxtb	r3, r3
  400f5e:	2b06      	cmp	r3, #6
  400f60:	d10c      	bne.n	400f7c <hif_handle_isr+0x1b4>
					{
						if(pfCryptoCb)
  400f62:	4b4e      	ldr	r3, [pc, #312]	; (40109c <hif_handle_isr+0x2d4>)
  400f64:	681b      	ldr	r3, [r3, #0]
  400f66:	b343      	cbz	r3, 400fba <hif_handle_isr+0x1f2>
							pfCryptoCb(strHif.u8Opcode,strHif.u16Length - M2M_HIF_HDR_OFFSET, address + M2M_HIF_HDR_OFFSET);
  400f68:	f89d 0011 	ldrb.w	r0, [sp, #17]
  400f6c:	f8bd 1012 	ldrh.w	r1, [sp, #18]
  400f70:	3908      	subs	r1, #8
  400f72:	9a05      	ldr	r2, [sp, #20]
  400f74:	3208      	adds	r2, #8
  400f76:	b289      	uxth	r1, r1
  400f78:	4798      	blx	r3
  400f7a:	e01e      	b.n	400fba <hif_handle_isr+0x1f2>
					}
					else if(M2M_REQ_GROUP_SIGMA == strHif.u8Gid)
  400f7c:	f89d 3010 	ldrb.w	r3, [sp, #16]
  400f80:	b2db      	uxtb	r3, r3
  400f82:	2b07      	cmp	r3, #7
  400f84:	d10c      	bne.n	400fa0 <hif_handle_isr+0x1d8>
					{
						if(pfSigmaCb)
  400f86:	4b46      	ldr	r3, [pc, #280]	; (4010a0 <hif_handle_isr+0x2d8>)
  400f88:	681b      	ldr	r3, [r3, #0]
  400f8a:	b1b3      	cbz	r3, 400fba <hif_handle_isr+0x1f2>
							pfSigmaCb(strHif.u8Opcode,strHif.u16Length - M2M_HIF_HDR_OFFSET, address + M2M_HIF_HDR_OFFSET);
  400f8c:	f89d 0011 	ldrb.w	r0, [sp, #17]
  400f90:	f8bd 1012 	ldrh.w	r1, [sp, #18]
  400f94:	3908      	subs	r1, #8
  400f96:	9a05      	ldr	r2, [sp, #20]
  400f98:	3208      	adds	r2, #8
  400f9a:	b289      	uxth	r1, r1
  400f9c:	4798      	blx	r3
  400f9e:	e00c      	b.n	400fba <hif_handle_isr+0x1f2>
					}
					else
					{
						M2M_ERR("(hif) invalid group ID\n");
  400fa0:	f240 2202 	movw	r2, #514	; 0x202
  400fa4:	4641      	mov	r1, r8
  400fa6:	4630      	mov	r0, r6
  400fa8:	4c33      	ldr	r4, [pc, #204]	; (401078 <hif_handle_isr+0x2b0>)
  400faa:	47a0      	blx	r4
  400fac:	483d      	ldr	r0, [pc, #244]	; (4010a4 <hif_handle_isr+0x2dc>)
  400fae:	47a0      	blx	r4
  400fb0:	4833      	ldr	r0, [pc, #204]	; (401080 <hif_handle_isr+0x2b8>)
  400fb2:	47a0      	blx	r4
						ret = M2M_ERR_BUS_FAIL;
  400fb4:	f06f 0405 	mvn.w	r4, #5
  400fb8:	e043      	b.n	401042 <hif_handle_isr+0x27a>
						goto ERR1;
					}
					#ifndef ENABLE_UNO_BOARD
					if(!gu8HifSizeDone)
  400fba:	4b2e      	ldr	r3, [pc, #184]	; (401074 <hif_handle_isr+0x2ac>)
  400fbc:	781b      	ldrb	r3, [r3, #0]
  400fbe:	f013 0fff 	tst.w	r3, #255	; 0xff
  400fc2:	d13b      	bne.n	40103c <hif_handle_isr+0x274>
					{
						M2M_ERR("(hif) host app didn't set RX Done\n");
  400fc4:	f240 2209 	movw	r2, #521	; 0x209
  400fc8:	4641      	mov	r1, r8
  400fca:	4630      	mov	r0, r6
  400fcc:	4c2a      	ldr	r4, [pc, #168]	; (401078 <hif_handle_isr+0x2b0>)
  400fce:	47a0      	blx	r4
  400fd0:	4835      	ldr	r0, [pc, #212]	; (4010a8 <hif_handle_isr+0x2e0>)
  400fd2:	47a0      	blx	r4
  400fd4:	482a      	ldr	r0, [pc, #168]	; (401080 <hif_handle_isr+0x2b8>)
  400fd6:	47a0      	blx	r4
						ret = hif_set_rx_done();
  400fd8:	4b34      	ldr	r3, [pc, #208]	; (4010ac <hif_handle_isr+0x2e4>)
  400fda:	4798      	blx	r3
  400fdc:	e02e      	b.n	40103c <hif_handle_isr+0x274>
					#endif
				}
				else
				{
					ret = M2M_ERR_RCV;
					M2M_ERR("(hif) Wrong Size\n");
  400fde:	f240 2211 	movw	r2, #529	; 0x211
  400fe2:	4641      	mov	r1, r8
  400fe4:	4630      	mov	r0, r6
  400fe6:	4c24      	ldr	r4, [pc, #144]	; (401078 <hif_handle_isr+0x2b0>)
  400fe8:	47a0      	blx	r4
  400fea:	4831      	ldr	r0, [pc, #196]	; (4010b0 <hif_handle_isr+0x2e8>)
  400fec:	47a0      	blx	r4
  400fee:	4824      	ldr	r0, [pc, #144]	; (401080 <hif_handle_isr+0x2b8>)
  400ff0:	47a0      	blx	r4
					}
					#endif
				}
				else
				{
					ret = M2M_ERR_RCV;
  400ff2:	f06f 0401 	mvn.w	r4, #1
  400ff6:	e026      	b.n	401046 <hif_handle_isr+0x27e>
				}
			}
			else
			{
#ifndef WIN32
				M2M_ERR("(hif) False interrupt %lx",reg);
  400ff8:	f44f 7206 	mov.w	r2, #536	; 0x218
  400ffc:	4641      	mov	r1, r8
  400ffe:	4630      	mov	r0, r6
  401000:	4c1d      	ldr	r4, [pc, #116]	; (401078 <hif_handle_isr+0x2b0>)
  401002:	47a0      	blx	r4
  401004:	9903      	ldr	r1, [sp, #12]
  401006:	482b      	ldr	r0, [pc, #172]	; (4010b4 <hif_handle_isr+0x2ec>)
  401008:	47a0      	blx	r4
  40100a:	481d      	ldr	r0, [pc, #116]	; (401080 <hif_handle_isr+0x2b8>)
  40100c:	47a0      	blx	r4
  40100e:	e015      	b.n	40103c <hif_handle_isr+0x274>
#endif
			}
		}
		else
		{
			M2M_ERR("(hif) Fail to Read interrupt reg\n");
  401010:	f240 221e 	movw	r2, #542	; 0x21e
  401014:	4641      	mov	r1, r8
  401016:	4630      	mov	r0, r6
  401018:	4d17      	ldr	r5, [pc, #92]	; (401078 <hif_handle_isr+0x2b0>)
  40101a:	47a8      	blx	r5
  40101c:	4826      	ldr	r0, [pc, #152]	; (4010b8 <hif_handle_isr+0x2f0>)
  40101e:	47a8      	blx	r5
  401020:	4817      	ldr	r0, [pc, #92]	; (401080 <hif_handle_isr+0x2b8>)
  401022:	47a8      	blx	r5
  401024:	e00f      	b.n	401046 <hif_handle_isr+0x27e>
			goto ERR1;
		}
	}
	else
	{
		M2M_ERR("(hif) FAIL to wakeup the chip\n");
  401026:	f44f 7209 	mov.w	r2, #548	; 0x224
  40102a:	4641      	mov	r1, r8
  40102c:	4630      	mov	r0, r6
  40102e:	4d12      	ldr	r5, [pc, #72]	; (401078 <hif_handle_isr+0x2b0>)
  401030:	47a8      	blx	r5
  401032:	4822      	ldr	r0, [pc, #136]	; (4010bc <hif_handle_isr+0x2f4>)
  401034:	47a8      	blx	r5
  401036:	4812      	ldr	r0, [pc, #72]	; (401080 <hif_handle_isr+0x2b8>)
  401038:	47a8      	blx	r5
  40103a:	e004      	b.n	401046 <hif_handle_isr+0x27e>
		goto ERR1;
	}

	ret = hif_chip_sleep();
  40103c:	4b20      	ldr	r3, [pc, #128]	; (4010c0 <hif_handle_isr+0x2f8>)
  40103e:	4798      	blx	r3
  401040:	4604      	mov	r4, r0
		/*when the interrupt enabled*/
		gu8Interrupt--;
		while(1)
		{
			ret = hif_isr();
			if(ret == M2M_SUCCESS) {
  401042:	2c00      	cmp	r4, #0
  401044:	d046      	beq.n	4010d4 <hif_handle_isr+0x30c>
				/*we will try forever untill we get that interrupt*/
				/*Fail return errors here due to bus errors (reading expected values)*/
				break;
			} else {
				M2M_ERR("(HIF) Fail to handle interrupt %d try Again..\n",ret);
  401046:	f240 2243 	movw	r2, #579	; 0x243
  40104a:	491e      	ldr	r1, [pc, #120]	; (4010c4 <hif_handle_isr+0x2fc>)
  40104c:	4630      	mov	r0, r6
  40104e:	4d0a      	ldr	r5, [pc, #40]	; (401078 <hif_handle_isr+0x2b0>)
  401050:	47a8      	blx	r5
  401052:	4621      	mov	r1, r4
  401054:	481c      	ldr	r0, [pc, #112]	; (4010c8 <hif_handle_isr+0x300>)
  401056:	47a8      	blx	r5
  401058:	4809      	ldr	r0, [pc, #36]	; (401080 <hif_handle_isr+0x2b8>)
  40105a:	47a8      	blx	r5
			}
		}
  40105c:	e6c4      	b.n	400de8 <hif_handle_isr+0x20>
  40105e:	bf00      	nop
  401060:	00400b0d 	.word	0x00400b0d
  401064:	00408108 	.word	0x00408108
  401068:	00401d95 	.word	0x00401d95
  40106c:	00400825 	.word	0x00400825
  401070:	00401da1 	.word	0x00401da1
  401074:	204008c0 	.word	0x204008c0
  401078:	004046b5 	.word	0x004046b5
  40107c:	0040816c 	.word	0x0040816c
  401080:	00408134 	.word	0x00408134
  401084:	00401dad 	.word	0x00401dad
  401088:	00408194 	.word	0x00408194
  40108c:	004081ac 	.word	0x004081ac
  401090:	204008a8 	.word	0x204008a8
  401094:	204008bc 	.word	0x204008bc
  401098:	204008c4 	.word	0x204008c4
  40109c:	204008a4 	.word	0x204008a4
  4010a0:	204008b4 	.word	0x204008b4
  4010a4:	004081ec 	.word	0x004081ec
  4010a8:	00408204 	.word	0x00408204
  4010ac:	00400acd 	.word	0x00400acd
  4010b0:	00408228 	.word	0x00408228
  4010b4:	0040823c 	.word	0x0040823c
  4010b8:	00408258 	.word	0x00408258
  4010bc:	0040827c 	.word	0x0040827c
  4010c0:	00400b65 	.word	0x00400b65
  4010c4:	0040839c 	.word	0x0040839c
  4010c8:	0040829c 	.word	0x0040829c
  4010cc:	204008ac 	.word	0x204008ac
  4010d0:	00408138 	.word	0x00408138

sint8 hif_handle_isr(void)
{
	sint8 ret = M2M_SUCCESS;

	while (gu8Interrupt) {
  4010d4:	f899 3000 	ldrb.w	r3, [r9]
  4010d8:	f013 0fff 	tst.w	r3, #255	; 0xff
  4010dc:	f47f ae7e 	bne.w	400ddc <hif_handle_isr+0x14>
			}
		}
	}

	return ret;
}
  4010e0:	2000      	movs	r0, #0
  4010e2:	b007      	add	sp, #28
  4010e4:	e8bd 83f0 	ldmia.w	sp!, {r4, r5, r6, r7, r8, r9, pc}

004010e8 <hif_receive>:
*	@param [in]	isDone
*				If you don't need any more packets send True otherwise send false
*    @return		The function shall return ZERO for successful operation and a negative value otherwise.
*/
sint8 hif_receive(uint32 u32Addr, uint8 *pu8Buf, uint16 u16Sz, uint8 isDone)
{
  4010e8:	e92d 43f0 	stmdb	sp!, {r4, r5, r6, r7, r8, r9, lr}
  4010ec:	b083      	sub	sp, #12
  4010ee:	461c      	mov	r4, r3
	uint32 address, reg;
	uint16 size;
	sint8 ret = M2M_SUCCESS;

	if(u32Addr == 0 ||pu8Buf == NULL || u16Sz == 0)
  4010f0:	2a00      	cmp	r2, #0
  4010f2:	bf18      	it	ne
  4010f4:	2900      	cmpne	r1, #0
  4010f6:	d003      	beq.n	401100 <hif_receive+0x18>
  4010f8:	4605      	mov	r5, r0
  4010fa:	460f      	mov	r7, r1
  4010fc:	4616      	mov	r6, r2
  4010fe:	b9a0      	cbnz	r0, 40112a <hif_receive+0x42>
	{
		if(isDone)
  401100:	b134      	cbz	r4, 401110 <hif_receive+0x28>
		{
			gu8HifSizeDone = 1;
  401102:	2201      	movs	r2, #1
  401104:	4b31      	ldr	r3, [pc, #196]	; (4011cc <hif_receive+0xe4>)
  401106:	701a      	strb	r2, [r3, #0]

			/* set RX done */
			ret = hif_set_rx_done();
  401108:	4b31      	ldr	r3, [pc, #196]	; (4011d0 <hif_receive+0xe8>)
  40110a:	4798      	blx	r3
  40110c:	4603      	mov	r3, r0
  40110e:	e058      	b.n	4011c2 <hif_receive+0xda>
		}
		else
		{
			ret = M2M_ERR_FAIL;
			M2M_ERR(" hif_receive: Invalid argument\n");
  401110:	f240 2269 	movw	r2, #617	; 0x269
  401114:	492f      	ldr	r1, [pc, #188]	; (4011d4 <hif_receive+0xec>)
  401116:	4830      	ldr	r0, [pc, #192]	; (4011d8 <hif_receive+0xf0>)
  401118:	4c30      	ldr	r4, [pc, #192]	; (4011dc <hif_receive+0xf4>)
  40111a:	47a0      	blx	r4
  40111c:	4830      	ldr	r0, [pc, #192]	; (4011e0 <hif_receive+0xf8>)
  40111e:	47a0      	blx	r4
  401120:	4830      	ldr	r0, [pc, #192]	; (4011e4 <hif_receive+0xfc>)
  401122:	47a0      	blx	r4
			/* set RX done */
			ret = hif_set_rx_done();
		}
		else
		{
			ret = M2M_ERR_FAIL;
  401124:	f06f 030b 	mvn.w	r3, #11
  401128:	e04b      	b.n	4011c2 <hif_receive+0xda>
			M2M_ERR(" hif_receive: Invalid argument\n");
		}
		goto ERR1;
	}

	ret = nm_read_reg_with_ret(WIFI_HOST_RCV_CTRL_0,&reg);
  40112a:	4669      	mov	r1, sp
  40112c:	f241 0070 	movw	r0, #4208	; 0x1070
  401130:	4b2d      	ldr	r3, [pc, #180]	; (4011e8 <hif_receive+0x100>)
  401132:	4798      	blx	r3
	if(ret != M2M_SUCCESS)goto ERR1;
  401134:	4603      	mov	r3, r0
  401136:	2800      	cmp	r0, #0
  401138:	d143      	bne.n	4011c2 <hif_receive+0xda>


	size = (uint16)((reg >> 2) & 0xfff);
  40113a:	f8dd 8000 	ldr.w	r8, [sp]
	ret = nm_read_reg_with_ret(WIFI_HOST_RCV_CTRL_1,&address);
  40113e:	a901      	add	r1, sp, #4
  401140:	f241 0084 	movw	r0, #4228	; 0x1084
  401144:	4b28      	ldr	r3, [pc, #160]	; (4011e8 <hif_receive+0x100>)
  401146:	4798      	blx	r3
	if(ret != M2M_SUCCESS)goto ERR1;
  401148:	4603      	mov	r3, r0
  40114a:	2800      	cmp	r0, #0
  40114c:	d139      	bne.n	4011c2 <hif_receive+0xda>

	ret = nm_read_reg_with_ret(WIFI_HOST_RCV_CTRL_0,&reg);
	if(ret != M2M_SUCCESS)goto ERR1;


	size = (uint16)((reg >> 2) & 0xfff);
  40114e:	f3c8 088b 	ubfx	r8, r8, #2, #12
	ret = nm_read_reg_with_ret(WIFI_HOST_RCV_CTRL_1,&address);
	if(ret != M2M_SUCCESS)goto ERR1;


	if(u16Sz > size)
  401152:	4546      	cmp	r6, r8
  401154:	d90e      	bls.n	401174 <hif_receive+0x8c>
	{
		ret = M2M_ERR_FAIL;
		M2M_ERR("APP Requested Size is larger than the recived buffer size <%d><%d>\n",u16Sz, size);
  401156:	f240 227a 	movw	r2, #634	; 0x27a
  40115a:	491e      	ldr	r1, [pc, #120]	; (4011d4 <hif_receive+0xec>)
  40115c:	481e      	ldr	r0, [pc, #120]	; (4011d8 <hif_receive+0xf0>)
  40115e:	4c1f      	ldr	r4, [pc, #124]	; (4011dc <hif_receive+0xf4>)
  401160:	47a0      	blx	r4
  401162:	4642      	mov	r2, r8
  401164:	4631      	mov	r1, r6
  401166:	4821      	ldr	r0, [pc, #132]	; (4011ec <hif_receive+0x104>)
  401168:	47a0      	blx	r4
  40116a:	481e      	ldr	r0, [pc, #120]	; (4011e4 <hif_receive+0xfc>)
  40116c:	47a0      	blx	r4
	if(ret != M2M_SUCCESS)goto ERR1;


	if(u16Sz > size)
	{
		ret = M2M_ERR_FAIL;
  40116e:	f06f 030b 	mvn.w	r3, #11
		M2M_ERR("APP Requested Size is larger than the recived buffer size <%d><%d>\n",u16Sz, size);
		goto ERR1;
  401172:	e026      	b.n	4011c2 <hif_receive+0xda>
	}
	if((u32Addr < address)||((u32Addr + u16Sz)>(address+size)))
  401174:	9b01      	ldr	r3, [sp, #4]
  401176:	429d      	cmp	r5, r3
  401178:	d304      	bcc.n	401184 <hif_receive+0x9c>
  40117a:	eb05 0906 	add.w	r9, r5, r6
  40117e:	4443      	add	r3, r8
  401180:	4599      	cmp	r9, r3
  401182:	d90c      	bls.n	40119e <hif_receive+0xb6>
	{
		ret = M2M_ERR_FAIL;
		M2M_ERR("APP Requested Address beyond the recived buffer address and length\n");
  401184:	f44f 7220 	mov.w	r2, #640	; 0x280
  401188:	4912      	ldr	r1, [pc, #72]	; (4011d4 <hif_receive+0xec>)
  40118a:	4813      	ldr	r0, [pc, #76]	; (4011d8 <hif_receive+0xf0>)
  40118c:	4c13      	ldr	r4, [pc, #76]	; (4011dc <hif_receive+0xf4>)
  40118e:	47a0      	blx	r4
  401190:	4817      	ldr	r0, [pc, #92]	; (4011f0 <hif_receive+0x108>)
  401192:	47a0      	blx	r4
  401194:	4813      	ldr	r0, [pc, #76]	; (4011e4 <hif_receive+0xfc>)
  401196:	47a0      	blx	r4
		M2M_ERR("APP Requested Size is larger than the recived buffer size <%d><%d>\n",u16Sz, size);
		goto ERR1;
	}
	if((u32Addr < address)||((u32Addr + u16Sz)>(address+size)))
	{
		ret = M2M_ERR_FAIL;
  401198:	f06f 030b 	mvn.w	r3, #11
		M2M_ERR("APP Requested Address beyond the recived buffer address and length\n");
		goto ERR1;
  40119c:	e011      	b.n	4011c2 <hif_receive+0xda>
	}

	/* Receive the payload */
	ret = nm_read_block(u32Addr, pu8Buf, u16Sz);
  40119e:	4632      	mov	r2, r6
  4011a0:	4639      	mov	r1, r7
  4011a2:	4628      	mov	r0, r5
  4011a4:	4b13      	ldr	r3, [pc, #76]	; (4011f4 <hif_receive+0x10c>)
  4011a6:	4798      	blx	r3
	if(ret != M2M_SUCCESS)goto ERR1;
  4011a8:	4603      	mov	r3, r0
  4011aa:	b950      	cbnz	r0, 4011c2 <hif_receive+0xda>

	/* check if this is the last packet */
	if((((address + size) - (u32Addr + u16Sz)) <= 0) || isDone)
  4011ac:	9a01      	ldr	r2, [sp, #4]
  4011ae:	4442      	add	r2, r8
  4011b0:	454a      	cmp	r2, r9
  4011b2:	d000      	beq.n	4011b6 <hif_receive+0xce>
  4011b4:	b12c      	cbz	r4, 4011c2 <hif_receive+0xda>
	{
		gu8HifSizeDone = 1;
  4011b6:	2201      	movs	r2, #1
  4011b8:	4b04      	ldr	r3, [pc, #16]	; (4011cc <hif_receive+0xe4>)
  4011ba:	701a      	strb	r2, [r3, #0]

		/* set RX done */
		ret = hif_set_rx_done();
  4011bc:	4b04      	ldr	r3, [pc, #16]	; (4011d0 <hif_receive+0xe8>)
  4011be:	4798      	blx	r3
  4011c0:	4603      	mov	r3, r0



ERR1:
	return ret;
}
  4011c2:	4618      	mov	r0, r3
  4011c4:	b003      	add	sp, #12
  4011c6:	e8bd 83f0 	ldmia.w	sp!, {r4, r5, r6, r7, r8, r9, pc}
  4011ca:	bf00      	nop
  4011cc:	204008c0 	.word	0x204008c0
  4011d0:	00400acd 	.word	0x00400acd
  4011d4:	00408140 	.word	0x00408140
  4011d8:	00408108 	.word	0x00408108
  4011dc:	004046b5 	.word	0x004046b5
  4011e0:	004082cc 	.word	0x004082cc
  4011e4:	00408134 	.word	0x00408134
  4011e8:	00401d95 	.word	0x00401d95
  4011ec:	004082ec 	.word	0x004082ec
  4011f0:	00408330 	.word	0x00408330
  4011f4:	00401dad 	.word	0x00401dad

004011f8 <hif_register_cb>:
*				function to be set
*    @return		The function shall return ZERO for successful operation and a negative value otherwise.
*/

sint8 hif_register_cb(uint8 u8Grp,tpfHifCallBack fn)
{
  4011f8:	b538      	push	{r3, r4, r5, lr}
	sint8 ret = M2M_SUCCESS;
	switch(u8Grp)
  4011fa:	1e43      	subs	r3, r0, #1
  4011fc:	2b06      	cmp	r3, #6
  4011fe:	d81d      	bhi.n	40123c <hif_register_cb+0x44>
  401200:	e8df f003 	tbb	[pc, r3]
  401204:	0c100408 	.word	0x0c100408
  401208:	141c      	.short	0x141c
  40120a:	18          	.byte	0x18
  40120b:	00          	.byte	0x00
	{
		case M2M_REQ_GROUP_IP:
			pfIpCb = fn;
  40120c:	4b13      	ldr	r3, [pc, #76]	; (40125c <hif_register_cb+0x64>)
  40120e:	6019      	str	r1, [r3, #0]
*    @return		The function shall return ZERO for successful operation and a negative value otherwise.
*/

sint8 hif_register_cb(uint8 u8Grp,tpfHifCallBack fn)
{
	sint8 ret = M2M_SUCCESS;
  401210:	2000      	movs	r0, #0
	switch(u8Grp)
	{
		case M2M_REQ_GROUP_IP:
			pfIpCb = fn;
			break;
  401212:	bd38      	pop	{r3, r4, r5, pc}
		case M2M_REQ_GROUP_WIFI:
			pfWifiCb = fn;
  401214:	4b12      	ldr	r3, [pc, #72]	; (401260 <hif_register_cb+0x68>)
  401216:	6019      	str	r1, [r3, #0]
*    @return		The function shall return ZERO for successful operation and a negative value otherwise.
*/

sint8 hif_register_cb(uint8 u8Grp,tpfHifCallBack fn)
{
	sint8 ret = M2M_SUCCESS;
  401218:	2000      	movs	r0, #0
		case M2M_REQ_GROUP_IP:
			pfIpCb = fn;
			break;
		case M2M_REQ_GROUP_WIFI:
			pfWifiCb = fn;
			break;
  40121a:	bd38      	pop	{r3, r4, r5, pc}
		case M2M_REQ_GROUP_OTA:
			pfOtaCb = fn;
  40121c:	4b11      	ldr	r3, [pc, #68]	; (401264 <hif_register_cb+0x6c>)
  40121e:	6019      	str	r1, [r3, #0]
*    @return		The function shall return ZERO for successful operation and a negative value otherwise.
*/

sint8 hif_register_cb(uint8 u8Grp,tpfHifCallBack fn)
{
	sint8 ret = M2M_SUCCESS;
  401220:	2000      	movs	r0, #0
		case M2M_REQ_GROUP_WIFI:
			pfWifiCb = fn;
			break;
		case M2M_REQ_GROUP_OTA:
			pfOtaCb = fn;
			break;
  401222:	bd38      	pop	{r3, r4, r5, pc}
		case M2M_REQ_GROUP_HIF:
			pfHifCb = fn;
  401224:	4b10      	ldr	r3, [pc, #64]	; (401268 <hif_register_cb+0x70>)
  401226:	6019      	str	r1, [r3, #0]
*    @return		The function shall return ZERO for successful operation and a negative value otherwise.
*/

sint8 hif_register_cb(uint8 u8Grp,tpfHifCallBack fn)
{
	sint8 ret = M2M_SUCCESS;
  401228:	2000      	movs	r0, #0
		case M2M_REQ_GROUP_OTA:
			pfOtaCb = fn;
			break;
		case M2M_REQ_GROUP_HIF:
			pfHifCb = fn;
			break;
  40122a:	bd38      	pop	{r3, r4, r5, pc}
		case M2M_REQ_GROUP_CRYPTO:
			pfCryptoCb = fn;
  40122c:	4b0f      	ldr	r3, [pc, #60]	; (40126c <hif_register_cb+0x74>)
  40122e:	6019      	str	r1, [r3, #0]
*    @return		The function shall return ZERO for successful operation and a negative value otherwise.
*/

sint8 hif_register_cb(uint8 u8Grp,tpfHifCallBack fn)
{
	sint8 ret = M2M_SUCCESS;
  401230:	2000      	movs	r0, #0
		case M2M_REQ_GROUP_HIF:
			pfHifCb = fn;
			break;
		case M2M_REQ_GROUP_CRYPTO:
			pfCryptoCb = fn;
			break;
  401232:	bd38      	pop	{r3, r4, r5, pc}
		case M2M_REQ_GROUP_SIGMA:
			pfSigmaCb = fn;
  401234:	4b0e      	ldr	r3, [pc, #56]	; (401270 <hif_register_cb+0x78>)
  401236:	6019      	str	r1, [r3, #0]
*    @return		The function shall return ZERO for successful operation and a negative value otherwise.
*/

sint8 hif_register_cb(uint8 u8Grp,tpfHifCallBack fn)
{
	sint8 ret = M2M_SUCCESS;
  401238:	2000      	movs	r0, #0
		case M2M_REQ_GROUP_CRYPTO:
			pfCryptoCb = fn;
			break;
		case M2M_REQ_GROUP_SIGMA:
			pfSigmaCb = fn;
			break;
  40123a:	bd38      	pop	{r3, r4, r5, pc}
  40123c:	4604      	mov	r4, r0
		default:
			M2M_ERR("GRp ? %d\n",u8Grp);
  40123e:	f240 22b9 	movw	r2, #697	; 0x2b9
  401242:	490c      	ldr	r1, [pc, #48]	; (401274 <hif_register_cb+0x7c>)
  401244:	480c      	ldr	r0, [pc, #48]	; (401278 <hif_register_cb+0x80>)
  401246:	4d0d      	ldr	r5, [pc, #52]	; (40127c <hif_register_cb+0x84>)
  401248:	47a8      	blx	r5
  40124a:	4621      	mov	r1, r4
  40124c:	480c      	ldr	r0, [pc, #48]	; (401280 <hif_register_cb+0x88>)
  40124e:	47a8      	blx	r5
  401250:	480c      	ldr	r0, [pc, #48]	; (401284 <hif_register_cb+0x8c>)
  401252:	47a8      	blx	r5
			ret = M2M_ERR_FAIL;
  401254:	f06f 000b 	mvn.w	r0, #11
			break;
	}
	return ret;
}
  401258:	bd38      	pop	{r3, r4, r5, pc}
  40125a:	bf00      	nop
  40125c:	204008bc 	.word	0x204008bc
  401260:	204008a8 	.word	0x204008a8
  401264:	204008c4 	.word	0x204008c4
  401268:	204008b0 	.word	0x204008b0
  40126c:	204008a4 	.word	0x204008a4
  401270:	204008b4 	.word	0x204008b4
  401274:	00408380 	.word	0x00408380
  401278:	00408108 	.word	0x00408108
  40127c:	004046b5 	.word	0x004046b5
  401280:	00408374 	.word	0x00408374
  401284:	00408134 	.word	0x00408134

00401288 <hif_init>:
*				Pointer to the arguments.
*   @return		The function shall return ZERO for successful operation and a negative value otherwise.
*/

sint8 hif_init(void * arg)
{
  401288:	b510      	push	{r4, lr}
	pfWifiCb = NULL;
  40128a:	2400      	movs	r4, #0
  40128c:	4b09      	ldr	r3, [pc, #36]	; (4012b4 <hif_init+0x2c>)
  40128e:	601c      	str	r4, [r3, #0]
	pfIpCb = NULL;
  401290:	4b09      	ldr	r3, [pc, #36]	; (4012b8 <hif_init+0x30>)
  401292:	601c      	str	r4, [r3, #0]

	gu8ChipSleep = 0;
  401294:	4b09      	ldr	r3, [pc, #36]	; (4012bc <hif_init+0x34>)
  401296:	701c      	strb	r4, [r3, #0]
	gu8ChipMode = M2M_NO_PS;
  401298:	4b09      	ldr	r3, [pc, #36]	; (4012c0 <hif_init+0x38>)
  40129a:	701c      	strb	r4, [r3, #0]

	gu8Interrupt = 0;
  40129c:	4b09      	ldr	r3, [pc, #36]	; (4012c4 <hif_init+0x3c>)
  40129e:	701c      	strb	r4, [r3, #0]
	nm_bsp_register_isr(isr);
  4012a0:	4809      	ldr	r0, [pc, #36]	; (4012c8 <hif_init+0x40>)
  4012a2:	4b0a      	ldr	r3, [pc, #40]	; (4012cc <hif_init+0x44>)
  4012a4:	4798      	blx	r3

	hif_register_cb(M2M_REQ_GROUP_HIF,m2m_hif_cb);
  4012a6:	490a      	ldr	r1, [pc, #40]	; (4012d0 <hif_init+0x48>)
  4012a8:	2003      	movs	r0, #3
  4012aa:	4b0a      	ldr	r3, [pc, #40]	; (4012d4 <hif_init+0x4c>)
  4012ac:	4798      	blx	r3

	return M2M_SUCCESS;
}
  4012ae:	4620      	mov	r0, r4
  4012b0:	bd10      	pop	{r4, pc}
  4012b2:	bf00      	nop
  4012b4:	204008a8 	.word	0x204008a8
  4012b8:	204008bc 	.word	0x204008bc
  4012bc:	204008c8 	.word	0x204008c8
  4012c0:	204008b8 	.word	0x204008b8
  4012c4:	204008ac 	.word	0x204008ac
  4012c8:	00400ab9 	.word	0x00400ab9
  4012cc:	004007a5 	.word	0x004007a5
  4012d0:	00400ac9 	.word	0x00400ac9
  4012d4:	004011f9 	.word	0x004011f9

004012d8 <m2m_wifi_cb>:
*	@author
*	@date
*	@version	1.0
*/
static void m2m_wifi_cb(uint8 u8OpCode, uint16 u16DataSize, uint32 u32Addr)
{
  4012d8:	b530      	push	{r4, r5, lr}
  4012da:	b09f      	sub	sp, #124	; 0x7c
  4012dc:	4615      	mov	r5, r2
	uint8 rx_buf[8];
	if (u8OpCode == M2M_WIFI_RESP_CON_STATE_CHANGED)
  4012de:	282c      	cmp	r0, #44	; 0x2c
  4012e0:	d111      	bne.n	401306 <m2m_wifi_cb+0x2e>
	{
		tstrM2mWifiStateChanged strState;
		if (hif_receive(u32Addr, (uint8*) &strState,sizeof(tstrM2mWifiStateChanged), 0) == M2M_SUCCESS)
  4012e2:	2300      	movs	r3, #0
  4012e4:	2204      	movs	r2, #4
  4012e6:	a903      	add	r1, sp, #12
  4012e8:	4628      	mov	r0, r5
  4012ea:	4c90      	ldr	r4, [pc, #576]	; (40152c <m2m_wifi_cb+0x254>)
  4012ec:	47a0      	blx	r4
  4012ee:	2800      	cmp	r0, #0
  4012f0:	f040 8119 	bne.w	401526 <m2m_wifi_cb+0x24e>
		{
			if (gpfAppWifiCb)
  4012f4:	4b8e      	ldr	r3, [pc, #568]	; (401530 <m2m_wifi_cb+0x258>)
  4012f6:	681b      	ldr	r3, [r3, #0]
  4012f8:	2b00      	cmp	r3, #0
  4012fa:	f000 8114 	beq.w	401526 <m2m_wifi_cb+0x24e>
				gpfAppWifiCb(M2M_WIFI_RESP_CON_STATE_CHANGED, &strState);
  4012fe:	a903      	add	r1, sp, #12
  401300:	202c      	movs	r0, #44	; 0x2c
  401302:	4798      	blx	r3
  401304:	e10f      	b.n	401526 <m2m_wifi_cb+0x24e>
  401306:	4604      	mov	r4, r0
		}
	}
	else if (u8OpCode == M2M_WIFI_RESP_GET_SYS_TIME)
  401308:	281b      	cmp	r0, #27
  40130a:	d111      	bne.n	401330 <m2m_wifi_cb+0x58>
	{
		tstrSystemTime strSysTime;
		if (hif_receive(u32Addr, (uint8*) &strSysTime,sizeof(tstrSystemTime), 0) == M2M_SUCCESS)
  40130c:	2300      	movs	r3, #0
  40130e:	2208      	movs	r2, #8
  401310:	a903      	add	r1, sp, #12
  401312:	4628      	mov	r0, r5
  401314:	4c85      	ldr	r4, [pc, #532]	; (40152c <m2m_wifi_cb+0x254>)
  401316:	47a0      	blx	r4
  401318:	2800      	cmp	r0, #0
  40131a:	f040 8104 	bne.w	401526 <m2m_wifi_cb+0x24e>
		{
			if (gpfAppWifiCb)
  40131e:	4b84      	ldr	r3, [pc, #528]	; (401530 <m2m_wifi_cb+0x258>)
  401320:	681b      	ldr	r3, [r3, #0]
  401322:	2b00      	cmp	r3, #0
  401324:	f000 80ff 	beq.w	401526 <m2m_wifi_cb+0x24e>
				gpfAppWifiCb(M2M_WIFI_RESP_GET_SYS_TIME, &strSysTime);
  401328:	a903      	add	r1, sp, #12
  40132a:	201b      	movs	r0, #27
  40132c:	4798      	blx	r3
  40132e:	e0fa      	b.n	401526 <m2m_wifi_cb+0x24e>
		}
	}
	else if(u8OpCode == M2M_WIFI_RESP_CONN_INFO)
  401330:	2806      	cmp	r0, #6
  401332:	d111      	bne.n	401358 <m2m_wifi_cb+0x80>
	{
		tstrM2MConnInfo		strConnInfo;
		if(hif_receive(u32Addr, (uint8*)&strConnInfo, sizeof(tstrM2MConnInfo), 1) == M2M_SUCCESS)
  401334:	2301      	movs	r3, #1
  401336:	2230      	movs	r2, #48	; 0x30
  401338:	a903      	add	r1, sp, #12
  40133a:	4628      	mov	r0, r5
  40133c:	4c7b      	ldr	r4, [pc, #492]	; (40152c <m2m_wifi_cb+0x254>)
  40133e:	47a0      	blx	r4
  401340:	2800      	cmp	r0, #0
  401342:	f040 80f0 	bne.w	401526 <m2m_wifi_cb+0x24e>
		{
			if(gpfAppWifiCb)
  401346:	4b7a      	ldr	r3, [pc, #488]	; (401530 <m2m_wifi_cb+0x258>)
  401348:	681b      	ldr	r3, [r3, #0]
  40134a:	2b00      	cmp	r3, #0
  40134c:	f000 80eb 	beq.w	401526 <m2m_wifi_cb+0x24e>
				gpfAppWifiCb(M2M_WIFI_RESP_CONN_INFO, &strConnInfo);
  401350:	a903      	add	r1, sp, #12
  401352:	2006      	movs	r0, #6
  401354:	4798      	blx	r3
  401356:	e0e6      	b.n	401526 <m2m_wifi_cb+0x24e>
		}
	}
	else if (u8OpCode == M2M_WIFI_RESP_MEMORY_RECOVER)
  401358:	280e      	cmp	r0, #14
  40135a:	f000 80e4 	beq.w	401526 <m2m_wifi_cb+0x24e>
			if (app_wifi_recover_cb)
				app_wifi_recover_cb(strState.u8CurrState);
		}
#endif
	}
	else if (u8OpCode == M2M_WIFI_REQ_DHCP_CONF)
  40135e:	2832      	cmp	r0, #50	; 0x32
  401360:	d111      	bne.n	401386 <m2m_wifi_cb+0xae>
	{
		tstrM2MIPConfig strIpConfig;
		if (hif_receive(u32Addr, (uint8 *)&strIpConfig, sizeof(tstrM2MIPConfig), 0) == M2M_SUCCESS)
  401362:	2300      	movs	r3, #0
  401364:	2210      	movs	r2, #16
  401366:	a903      	add	r1, sp, #12
  401368:	4628      	mov	r0, r5
  40136a:	4c70      	ldr	r4, [pc, #448]	; (40152c <m2m_wifi_cb+0x254>)
  40136c:	47a0      	blx	r4
  40136e:	2800      	cmp	r0, #0
  401370:	f040 80d9 	bne.w	401526 <m2m_wifi_cb+0x24e>
		{
			if (gpfAppWifiCb)
  401374:	4b6e      	ldr	r3, [pc, #440]	; (401530 <m2m_wifi_cb+0x258>)
  401376:	681b      	ldr	r3, [r3, #0]
  401378:	2b00      	cmp	r3, #0
  40137a:	f000 80d4 	beq.w	401526 <m2m_wifi_cb+0x24e>
				gpfAppWifiCb(M2M_WIFI_REQ_DHCP_CONF, (uint8 *)&strIpConfig);
  40137e:	a903      	add	r1, sp, #12
  401380:	2032      	movs	r0, #50	; 0x32
  401382:	4798      	blx	r3
  401384:	e0cf      	b.n	401526 <m2m_wifi_cb+0x24e>
		}
	}
	else if (u8OpCode == M2M_WIFI_REQ_WPS)
  401386:	282f      	cmp	r0, #47	; 0x2f
  401388:	d116      	bne.n	4013b8 <m2m_wifi_cb+0xe0>
	{
		tstrM2MWPSInfo strWps;
		m2m_memset((uint8*)&strWps,0,sizeof(tstrM2MWPSInfo));
  40138a:	2264      	movs	r2, #100	; 0x64
  40138c:	2100      	movs	r1, #0
  40138e:	a803      	add	r0, sp, #12
  401390:	4b68      	ldr	r3, [pc, #416]	; (401534 <m2m_wifi_cb+0x25c>)
  401392:	4798      	blx	r3
		if(hif_receive(u32Addr, (uint8*)&strWps, sizeof(tstrM2MWPSInfo), 0) == M2M_SUCCESS)
  401394:	2300      	movs	r3, #0
  401396:	2264      	movs	r2, #100	; 0x64
  401398:	a903      	add	r1, sp, #12
  40139a:	4628      	mov	r0, r5
  40139c:	4c63      	ldr	r4, [pc, #396]	; (40152c <m2m_wifi_cb+0x254>)
  40139e:	47a0      	blx	r4
  4013a0:	2800      	cmp	r0, #0
  4013a2:	f040 80c0 	bne.w	401526 <m2m_wifi_cb+0x24e>
		{
			if (gpfAppWifiCb)
  4013a6:	4b62      	ldr	r3, [pc, #392]	; (401530 <m2m_wifi_cb+0x258>)
  4013a8:	681b      	ldr	r3, [r3, #0]
  4013aa:	2b00      	cmp	r3, #0
  4013ac:	f000 80bb 	beq.w	401526 <m2m_wifi_cb+0x24e>
				gpfAppWifiCb(M2M_WIFI_REQ_WPS, &strWps);
  4013b0:	a903      	add	r1, sp, #12
  4013b2:	202f      	movs	r0, #47	; 0x2f
  4013b4:	4798      	blx	r3
  4013b6:	e0b6      	b.n	401526 <m2m_wifi_cb+0x24e>
		}
	}
	else if (u8OpCode == M2M_WIFI_RESP_IP_CONFLICT)
  4013b8:	2834      	cmp	r0, #52	; 0x34
  4013ba:	d120      	bne.n	4013fe <m2m_wifi_cb+0x126>
	{
		uint32  u32ConflictedIP;
		if(hif_receive(u32Addr, (uint8 *)&u32ConflictedIP, sizeof(u32ConflictedIP), 0) == M2M_SUCCESS)
  4013bc:	2300      	movs	r3, #0
  4013be:	2204      	movs	r2, #4
  4013c0:	a903      	add	r1, sp, #12
  4013c2:	4628      	mov	r0, r5
  4013c4:	4c59      	ldr	r4, [pc, #356]	; (40152c <m2m_wifi_cb+0x254>)
  4013c6:	47a0      	blx	r4
  4013c8:	2800      	cmp	r0, #0
  4013ca:	f040 80ac 	bne.w	401526 <m2m_wifi_cb+0x24e>
		{
			M2M_INFO("Conflicted IP \" %u.%u.%u.%u \" \n", 
  4013ce:	485a      	ldr	r0, [pc, #360]	; (401538 <m2m_wifi_cb+0x260>)
  4013d0:	4c5a      	ldr	r4, [pc, #360]	; (40153c <m2m_wifi_cb+0x264>)
  4013d2:	47a0      	blx	r4
  4013d4:	9903      	ldr	r1, [sp, #12]
  4013d6:	0e0b      	lsrs	r3, r1, #24
  4013d8:	9300      	str	r3, [sp, #0]
  4013da:	f3c1 4307 	ubfx	r3, r1, #16, #8
  4013de:	f3c1 2207 	ubfx	r2, r1, #8, #8
  4013e2:	b2c9      	uxtb	r1, r1
  4013e4:	4856      	ldr	r0, [pc, #344]	; (401540 <m2m_wifi_cb+0x268>)
  4013e6:	47a0      	blx	r4
  4013e8:	4856      	ldr	r0, [pc, #344]	; (401544 <m2m_wifi_cb+0x26c>)
  4013ea:	47a0      	blx	r4
				BYTE_0(u32ConflictedIP),BYTE_1(u32ConflictedIP),BYTE_2(u32ConflictedIP),BYTE_3(u32ConflictedIP));
			if (gpfAppWifiCb)
  4013ec:	4b50      	ldr	r3, [pc, #320]	; (401530 <m2m_wifi_cb+0x258>)
  4013ee:	681b      	ldr	r3, [r3, #0]
  4013f0:	2b00      	cmp	r3, #0
  4013f2:	f000 8098 	beq.w	401526 <m2m_wifi_cb+0x24e>
				gpfAppWifiCb(M2M_WIFI_RESP_IP_CONFLICT, NULL);
  4013f6:	2100      	movs	r1, #0
  4013f8:	2034      	movs	r0, #52	; 0x34
  4013fa:	4798      	blx	r3
  4013fc:	e093      	b.n	401526 <m2m_wifi_cb+0x24e>

		}
	}
	else if (u8OpCode == M2M_WIFI_RESP_SCAN_DONE)
  4013fe:	2811      	cmp	r0, #17
  401400:	d116      	bne.n	401430 <m2m_wifi_cb+0x158>
	{
		tstrM2mScanDone strState;
		gu8scanInProgress = 0;
  401402:	2300      	movs	r3, #0
  401404:	4a50      	ldr	r2, [pc, #320]	; (401548 <m2m_wifi_cb+0x270>)
  401406:	7013      	strb	r3, [r2, #0]
		if(hif_receive(u32Addr, (uint8*)&strState, sizeof(tstrM2mScanDone), 0) == M2M_SUCCESS)
  401408:	2204      	movs	r2, #4
  40140a:	a903      	add	r1, sp, #12
  40140c:	4628      	mov	r0, r5
  40140e:	4c47      	ldr	r4, [pc, #284]	; (40152c <m2m_wifi_cb+0x254>)
  401410:	47a0      	blx	r4
  401412:	2800      	cmp	r0, #0
  401414:	f040 8087 	bne.w	401526 <m2m_wifi_cb+0x24e>
		{
			gu8ChNum = strState.u8NumofCh;
  401418:	f89d 200c 	ldrb.w	r2, [sp, #12]
  40141c:	4b4b      	ldr	r3, [pc, #300]	; (40154c <m2m_wifi_cb+0x274>)
  40141e:	701a      	strb	r2, [r3, #0]
			if (gpfAppWifiCb)
  401420:	4b43      	ldr	r3, [pc, #268]	; (401530 <m2m_wifi_cb+0x258>)
  401422:	681b      	ldr	r3, [r3, #0]
  401424:	2b00      	cmp	r3, #0
  401426:	d07e      	beq.n	401526 <m2m_wifi_cb+0x24e>
				gpfAppWifiCb(M2M_WIFI_RESP_SCAN_DONE, &strState);
  401428:	a903      	add	r1, sp, #12
  40142a:	2011      	movs	r0, #17
  40142c:	4798      	blx	r3
  40142e:	e07a      	b.n	401526 <m2m_wifi_cb+0x24e>
		}
	}
	else if (u8OpCode == M2M_WIFI_RESP_SCAN_RESULT)
  401430:	2813      	cmp	r0, #19
  401432:	d10f      	bne.n	401454 <m2m_wifi_cb+0x17c>
	{
		tstrM2mWifiscanResult strScanResult;
		if(hif_receive(u32Addr, (uint8*)&strScanResult, sizeof(tstrM2mWifiscanResult), 0) == M2M_SUCCESS)
  401434:	2300      	movs	r3, #0
  401436:	222c      	movs	r2, #44	; 0x2c
  401438:	a903      	add	r1, sp, #12
  40143a:	4628      	mov	r0, r5
  40143c:	4c3b      	ldr	r4, [pc, #236]	; (40152c <m2m_wifi_cb+0x254>)
  40143e:	47a0      	blx	r4
  401440:	2800      	cmp	r0, #0
  401442:	d170      	bne.n	401526 <m2m_wifi_cb+0x24e>
		{
			if (gpfAppWifiCb)
  401444:	4b3a      	ldr	r3, [pc, #232]	; (401530 <m2m_wifi_cb+0x258>)
  401446:	681b      	ldr	r3, [r3, #0]
  401448:	2b00      	cmp	r3, #0
  40144a:	d06c      	beq.n	401526 <m2m_wifi_cb+0x24e>
				gpfAppWifiCb(M2M_WIFI_RESP_SCAN_RESULT, &strScanResult);
  40144c:	a903      	add	r1, sp, #12
  40144e:	2013      	movs	r0, #19
  401450:	4798      	blx	r3
  401452:	e068      	b.n	401526 <m2m_wifi_cb+0x24e>
		}
	}
	else if (u8OpCode == M2M_WIFI_RESP_CURRENT_RSSI)
  401454:	2804      	cmp	r0, #4
  401456:	d10f      	bne.n	401478 <m2m_wifi_cb+0x1a0>
	{
		if (hif_receive(u32Addr, rx_buf, 4, 0) == M2M_SUCCESS)
  401458:	2300      	movs	r3, #0
  40145a:	2204      	movs	r2, #4
  40145c:	a91c      	add	r1, sp, #112	; 0x70
  40145e:	4628      	mov	r0, r5
  401460:	4c32      	ldr	r4, [pc, #200]	; (40152c <m2m_wifi_cb+0x254>)
  401462:	47a0      	blx	r4
  401464:	2800      	cmp	r0, #0
  401466:	d15e      	bne.n	401526 <m2m_wifi_cb+0x24e>
		{
			if (gpfAppWifiCb)
  401468:	4b31      	ldr	r3, [pc, #196]	; (401530 <m2m_wifi_cb+0x258>)
  40146a:	681b      	ldr	r3, [r3, #0]
  40146c:	2b00      	cmp	r3, #0
  40146e:	d05a      	beq.n	401526 <m2m_wifi_cb+0x24e>
				gpfAppWifiCb(M2M_WIFI_RESP_CURRENT_RSSI, rx_buf);
  401470:	a91c      	add	r1, sp, #112	; 0x70
  401472:	2004      	movs	r0, #4
  401474:	4798      	blx	r3
  401476:	e056      	b.n	401526 <m2m_wifi_cb+0x24e>
		}
	}
	else if (u8OpCode == M2M_WIFI_RESP_CLIENT_INFO)
  401478:	2865      	cmp	r0, #101	; 0x65
  40147a:	d10f      	bne.n	40149c <m2m_wifi_cb+0x1c4>
	{
		if (hif_receive(u32Addr, rx_buf, 4, 0) == M2M_SUCCESS)
  40147c:	2300      	movs	r3, #0
  40147e:	2204      	movs	r2, #4
  401480:	a91c      	add	r1, sp, #112	; 0x70
  401482:	4628      	mov	r0, r5
  401484:	4c29      	ldr	r4, [pc, #164]	; (40152c <m2m_wifi_cb+0x254>)
  401486:	47a0      	blx	r4
  401488:	2800      	cmp	r0, #0
  40148a:	d14c      	bne.n	401526 <m2m_wifi_cb+0x24e>
		{
			if (gpfAppWifiCb)
  40148c:	4b28      	ldr	r3, [pc, #160]	; (401530 <m2m_wifi_cb+0x258>)
  40148e:	681b      	ldr	r3, [r3, #0]
  401490:	2b00      	cmp	r3, #0
  401492:	d048      	beq.n	401526 <m2m_wifi_cb+0x24e>
				gpfAppWifiCb(M2M_WIFI_RESP_CLIENT_INFO, rx_buf);
  401494:	a91c      	add	r1, sp, #112	; 0x70
  401496:	2065      	movs	r0, #101	; 0x65
  401498:	4798      	blx	r3
  40149a:	e044      	b.n	401526 <m2m_wifi_cb+0x24e>
		}
	}
	else if(u8OpCode == M2M_WIFI_RESP_PROVISION_INFO)
  40149c:	2809      	cmp	r0, #9
  40149e:	d10f      	bne.n	4014c0 <m2m_wifi_cb+0x1e8>
	{
		tstrM2MProvisionInfo	strProvInfo;
		if(hif_receive(u32Addr, (uint8*)&strProvInfo, sizeof(tstrM2MProvisionInfo), 1) == M2M_SUCCESS)
  4014a0:	2301      	movs	r3, #1
  4014a2:	2264      	movs	r2, #100	; 0x64
  4014a4:	a903      	add	r1, sp, #12
  4014a6:	4628      	mov	r0, r5
  4014a8:	4c20      	ldr	r4, [pc, #128]	; (40152c <m2m_wifi_cb+0x254>)
  4014aa:	47a0      	blx	r4
  4014ac:	2800      	cmp	r0, #0
  4014ae:	d13a      	bne.n	401526 <m2m_wifi_cb+0x24e>
		{
			if(gpfAppWifiCb)
  4014b0:	4b1f      	ldr	r3, [pc, #124]	; (401530 <m2m_wifi_cb+0x258>)
  4014b2:	681b      	ldr	r3, [r3, #0]
  4014b4:	2b00      	cmp	r3, #0
  4014b6:	d036      	beq.n	401526 <m2m_wifi_cb+0x24e>
				gpfAppWifiCb(M2M_WIFI_RESP_PROVISION_INFO, &strProvInfo);
  4014b8:	a903      	add	r1, sp, #12
  4014ba:	2009      	movs	r0, #9
  4014bc:	4798      	blx	r3
  4014be:	e032      	b.n	401526 <m2m_wifi_cb+0x24e>
		}
	}
	else if(u8OpCode == M2M_WIFI_RESP_DEFAULT_CONNECT)
  4014c0:	282a      	cmp	r0, #42	; 0x2a
  4014c2:	d10d      	bne.n	4014e0 <m2m_wifi_cb+0x208>
	{
		tstrM2MDefaultConnResp	strResp;
		if(hif_receive(u32Addr, (uint8*)&strResp, sizeof(tstrM2MDefaultConnResp), 1) == M2M_SUCCESS)
  4014c4:	2301      	movs	r3, #1
  4014c6:	2204      	movs	r2, #4
  4014c8:	a903      	add	r1, sp, #12
  4014ca:	4628      	mov	r0, r5
  4014cc:	4c17      	ldr	r4, [pc, #92]	; (40152c <m2m_wifi_cb+0x254>)
  4014ce:	47a0      	blx	r4
  4014d0:	bb48      	cbnz	r0, 401526 <m2m_wifi_cb+0x24e>
		{
			if(gpfAppWifiCb)
  4014d2:	4b17      	ldr	r3, [pc, #92]	; (401530 <m2m_wifi_cb+0x258>)
  4014d4:	681b      	ldr	r3, [r3, #0]
  4014d6:	b333      	cbz	r3, 401526 <m2m_wifi_cb+0x24e>
				gpfAppWifiCb(M2M_WIFI_RESP_DEFAULT_CONNECT, &strResp);
  4014d8:	a903      	add	r1, sp, #12
  4014da:	202a      	movs	r0, #42	; 0x2a
  4014dc:	4798      	blx	r3
  4014de:	e022      	b.n	401526 <m2m_wifi_cb+0x24e>
		}
	}
	
	else if(u8OpCode == M2M_WIFI_RESP_GET_PRNG)
  4014e0:	2820      	cmp	r0, #32
  4014e2:	d115      	bne.n	401510 <m2m_wifi_cb+0x238>
	{
		tstrPrng strPrng;
		if(hif_receive(u32Addr, (uint8*)&strPrng,sizeof(tstrPrng), 0) == M2M_SUCCESS)
  4014e4:	2300      	movs	r3, #0
  4014e6:	2208      	movs	r2, #8
  4014e8:	a903      	add	r1, sp, #12
  4014ea:	4628      	mov	r0, r5
  4014ec:	4c0f      	ldr	r4, [pc, #60]	; (40152c <m2m_wifi_cb+0x254>)
  4014ee:	47a0      	blx	r4
  4014f0:	b9c8      	cbnz	r0, 401526 <m2m_wifi_cb+0x24e>
		{
			if(hif_receive(u32Addr + sizeof(tstrPrng),strPrng.pu8RngBuff,strPrng.u16PrngSize, 1) == M2M_SUCCESS)
  4014f2:	2301      	movs	r3, #1
  4014f4:	f8bd 2010 	ldrh.w	r2, [sp, #16]
  4014f8:	9903      	ldr	r1, [sp, #12]
  4014fa:	f105 0008 	add.w	r0, r5, #8
  4014fe:	47a0      	blx	r4
  401500:	b988      	cbnz	r0, 401526 <m2m_wifi_cb+0x24e>
			{
				if(gpfAppWifiCb)
  401502:	4b0b      	ldr	r3, [pc, #44]	; (401530 <m2m_wifi_cb+0x258>)
  401504:	681b      	ldr	r3, [r3, #0]
  401506:	b173      	cbz	r3, 401526 <m2m_wifi_cb+0x24e>
					gpfAppWifiCb(M2M_WIFI_RESP_GET_PRNG,&strPrng);
  401508:	a903      	add	r1, sp, #12
  40150a:	2020      	movs	r0, #32
  40150c:	4798      	blx	r3
  40150e:	e00a      	b.n	401526 <m2m_wifi_cb+0x24e>
		}
	}
#endif
	else
	{
		M2M_ERR("REQ Not defined %d\n",u8OpCode);
  401510:	f44f 7295 	mov.w	r2, #298	; 0x12a
  401514:	490e      	ldr	r1, [pc, #56]	; (401550 <m2m_wifi_cb+0x278>)
  401516:	480f      	ldr	r0, [pc, #60]	; (401554 <m2m_wifi_cb+0x27c>)
  401518:	4d08      	ldr	r5, [pc, #32]	; (40153c <m2m_wifi_cb+0x264>)
  40151a:	47a8      	blx	r5
  40151c:	4621      	mov	r1, r4
  40151e:	480e      	ldr	r0, [pc, #56]	; (401558 <m2m_wifi_cb+0x280>)
  401520:	47a8      	blx	r5
  401522:	4808      	ldr	r0, [pc, #32]	; (401544 <m2m_wifi_cb+0x26c>)
  401524:	47a8      	blx	r5
	}
}
  401526:	b01f      	add	sp, #124	; 0x7c
  401528:	bd30      	pop	{r4, r5, pc}
  40152a:	bf00      	nop
  40152c:	004010e9 	.word	0x004010e9
  401530:	204008cc 	.word	0x204008cc
  401534:	00400a8d 	.word	0x00400a8d
  401538:	004083cc 	.word	0x004083cc
  40153c:	004046b5 	.word	0x004046b5
  401540:	004083d8 	.word	0x004083d8
  401544:	00408134 	.word	0x00408134
  401548:	204008d0 	.word	0x204008d0
  40154c:	204008d1 	.word	0x204008d1
  401550:	004083c0 	.word	0x004083c0
  401554:	00408108 	.word	0x00408108
  401558:	004083f8 	.word	0x004083f8

0040155c <m2m_wifi_init>:
	}	
	return s8Ret;
}

sint8 m2m_wifi_init(tstrWifiInitParam * param)
{
  40155c:	b5f0      	push	{r4, r5, r6, r7, lr}
  40155e:	b08b      	sub	sp, #44	; 0x2c
	tstrM2mRev strtmp;
	sint8 ret = M2M_SUCCESS;
	uint8 u8WifiMode = M2M_WIFI_MODE_NORMAL;
  401560:	2301      	movs	r3, #1
  401562:	f88d 3007 	strb.w	r3, [sp, #7]
	
	if(param == NULL) {
  401566:	2800      	cmp	r0, #0
  401568:	d04e      	beq.n	401608 <m2m_wifi_init+0xac>
		ret = M2M_ERR_FAIL;
		goto _EXIT0;
	}
	
	gpfAppWifiCb = param->pfAppWifiCb;
  40156a:	6802      	ldr	r2, [r0, #0]
  40156c:	4b29      	ldr	r3, [pc, #164]	; (401614 <m2m_wifi_init+0xb8>)
  40156e:	601a      	str	r2, [r3, #0]
#endif /* ETH_MODE */

#ifdef CONF_MGMT
	gpfAppMonCb  = param->pfAppMonCb;
#endif
	gu8scanInProgress = 0;
  401570:	2200      	movs	r2, #0
  401572:	4b29      	ldr	r3, [pc, #164]	; (401618 <m2m_wifi_init+0xbc>)
  401574:	701a      	strb	r2, [r3, #0]
	/* Apply device specific initialization. */
	ret = nm_drv_init(&u8WifiMode);
  401576:	f10d 0007 	add.w	r0, sp, #7
  40157a:	4b28      	ldr	r3, [pc, #160]	; (40161c <m2m_wifi_init+0xc0>)
  40157c:	4798      	blx	r3
	if(ret != M2M_SUCCESS) 	goto _EXIT0;
  40157e:	4604      	mov	r4, r0
  401580:	2800      	cmp	r0, #0
  401582:	d143      	bne.n	40160c <m2m_wifi_init+0xb0>
	/* Initialize host interface module */
	ret = hif_init(NULL);
  401584:	4b26      	ldr	r3, [pc, #152]	; (401620 <m2m_wifi_init+0xc4>)
  401586:	4798      	blx	r3
	if(ret != M2M_SUCCESS) 	goto _EXIT1;
  401588:	4604      	mov	r4, r0
  40158a:	2800      	cmp	r0, #0
  40158c:	d138      	bne.n	401600 <m2m_wifi_init+0xa4>

	hif_register_cb(M2M_REQ_GROUP_WIFI,m2m_wifi_cb);
  40158e:	4925      	ldr	r1, [pc, #148]	; (401624 <m2m_wifi_init+0xc8>)
  401590:	2001      	movs	r0, #1
  401592:	4b25      	ldr	r3, [pc, #148]	; (401628 <m2m_wifi_init+0xcc>)
  401594:	4798      	blx	r3

	ret = nm_get_firmware_info(&strtmp);
  401596:	a802      	add	r0, sp, #8
  401598:	4b24      	ldr	r3, [pc, #144]	; (40162c <m2m_wifi_init+0xd0>)
  40159a:	4798      	blx	r3
  40159c:	4604      	mov	r4, r0

	M2M_INFO("Firmware ver   : %u.%u.%u\n", strtmp.u8FirmwareMajor, strtmp.u8FirmwareMinor, strtmp.u8FirmwarePatch);
  40159e:	4f24      	ldr	r7, [pc, #144]	; (401630 <m2m_wifi_init+0xd4>)
  4015a0:	4638      	mov	r0, r7
  4015a2:	4d24      	ldr	r5, [pc, #144]	; (401634 <m2m_wifi_init+0xd8>)
  4015a4:	47a8      	blx	r5
  4015a6:	f89d 300e 	ldrb.w	r3, [sp, #14]
  4015aa:	f89d 200d 	ldrb.w	r2, [sp, #13]
  4015ae:	f89d 100c 	ldrb.w	r1, [sp, #12]
  4015b2:	4821      	ldr	r0, [pc, #132]	; (401638 <m2m_wifi_init+0xdc>)
  4015b4:	47a8      	blx	r5
  4015b6:	4e21      	ldr	r6, [pc, #132]	; (40163c <m2m_wifi_init+0xe0>)
  4015b8:	4630      	mov	r0, r6
  4015ba:	47a8      	blx	r5
	M2M_INFO("Min driver ver : %u.%u.%u\n", strtmp.u8DriverMajor, strtmp.u8DriverMinor, strtmp.u8DriverPatch);
  4015bc:	4638      	mov	r0, r7
  4015be:	47a8      	blx	r5
  4015c0:	f89d 3011 	ldrb.w	r3, [sp, #17]
  4015c4:	f89d 2010 	ldrb.w	r2, [sp, #16]
  4015c8:	f89d 100f 	ldrb.w	r1, [sp, #15]
  4015cc:	481c      	ldr	r0, [pc, #112]	; (401640 <m2m_wifi_init+0xe4>)
  4015ce:	47a8      	blx	r5
  4015d0:	4630      	mov	r0, r6
  4015d2:	47a8      	blx	r5
	M2M_INFO("Curr driver ver: %u.%u.%u\n", M2M_DRIVER_VERSION_MAJOR_NO, M2M_DRIVER_VERSION_MINOR_NO, M2M_DRIVER_VERSION_PATCH_NO);
  4015d4:	4638      	mov	r0, r7
  4015d6:	47a8      	blx	r5
  4015d8:	2300      	movs	r3, #0
  4015da:	2203      	movs	r2, #3
  4015dc:	2113      	movs	r1, #19
  4015de:	4819      	ldr	r0, [pc, #100]	; (401644 <m2m_wifi_init+0xe8>)
  4015e0:	47a8      	blx	r5
  4015e2:	4630      	mov	r0, r6
  4015e4:	47a8      	blx	r5
	if(M2M_ERR_FW_VER_MISMATCH == ret)
  4015e6:	f114 0f0d 	cmn.w	r4, #13
  4015ea:	d10f      	bne.n	40160c <m2m_wifi_init+0xb0>
	{
		M2M_ERR("Mismatch Firmawre Version\n");
  4015ec:	f240 12d5 	movw	r2, #469	; 0x1d5
  4015f0:	4915      	ldr	r1, [pc, #84]	; (401648 <m2m_wifi_init+0xec>)
  4015f2:	4816      	ldr	r0, [pc, #88]	; (40164c <m2m_wifi_init+0xf0>)
  4015f4:	47a8      	blx	r5
  4015f6:	4816      	ldr	r0, [pc, #88]	; (401650 <m2m_wifi_init+0xf4>)
  4015f8:	47a8      	blx	r5
  4015fa:	4630      	mov	r0, r6
  4015fc:	47a8      	blx	r5
  4015fe:	e005      	b.n	40160c <m2m_wifi_init+0xb0>
	}

	goto _EXIT0;

_EXIT1:
	nm_drv_deinit(NULL);
  401600:	2000      	movs	r0, #0
  401602:	4b14      	ldr	r3, [pc, #80]	; (401654 <m2m_wifi_init+0xf8>)
  401604:	4798      	blx	r3
  401606:	e001      	b.n	40160c <m2m_wifi_init+0xb0>
	tstrM2mRev strtmp;
	sint8 ret = M2M_SUCCESS;
	uint8 u8WifiMode = M2M_WIFI_MODE_NORMAL;
	
	if(param == NULL) {
		ret = M2M_ERR_FAIL;
  401608:	f06f 040b 	mvn.w	r4, #11

_EXIT1:
	nm_drv_deinit(NULL);
_EXIT0:
	return ret;
}
  40160c:	4620      	mov	r0, r4
  40160e:	b00b      	add	sp, #44	; 0x2c
  401610:	bdf0      	pop	{r4, r5, r6, r7, pc}
  401612:	bf00      	nop
  401614:	204008cc 	.word	0x204008cc
  401618:	204008d0 	.word	0x204008d0
  40161c:	00401f19 	.word	0x00401f19
  401620:	00401289 	.word	0x00401289
  401624:	004012d9 	.word	0x004012d9
  401628:	004011f9 	.word	0x004011f9
  40162c:	00401e6d 	.word	0x00401e6d
  401630:	004083cc 	.word	0x004083cc
  401634:	004046b5 	.word	0x004046b5
  401638:	004084b0 	.word	0x004084b0
  40163c:	00408134 	.word	0x00408134
  401640:	004084cc 	.word	0x004084cc
  401644:	004084e8 	.word	0x004084e8
  401648:	004086f4 	.word	0x004086f4
  40164c:	00408108 	.word	0x00408108
  401650:	00408504 	.word	0x00408504
  401654:	00401fe1 	.word	0x00401fe1

00401658 <m2m_wifi_handle_events>:
	return M2M_SUCCESS;
}


sint8 m2m_wifi_handle_events(void * arg)
{
  401658:	b508      	push	{r3, lr}
	return hif_handle_isr();
  40165a:	4b01      	ldr	r3, [pc, #4]	; (401660 <m2m_wifi_handle_events+0x8>)
  40165c:	4798      	blx	r3
}
  40165e:	bd08      	pop	{r3, pc}
  401660:	00400dc9 	.word	0x00400dc9

00401664 <m2m_wifi_connect_sc>:
sint8 m2m_wifi_connect(char *pcSsid, uint8 u8SsidLen, uint8 u8SecType, void *pvAuthInfo, uint16 u16Ch)
{
	return m2m_wifi_connect_sc(pcSsid, u8SsidLen, u8SecType, pvAuthInfo,  u16Ch,0);
}
sint8 m2m_wifi_connect_sc(char *pcSsid, uint8 u8SsidLen, uint8 u8SecType, void *pvAuthInfo, uint16 u16Ch, uint8 u8NoSaveCred)
{
  401664:	e92d 41f0 	stmdb	sp!, {r4, r5, r6, r7, r8, lr}
  401668:	b0a0      	sub	sp, #128	; 0x80
  40166a:	4680      	mov	r8, r0
  40166c:	460d      	mov	r5, r1
  40166e:	4614      	mov	r4, r2
  401670:	461e      	mov	r6, r3
  401672:	f8bd 7098 	ldrh.w	r7, [sp, #152]	; 0x98
	sint8				ret = M2M_SUCCESS;
	tstrM2mWifiConnect	strConnect;
	tstrM2MWifiSecInfo	*pstrAuthInfo;

	if(u8SecType != M2M_WIFI_SEC_OPEN)
  401676:	2a01      	cmp	r2, #1
  401678:	d045      	beq.n	401706 <m2m_wifi_connect_sc+0xa2>
	{
		if(pvAuthInfo == NULL)
  40167a:	b963      	cbnz	r3, 401696 <m2m_wifi_connect_sc+0x32>
		{
			M2M_ERR("Key is not valid\n");
  40167c:	f240 2203 	movw	r2, #515	; 0x203
  401680:	497a      	ldr	r1, [pc, #488]	; (40186c <m2m_wifi_connect_sc+0x208>)
  401682:	487b      	ldr	r0, [pc, #492]	; (401870 <m2m_wifi_connect_sc+0x20c>)
  401684:	4c7b      	ldr	r4, [pc, #492]	; (401874 <m2m_wifi_connect_sc+0x210>)
  401686:	47a0      	blx	r4
  401688:	487b      	ldr	r0, [pc, #492]	; (401878 <m2m_wifi_connect_sc+0x214>)
  40168a:	47a0      	blx	r4
  40168c:	487b      	ldr	r0, [pc, #492]	; (40187c <m2m_wifi_connect_sc+0x218>)
  40168e:	47a0      	blx	r4
			ret = M2M_ERR_FAIL;
  401690:	f06f 000b 	mvn.w	r0, #11
			goto ERR1;
  401694:	e0e7      	b.n	401866 <m2m_wifi_connect_sc+0x202>
		}
		if((u8SecType == M2M_WIFI_SEC_WPA_PSK) && (m2m_strlen(pvAuthInfo) == (M2M_MAX_PSK_LEN-1)))
  401696:	2a02      	cmp	r2, #2
  401698:	d135      	bne.n	401706 <m2m_wifi_connect_sc+0xa2>
  40169a:	4618      	mov	r0, r3
  40169c:	4b78      	ldr	r3, [pc, #480]	; (401880 <m2m_wifi_connect_sc+0x21c>)
  40169e:	4798      	blx	r3
  4016a0:	2840      	cmp	r0, #64	; 0x40
  4016a2:	d130      	bne.n	401706 <m2m_wifi_connect_sc+0xa2>
		{
			uint8 i = 0;
			uint8* pu8Psk = (uint8*)pvAuthInfo;
			while(i < (M2M_MAX_PSK_LEN-1))
			{
				if(pu8Psk[i]<'0' || (pu8Psk[i]>'9' && pu8Psk[i] < 'A')|| (pu8Psk[i]>'F' && pu8Psk[i] < 'a') || pu8Psk[i] > 'f')
  4016a4:	7833      	ldrb	r3, [r6, #0]
  4016a6:	f1a3 0230 	sub.w	r2, r3, #48	; 0x30
  4016aa:	b2d2      	uxtb	r2, r2
  4016ac:	2a36      	cmp	r2, #54	; 0x36
  4016ae:	d81b      	bhi.n	4016e8 <m2m_wifi_connect_sc+0x84>
  4016b0:	f1a3 023a 	sub.w	r2, r3, #58	; 0x3a
  4016b4:	b2d2      	uxtb	r2, r2
  4016b6:	2a06      	cmp	r2, #6
  4016b8:	d916      	bls.n	4016e8 <m2m_wifi_connect_sc+0x84>
  4016ba:	3b47      	subs	r3, #71	; 0x47
  4016bc:	b2db      	uxtb	r3, r3
  4016be:	2b19      	cmp	r3, #25
  4016c0:	d912      	bls.n	4016e8 <m2m_wifi_connect_sc+0x84>
  4016c2:	4631      	mov	r1, r6
  4016c4:	f106 003f 	add.w	r0, r6, #63	; 0x3f
  4016c8:	f811 3f01 	ldrb.w	r3, [r1, #1]!
  4016cc:	f1a3 023a 	sub.w	r2, r3, #58	; 0x3a
  4016d0:	b2d2      	uxtb	r2, r2
  4016d2:	2a06      	cmp	r2, #6
  4016d4:	d908      	bls.n	4016e8 <m2m_wifi_connect_sc+0x84>
  4016d6:	f1a3 0230 	sub.w	r2, r3, #48	; 0x30
  4016da:	b2d2      	uxtb	r2, r2
  4016dc:	2a36      	cmp	r2, #54	; 0x36
  4016de:	d803      	bhi.n	4016e8 <m2m_wifi_connect_sc+0x84>
  4016e0:	3b47      	subs	r3, #71	; 0x47
  4016e2:	b2db      	uxtb	r3, r3
  4016e4:	2b19      	cmp	r3, #25
  4016e6:	d80c      	bhi.n	401702 <m2m_wifi_connect_sc+0x9e>
				{
					M2M_ERR("Invalid Key\n");
  4016e8:	f240 220f 	movw	r2, #527	; 0x20f
  4016ec:	495f      	ldr	r1, [pc, #380]	; (40186c <m2m_wifi_connect_sc+0x208>)
  4016ee:	4860      	ldr	r0, [pc, #384]	; (401870 <m2m_wifi_connect_sc+0x20c>)
  4016f0:	4c60      	ldr	r4, [pc, #384]	; (401874 <m2m_wifi_connect_sc+0x210>)
  4016f2:	47a0      	blx	r4
  4016f4:	4863      	ldr	r0, [pc, #396]	; (401884 <m2m_wifi_connect_sc+0x220>)
  4016f6:	47a0      	blx	r4
  4016f8:	4860      	ldr	r0, [pc, #384]	; (40187c <m2m_wifi_connect_sc+0x218>)
  4016fa:	47a0      	blx	r4
					ret = M2M_ERR_FAIL;
  4016fc:	f06f 000b 	mvn.w	r0, #11
					goto ERR1;
  401700:	e0b1      	b.n	401866 <m2m_wifi_connect_sc+0x202>
		}
		if((u8SecType == M2M_WIFI_SEC_WPA_PSK) && (m2m_strlen(pvAuthInfo) == (M2M_MAX_PSK_LEN-1)))
		{
			uint8 i = 0;
			uint8* pu8Psk = (uint8*)pvAuthInfo;
			while(i < (M2M_MAX_PSK_LEN-1))
  401702:	4288      	cmp	r0, r1
  401704:	d1e0      	bne.n	4016c8 <m2m_wifi_connect_sc+0x64>
				}
				i++;
			}
		}
	}
	if((u8SsidLen<=0)||(u8SsidLen>=M2M_MAX_SSID_LEN))
  401706:	1e6b      	subs	r3, r5, #1
  401708:	b2db      	uxtb	r3, r3
  40170a:	2b1f      	cmp	r3, #31
  40170c:	d90c      	bls.n	401728 <m2m_wifi_connect_sc+0xc4>
	{
		M2M_ERR("SSID LEN INVALID\n");
  40170e:	f240 2219 	movw	r2, #537	; 0x219
  401712:	4956      	ldr	r1, [pc, #344]	; (40186c <m2m_wifi_connect_sc+0x208>)
  401714:	4856      	ldr	r0, [pc, #344]	; (401870 <m2m_wifi_connect_sc+0x20c>)
  401716:	4c57      	ldr	r4, [pc, #348]	; (401874 <m2m_wifi_connect_sc+0x210>)
  401718:	47a0      	blx	r4
  40171a:	485b      	ldr	r0, [pc, #364]	; (401888 <m2m_wifi_connect_sc+0x224>)
  40171c:	47a0      	blx	r4
  40171e:	4857      	ldr	r0, [pc, #348]	; (40187c <m2m_wifi_connect_sc+0x218>)
  401720:	47a0      	blx	r4
		ret = M2M_ERR_FAIL;
  401722:	f06f 000b 	mvn.w	r0, #11
		goto ERR1;
  401726:	e09e      	b.n	401866 <m2m_wifi_connect_sc+0x202>
	}

	if(u16Ch>M2M_WIFI_CH_14)
	{
		if(u16Ch!=M2M_WIFI_CH_ALL)
  401728:	2fff      	cmp	r7, #255	; 0xff
  40172a:	d00e      	beq.n	40174a <m2m_wifi_connect_sc+0xe6>
  40172c:	2f0d      	cmp	r7, #13
  40172e:	d90c      	bls.n	40174a <m2m_wifi_connect_sc+0xe6>
		{
			M2M_ERR("CH INVALID\n");
  401730:	f240 2222 	movw	r2, #546	; 0x222
  401734:	494d      	ldr	r1, [pc, #308]	; (40186c <m2m_wifi_connect_sc+0x208>)
  401736:	484e      	ldr	r0, [pc, #312]	; (401870 <m2m_wifi_connect_sc+0x20c>)
  401738:	4c4e      	ldr	r4, [pc, #312]	; (401874 <m2m_wifi_connect_sc+0x210>)
  40173a:	47a0      	blx	r4
  40173c:	4853      	ldr	r0, [pc, #332]	; (40188c <m2m_wifi_connect_sc+0x228>)
  40173e:	47a0      	blx	r4
  401740:	484e      	ldr	r0, [pc, #312]	; (40187c <m2m_wifi_connect_sc+0x218>)
  401742:	47a0      	blx	r4
			ret = M2M_ERR_FAIL;
  401744:	f06f 000b 	mvn.w	r0, #11
			goto ERR1;
  401748:	e08d      	b.n	401866 <m2m_wifi_connect_sc+0x202>
		}
	}


	m2m_memcpy(strConnect.au8SSID, (uint8*)pcSsid, u8SsidLen);
  40174a:	462a      	mov	r2, r5
  40174c:	4641      	mov	r1, r8
  40174e:	f10d 005a 	add.w	r0, sp, #90	; 0x5a
  401752:	4b4f      	ldr	r3, [pc, #316]	; (401890 <m2m_wifi_connect_sc+0x22c>)
  401754:	4798      	blx	r3
	strConnect.au8SSID[u8SsidLen]	= 0;
  401756:	ab20      	add	r3, sp, #128	; 0x80
  401758:	441d      	add	r5, r3
  40175a:	2300      	movs	r3, #0
  40175c:	f805 3c26 	strb.w	r3, [r5, #-38]
	strConnect.u16Ch				= NM_BSP_B_L_16(u16Ch);
  401760:	f8ad 7058 	strh.w	r7, [sp, #88]	; 0x58
	/* Credentials will be Not be saved if u8NoSaveCred is set */ 
	strConnect.u8NoSaveCred 			= u8NoSaveCred ? 1:0;
  401764:	f89d 309c 	ldrb.w	r3, [sp, #156]	; 0x9c
  401768:	3300      	adds	r3, #0
  40176a:	bf18      	it	ne
  40176c:	2301      	movne	r3, #1
  40176e:	f88d 307b 	strb.w	r3, [sp, #123]	; 0x7b
	pstrAuthInfo = &strConnect.strSec;
	pstrAuthInfo->u8SecType		= u8SecType;
  401772:	f88d 4055 	strb.w	r4, [sp, #85]	; 0x55

	if(u8SecType == M2M_WIFI_SEC_WEP)
  401776:	2c03      	cmp	r4, #3
  401778:	d138      	bne.n	4017ec <m2m_wifi_connect_sc+0x188>
	{
		tstrM2mWifiWepParams	* pstrWepParams = (tstrM2mWifiWepParams*)pvAuthInfo;
		tstrM2mWifiWepParams	*pstrWep = &pstrAuthInfo->uniAuth.strWepInfo;
		pstrWep->u8KeyIndx =pstrWepParams->u8KeyIndx-1;
  40177a:	7833      	ldrb	r3, [r6, #0]
  40177c:	3b01      	subs	r3, #1
  40177e:	b2db      	uxtb	r3, r3
  401780:	f88d 3014 	strb.w	r3, [sp, #20]

		if(pstrWep->u8KeyIndx >= WEP_KEY_MAX_INDEX)
  401784:	2b03      	cmp	r3, #3
  401786:	d90e      	bls.n	4017a6 <m2m_wifi_connect_sc+0x142>
		{
			M2M_ERR("Invalid Wep key index %d\n", pstrWep->u8KeyIndx);
  401788:	f240 2239 	movw	r2, #569	; 0x239
  40178c:	4937      	ldr	r1, [pc, #220]	; (40186c <m2m_wifi_connect_sc+0x208>)
  40178e:	4838      	ldr	r0, [pc, #224]	; (401870 <m2m_wifi_connect_sc+0x20c>)
  401790:	4c38      	ldr	r4, [pc, #224]	; (401874 <m2m_wifi_connect_sc+0x210>)
  401792:	47a0      	blx	r4
  401794:	f89d 1014 	ldrb.w	r1, [sp, #20]
  401798:	483e      	ldr	r0, [pc, #248]	; (401894 <m2m_wifi_connect_sc+0x230>)
  40179a:	47a0      	blx	r4
  40179c:	4837      	ldr	r0, [pc, #220]	; (40187c <m2m_wifi_connect_sc+0x218>)
  40179e:	47a0      	blx	r4
			ret = M2M_ERR_FAIL;
  4017a0:	f06f 000b 	mvn.w	r0, #11
			goto ERR1;
  4017a4:	e05f      	b.n	401866 <m2m_wifi_connect_sc+0x202>
		}
		pstrWep->u8KeySz = pstrWepParams->u8KeySz-1;
  4017a6:	7872      	ldrb	r2, [r6, #1]
  4017a8:	1e53      	subs	r3, r2, #1
  4017aa:	f88d 3015 	strb.w	r3, [sp, #21]
		if ((pstrWep->u8KeySz != WEP_40_KEY_STRING_SIZE)&& (pstrWep->u8KeySz != WEP_104_KEY_STRING_SIZE))
  4017ae:	f002 03ef 	and.w	r3, r2, #239	; 0xef
  4017b2:	2b0b      	cmp	r3, #11
  4017b4:	d00e      	beq.n	4017d4 <m2m_wifi_connect_sc+0x170>
		{
			M2M_ERR("Invalid Wep key length %d\n", pstrWep->u8KeySz);
  4017b6:	f44f 7210 	mov.w	r2, #576	; 0x240
  4017ba:	492c      	ldr	r1, [pc, #176]	; (40186c <m2m_wifi_connect_sc+0x208>)
  4017bc:	482c      	ldr	r0, [pc, #176]	; (401870 <m2m_wifi_connect_sc+0x20c>)
  4017be:	4c2d      	ldr	r4, [pc, #180]	; (401874 <m2m_wifi_connect_sc+0x210>)
  4017c0:	47a0      	blx	r4
  4017c2:	f89d 1015 	ldrb.w	r1, [sp, #21]
  4017c6:	4834      	ldr	r0, [pc, #208]	; (401898 <m2m_wifi_connect_sc+0x234>)
  4017c8:	47a0      	blx	r4
  4017ca:	482c      	ldr	r0, [pc, #176]	; (40187c <m2m_wifi_connect_sc+0x218>)
  4017cc:	47a0      	blx	r4
			ret = M2M_ERR_FAIL;
  4017ce:	f06f 000b 	mvn.w	r0, #11
			goto ERR1;
  4017d2:	e048      	b.n	401866 <m2m_wifi_connect_sc+0x202>
		}
		m2m_memcpy((uint8*)pstrWep->au8WepKey,(uint8*)pstrWepParams->au8WepKey, pstrWepParams->u8KeySz);
  4017d4:	1cb1      	adds	r1, r6, #2
  4017d6:	f10d 0016 	add.w	r0, sp, #22
  4017da:	4b2d      	ldr	r3, [pc, #180]	; (401890 <m2m_wifi_connect_sc+0x22c>)
  4017dc:	4798      	blx	r3
		pstrWep->au8WepKey[pstrWepParams->u8KeySz] = 0;
  4017de:	7873      	ldrb	r3, [r6, #1]
  4017e0:	aa20      	add	r2, sp, #128	; 0x80
  4017e2:	4413      	add	r3, r2
  4017e4:	2200      	movs	r2, #0
  4017e6:	f803 2c6a 	strb.w	r2, [r3, #-106]
  4017ea:	e032      	b.n	401852 <m2m_wifi_connect_sc+0x1ee>

	}


	else if(u8SecType == M2M_WIFI_SEC_WPA_PSK)
  4017ec:	2c02      	cmp	r4, #2
  4017ee:	d119      	bne.n	401824 <m2m_wifi_connect_sc+0x1c0>
	{
		uint16	u16KeyLen = m2m_strlen((uint8*)pvAuthInfo);
  4017f0:	4630      	mov	r0, r6
  4017f2:	4b23      	ldr	r3, [pc, #140]	; (401880 <m2m_wifi_connect_sc+0x21c>)
  4017f4:	4798      	blx	r3
		if((u16KeyLen <= 0)||(u16KeyLen >= M2M_MAX_PSK_LEN))
  4017f6:	1e43      	subs	r3, r0, #1
  4017f8:	b29b      	uxth	r3, r3
  4017fa:	2b3f      	cmp	r3, #63	; 0x3f
  4017fc:	d90c      	bls.n	401818 <m2m_wifi_connect_sc+0x1b4>
		{
			M2M_ERR("Incorrect PSK key length\n");
  4017fe:	f240 224f 	movw	r2, #591	; 0x24f
  401802:	491a      	ldr	r1, [pc, #104]	; (40186c <m2m_wifi_connect_sc+0x208>)
  401804:	481a      	ldr	r0, [pc, #104]	; (401870 <m2m_wifi_connect_sc+0x20c>)
  401806:	4c1b      	ldr	r4, [pc, #108]	; (401874 <m2m_wifi_connect_sc+0x210>)
  401808:	47a0      	blx	r4
  40180a:	4824      	ldr	r0, [pc, #144]	; (40189c <m2m_wifi_connect_sc+0x238>)
  40180c:	47a0      	blx	r4
  40180e:	481b      	ldr	r0, [pc, #108]	; (40187c <m2m_wifi_connect_sc+0x218>)
  401810:	47a0      	blx	r4
			ret = M2M_ERR_FAIL;
  401812:	f06f 000b 	mvn.w	r0, #11
			goto ERR1;
  401816:	e026      	b.n	401866 <m2m_wifi_connect_sc+0x202>
		}
		m2m_memcpy(pstrAuthInfo->uniAuth.au8PSK, (uint8*)pvAuthInfo, u16KeyLen + 1);
  401818:	1c42      	adds	r2, r0, #1
  40181a:	4631      	mov	r1, r6
  40181c:	a805      	add	r0, sp, #20
  40181e:	4b1c      	ldr	r3, [pc, #112]	; (401890 <m2m_wifi_connect_sc+0x22c>)
  401820:	4798      	blx	r3
  401822:	e016      	b.n	401852 <m2m_wifi_connect_sc+0x1ee>
	}
	else if(u8SecType == M2M_WIFI_SEC_802_1X)
  401824:	2c04      	cmp	r4, #4
  401826:	d105      	bne.n	401834 <m2m_wifi_connect_sc+0x1d0>
	{
		m2m_memcpy((uint8*)&pstrAuthInfo->uniAuth.strCred1x, (uint8*)pvAuthInfo, sizeof(tstr1xAuthCredentials));
  401828:	223e      	movs	r2, #62	; 0x3e
  40182a:	4631      	mov	r1, r6
  40182c:	a805      	add	r0, sp, #20
  40182e:	4b18      	ldr	r3, [pc, #96]	; (401890 <m2m_wifi_connect_sc+0x22c>)
  401830:	4798      	blx	r3
  401832:	e00e      	b.n	401852 <m2m_wifi_connect_sc+0x1ee>
	}
	else if(u8SecType == M2M_WIFI_SEC_OPEN)
  401834:	2c01      	cmp	r4, #1
  401836:	d00c      	beq.n	401852 <m2m_wifi_connect_sc+0x1ee>
	{

	}
	else
	{
		M2M_ERR("undefined sec type\n");
  401838:	f240 225f 	movw	r2, #607	; 0x25f
  40183c:	490b      	ldr	r1, [pc, #44]	; (40186c <m2m_wifi_connect_sc+0x208>)
  40183e:	480c      	ldr	r0, [pc, #48]	; (401870 <m2m_wifi_connect_sc+0x20c>)
  401840:	4c0c      	ldr	r4, [pc, #48]	; (401874 <m2m_wifi_connect_sc+0x210>)
  401842:	47a0      	blx	r4
  401844:	4816      	ldr	r0, [pc, #88]	; (4018a0 <m2m_wifi_connect_sc+0x23c>)
  401846:	47a0      	blx	r4
  401848:	480c      	ldr	r0, [pc, #48]	; (40187c <m2m_wifi_connect_sc+0x218>)
  40184a:	47a0      	blx	r4
		ret = M2M_ERR_FAIL;
  40184c:	f06f 000b 	mvn.w	r0, #11
		goto ERR1;
  401850:	e009      	b.n	401866 <m2m_wifi_connect_sc+0x202>
	}

	ret = hif_send(M2M_REQ_GROUP_WIFI, M2M_WIFI_REQ_CONNECT, (uint8*)&strConnect, sizeof(tstrM2mWifiConnect),NULL, 0,0);
  401852:	2300      	movs	r3, #0
  401854:	9302      	str	r3, [sp, #8]
  401856:	9301      	str	r3, [sp, #4]
  401858:	9300      	str	r3, [sp, #0]
  40185a:	236c      	movs	r3, #108	; 0x6c
  40185c:	aa05      	add	r2, sp, #20
  40185e:	2128      	movs	r1, #40	; 0x28
  401860:	2001      	movs	r0, #1
  401862:	4c10      	ldr	r4, [pc, #64]	; (4018a4 <m2m_wifi_connect_sc+0x240>)
  401864:	47a0      	blx	r4

ERR1:
	return ret;
}
  401866:	b020      	add	sp, #128	; 0x80
  401868:	e8bd 81f0 	ldmia.w	sp!, {r4, r5, r6, r7, r8, pc}
  40186c:	004083ac 	.word	0x004083ac
  401870:	00408108 	.word	0x00408108
  401874:	004046b5 	.word	0x004046b5
  401878:	00408520 	.word	0x00408520
  40187c:	00408134 	.word	0x00408134
  401880:	00400a9d 	.word	0x00400a9d
  401884:	00408534 	.word	0x00408534
  401888:	00408544 	.word	0x00408544
  40188c:	00408558 	.word	0x00408558
  401890:	00400a79 	.word	0x00400a79
  401894:	00408564 	.word	0x00408564
  401898:	00408580 	.word	0x00408580
  40189c:	0040859c 	.word	0x0040859c
  4018a0:	004085b8 	.word	0x004085b8
  4018a4:	00400bf1 	.word	0x00400bf1

004018a8 <m2m_wifi_connect>:
{
	return hif_send(M2M_REQ_GROUP_WIFI, M2M_WIFI_REQ_DEFAULT_CONNECT, NULL, 0,NULL, 0,0);
}

sint8 m2m_wifi_connect(char *pcSsid, uint8 u8SsidLen, uint8 u8SecType, void *pvAuthInfo, uint16 u16Ch)
{
  4018a8:	b510      	push	{r4, lr}
  4018aa:	b082      	sub	sp, #8
	return m2m_wifi_connect_sc(pcSsid, u8SsidLen, u8SecType, pvAuthInfo,  u16Ch,0);
  4018ac:	2400      	movs	r4, #0
  4018ae:	9401      	str	r4, [sp, #4]
  4018b0:	f8bd 4010 	ldrh.w	r4, [sp, #16]
  4018b4:	9400      	str	r4, [sp, #0]
  4018b6:	4c02      	ldr	r4, [pc, #8]	; (4018c0 <m2m_wifi_connect+0x18>)
  4018b8:	47a0      	blx	r4
}
  4018ba:	b002      	add	sp, #8
  4018bc:	bd10      	pop	{r4, pc}
  4018be:	bf00      	nop
  4018c0:	00401665 	.word	0x00401665

004018c4 <m2m_wifi_request_dhcp_client>:

sint8 m2m_wifi_request_dhcp_client(void)
{
	/*legacy API should be removed */
	return 0;
}
  4018c4:	2000      	movs	r0, #0
  4018c6:	4770      	bx	lr

004018c8 <chip_apply_conf>:
#define M2M_DISABLE_PS				(0xd0ul)

static uint32 clk_status_reg_adr = 0xf; /* Assume initially it is B0 chip */

sint8 chip_apply_conf(uint32 u32Conf)
{
  4018c8:	b5f0      	push	{r4, r5, r6, r7, lr}
  4018ca:	b083      	sub	sp, #12
  4018cc:	4604      	mov	r4, r0
#endif
#ifdef __DISABLE_FIRMWARE_LOGS__
	val32 |= rHAVE_LOGS_DISABLED_BIT;
#endif
	do  {
		nm_write_reg(rNMI_GP_REG_1, val32);
  4018ce:	f44f 55a5 	mov.w	r5, #5280	; 0x14a0
  4018d2:	4e0a      	ldr	r6, [pc, #40]	; (4018fc <chip_apply_conf+0x34>)
		if(val32 != 0) {		
			uint32 reg = 0;
			ret = nm_read_reg_with_ret(rNMI_GP_REG_1, &reg);
  4018d4:	4f0a      	ldr	r7, [pc, #40]	; (401900 <chip_apply_conf+0x38>)
#endif
#ifdef __DISABLE_FIRMWARE_LOGS__
	val32 |= rHAVE_LOGS_DISABLED_BIT;
#endif
	do  {
		nm_write_reg(rNMI_GP_REG_1, val32);
  4018d6:	4621      	mov	r1, r4
  4018d8:	4628      	mov	r0, r5
  4018da:	47b0      	blx	r6
		if(val32 != 0) {		
  4018dc:	b154      	cbz	r4, 4018f4 <chip_apply_conf+0x2c>
			uint32 reg = 0;
  4018de:	a902      	add	r1, sp, #8
  4018e0:	2300      	movs	r3, #0
  4018e2:	f841 3d04 	str.w	r3, [r1, #-4]!
			ret = nm_read_reg_with_ret(rNMI_GP_REG_1, &reg);
  4018e6:	4628      	mov	r0, r5
  4018e8:	47b8      	blx	r7
			if(ret == M2M_SUCCESS) {
  4018ea:	2800      	cmp	r0, #0
  4018ec:	d1f3      	bne.n	4018d6 <chip_apply_conf+0xe>
				if(reg == val32)
  4018ee:	9b01      	ldr	r3, [sp, #4]
  4018f0:	429c      	cmp	r4, r3
  4018f2:	d1f0      	bne.n	4018d6 <chip_apply_conf+0xe>
			break;
		}
	} while(1);

	return M2M_SUCCESS;
}
  4018f4:	2000      	movs	r0, #0
  4018f6:	b003      	add	sp, #12
  4018f8:	bdf0      	pop	{r4, r5, r6, r7, pc}
  4018fa:	bf00      	nop
  4018fc:	00401da1 	.word	0x00401da1
  401900:	00401d95 	.word	0x00401d95

00401904 <nm_clkless_wake>:
*	@author	Samer Sarhan
*	@date	06 June 2014
*	@version	1.0
*/
sint8 nm_clkless_wake(void)
{
  401904:	e92d 4ff0 	stmdb	sp!, {r4, r5, r6, r7, r8, r9, sl, fp, lr}
  401908:	b083      	sub	sp, #12
	sint8 ret = M2M_SUCCESS;
	uint32 reg, clk_status_reg,trials = 0;
	/* wait 1ms, spi data read */
	nm_bsp_sleep(1);
  40190a:	2001      	movs	r0, #1
  40190c:	4b3d      	ldr	r3, [pc, #244]	; (401a04 <nm_clkless_wake+0x100>)
  40190e:	4798      	blx	r3
	ret = nm_read_reg_with_ret(0x1, &reg);
  401910:	a901      	add	r1, sp, #4
  401912:	2001      	movs	r0, #1
  401914:	4b3c      	ldr	r3, [pc, #240]	; (401a08 <nm_clkless_wake+0x104>)
  401916:	4798      	blx	r3
	if(ret != M2M_SUCCESS) {
  401918:	4682      	mov	sl, r0
  40191a:	b148      	cbz	r0, 401930 <nm_clkless_wake+0x2c>
		M2M_ERR("Bus error (1). Wake up failed\n");
  40191c:	2272      	movs	r2, #114	; 0x72
  40191e:	493b      	ldr	r1, [pc, #236]	; (401a0c <nm_clkless_wake+0x108>)
  401920:	483b      	ldr	r0, [pc, #236]	; (401a10 <nm_clkless_wake+0x10c>)
  401922:	4c3c      	ldr	r4, [pc, #240]	; (401a14 <nm_clkless_wake+0x110>)
  401924:	47a0      	blx	r4
  401926:	483c      	ldr	r0, [pc, #240]	; (401a18 <nm_clkless_wake+0x114>)
  401928:	47a0      	blx	r4
  40192a:	483c      	ldr	r0, [pc, #240]	; (401a1c <nm_clkless_wake+0x118>)
  40192c:	47a0      	blx	r4
		goto _WAKE_EXIT;
  40192e:	e064      	b.n	4019fa <nm_clkless_wake+0xf6>
  401930:	2400      	movs	r4, #0
	 * If A0, then clks_enabled bit exists in register 0xe
	 */
	do
	{
		/* Set bit 1 */
		nm_write_reg(0x1, reg | (1 << 1));
  401932:	f04f 0801 	mov.w	r8, #1
  401936:	f8df 90f8 	ldr.w	r9, [pc, #248]	; 401a30 <nm_clkless_wake+0x12c>
		/* wait 1ms, spi data read */
		nm_bsp_sleep(1);
  40193a:	4d32      	ldr	r5, [pc, #200]	; (401a04 <nm_clkless_wake+0x100>)
		}

		// in case of clocks off, wait 2ms, and check it again.
		// if still off, wait for another 2ms, for a total wait of 6ms.
		// If still off, redo the wake up sequence
		while( ((clk_status_reg & 0x4) == 0) && (((++trials) %3) == 0))
  40193c:	4f38      	ldr	r7, [pc, #224]	; (401a20 <nm_clkless_wake+0x11c>)
	 * If A0, then clks_enabled bit exists in register 0xe
	 */
	do
	{
		/* Set bit 1 */
		nm_write_reg(0x1, reg | (1 << 1));
  40193e:	9901      	ldr	r1, [sp, #4]
  401940:	f041 0102 	orr.w	r1, r1, #2
  401944:	4640      	mov	r0, r8
  401946:	47c8      	blx	r9
		/* wait 1ms, spi data read */
		nm_bsp_sleep(1);
  401948:	4640      	mov	r0, r8
  40194a:	47a8      	blx	r5
		// Check the clock status
		ret = nm_read_reg_with_ret(clk_status_reg_adr, &clk_status_reg);
  40194c:	4669      	mov	r1, sp
  40194e:	4b35      	ldr	r3, [pc, #212]	; (401a24 <nm_clkless_wake+0x120>)
  401950:	6818      	ldr	r0, [r3, #0]
  401952:	4b2d      	ldr	r3, [pc, #180]	; (401a08 <nm_clkless_wake+0x104>)
  401954:	4798      	blx	r3
		if( (ret != M2M_SUCCESS) || ((ret == M2M_SUCCESS) && (clk_status_reg == 0)) ) {
  401956:	b918      	cbnz	r0, 401960 <nm_clkless_wake+0x5c>
  401958:	9b00      	ldr	r3, [sp, #0]
  40195a:	b10b      	cbz	r3, 401960 <nm_clkless_wake+0x5c>
			/* Wait for the chip to stabilize*/
			nm_bsp_sleep(2);

			// Make sure chip is awake. This is an extra step that can be removed
			// later to avoid the bus access overhead
			nm_read_reg_with_ret(clk_status_reg_adr, &clk_status_reg);
  40195c:	4e31      	ldr	r6, [pc, #196]	; (401a24 <nm_clkless_wake+0x120>)
  40195e:	e037      	b.n	4019d0 <nm_clkless_wake+0xcc>
		if( (ret != M2M_SUCCESS) || ((ret == M2M_SUCCESS) && (clk_status_reg == 0)) ) {
			/* Register 0xf did not exist in A0.
			 * If register 0xf fails to read or if it reads 0,
			 * then the chip is A0.
			 */
			clk_status_reg_adr = 0xe;
  401960:	4e30      	ldr	r6, [pc, #192]	; (401a24 <nm_clkless_wake+0x120>)
  401962:	230e      	movs	r3, #14
  401964:	6033      	str	r3, [r6, #0]
			/* wait 1ms, spi data read */
			nm_bsp_sleep(1);
  401966:	4640      	mov	r0, r8
  401968:	47a8      	blx	r5
			ret = nm_read_reg_with_ret(clk_status_reg_adr, &clk_status_reg);
  40196a:	4669      	mov	r1, sp
  40196c:	6830      	ldr	r0, [r6, #0]
  40196e:	4b26      	ldr	r3, [pc, #152]	; (401a08 <nm_clkless_wake+0x104>)
  401970:	4798      	blx	r3
			
			/* Aelmeleh 24-08-2015*/
			/* Check for C3000 rev. D0 value */
			if( (ret != M2M_SUCCESS) || ((ret == M2M_SUCCESS) && (clk_status_reg == 0)) ) {
  401972:	b910      	cbnz	r0, 40197a <nm_clkless_wake+0x76>
  401974:	9b00      	ldr	r3, [sp, #0]
  401976:	2b00      	cmp	r3, #0
  401978:	d1f0      	bne.n	40195c <nm_clkless_wake+0x58>
				 
				clk_status_reg_adr = 0x13;
  40197a:	4e2a      	ldr	r6, [pc, #168]	; (401a24 <nm_clkless_wake+0x120>)
  40197c:	2313      	movs	r3, #19
  40197e:	6033      	str	r3, [r6, #0]
				/* wait 1ms, spi data read */
				nm_bsp_sleep(1);
  401980:	4640      	mov	r0, r8
  401982:	47a8      	blx	r5
				ret = nm_read_reg_with_ret(clk_status_reg_adr, &clk_status_reg);
  401984:	4669      	mov	r1, sp
  401986:	6830      	ldr	r0, [r6, #0]
  401988:	4b1f      	ldr	r3, [pc, #124]	; (401a08 <nm_clkless_wake+0x104>)
  40198a:	4798      	blx	r3
			
				if(ret != M2M_SUCCESS) {
  40198c:	4606      	mov	r6, r0
  40198e:	2800      	cmp	r0, #0
  401990:	d0e4      	beq.n	40195c <nm_clkless_wake+0x58>
					M2M_ERR("Bus error (2). Wake up failed\n");
  401992:	2296      	movs	r2, #150	; 0x96
  401994:	491d      	ldr	r1, [pc, #116]	; (401a0c <nm_clkless_wake+0x108>)
  401996:	481e      	ldr	r0, [pc, #120]	; (401a10 <nm_clkless_wake+0x10c>)
  401998:	4c1e      	ldr	r4, [pc, #120]	; (401a14 <nm_clkless_wake+0x110>)
  40199a:	47a0      	blx	r4
  40199c:	4822      	ldr	r0, [pc, #136]	; (401a28 <nm_clkless_wake+0x124>)
  40199e:	47a0      	blx	r4
  4019a0:	481e      	ldr	r0, [pc, #120]	; (401a1c <nm_clkless_wake+0x118>)
  4019a2:	47a0      	blx	r4
			if( (ret != M2M_SUCCESS) || ((ret == M2M_SUCCESS) && (clk_status_reg == 0)) ) {
				 
				clk_status_reg_adr = 0x13;
				/* wait 1ms, spi data read */
				nm_bsp_sleep(1);
				ret = nm_read_reg_with_ret(clk_status_reg_adr, &clk_status_reg);
  4019a4:	46b2      	mov	sl, r6
			
				if(ret != M2M_SUCCESS) {
					M2M_ERR("Bus error (2). Wake up failed\n");
					goto _WAKE_EXIT;
  4019a6:	e028      	b.n	4019fa <nm_clkless_wake+0xf6>
		// if still off, wait for another 2ms, for a total wait of 6ms.
		// If still off, redo the wake up sequence
		while( ((clk_status_reg & 0x4) == 0) && (((++trials) %3) == 0))
		{
			/* Wait for the chip to stabilize*/
			nm_bsp_sleep(2);
  4019a8:	2002      	movs	r0, #2
  4019aa:	47a8      	blx	r5

			// Make sure chip is awake. This is an extra step that can be removed
			// later to avoid the bus access overhead
			nm_read_reg_with_ret(clk_status_reg_adr, &clk_status_reg);
  4019ac:	4669      	mov	r1, sp
  4019ae:	6830      	ldr	r0, [r6, #0]
  4019b0:	4b15      	ldr	r3, [pc, #84]	; (401a08 <nm_clkless_wake+0x104>)
  4019b2:	4798      	blx	r3

			if((clk_status_reg & 0x4) == 0)
  4019b4:	9b00      	ldr	r3, [sp, #0]
  4019b6:	f013 0f04 	tst.w	r3, #4
  4019ba:	d109      	bne.n	4019d0 <nm_clkless_wake+0xcc>
			{
				M2M_ERR("clocks still OFF. Wake up failed\n");
  4019bc:	22aa      	movs	r2, #170	; 0xaa
  4019be:	4913      	ldr	r1, [pc, #76]	; (401a0c <nm_clkless_wake+0x108>)
  4019c0:	4813      	ldr	r0, [pc, #76]	; (401a10 <nm_clkless_wake+0x10c>)
  4019c2:	f8df b050 	ldr.w	fp, [pc, #80]	; 401a14 <nm_clkless_wake+0x110>
  4019c6:	47d8      	blx	fp
  4019c8:	4818      	ldr	r0, [pc, #96]	; (401a2c <nm_clkless_wake+0x128>)
  4019ca:	47d8      	blx	fp
  4019cc:	4813      	ldr	r0, [pc, #76]	; (401a1c <nm_clkless_wake+0x118>)
  4019ce:	47d8      	blx	fp
		}

		// in case of clocks off, wait 2ms, and check it again.
		// if still off, wait for another 2ms, for a total wait of 6ms.
		// If still off, redo the wake up sequence
		while( ((clk_status_reg & 0x4) == 0) && (((++trials) %3) == 0))
  4019d0:	9b00      	ldr	r3, [sp, #0]
  4019d2:	f013 0f04 	tst.w	r3, #4
  4019d6:	d110      	bne.n	4019fa <nm_clkless_wake+0xf6>
  4019d8:	3401      	adds	r4, #1
  4019da:	fba7 2304 	umull	r2, r3, r7, r4
  4019de:	085b      	lsrs	r3, r3, #1
  4019e0:	eb03 0343 	add.w	r3, r3, r3, lsl #1
  4019e4:	429c      	cmp	r4, r3
  4019e6:	d0df      	beq.n	4019a8 <nm_clkless_wake+0xa4>
		}
		// in case of failure, Reset the wakeup bit to introduce a new edge on the next loop
		if((clk_status_reg & 0x4) == 0)
		{
			// Reset bit 0
			nm_write_reg(0x1, reg | (1 << 1));
  4019e8:	9901      	ldr	r1, [sp, #4]
  4019ea:	f041 0102 	orr.w	r1, r1, #2
  4019ee:	4640      	mov	r0, r8
  4019f0:	47c8      	blx	r9
		}
	} while((clk_status_reg & 0x4) == 0);
  4019f2:	9b00      	ldr	r3, [sp, #0]
  4019f4:	f013 0f04 	tst.w	r3, #4
  4019f8:	d0a1      	beq.n	40193e <nm_clkless_wake+0x3a>

_WAKE_EXIT:
	return ret;
}
  4019fa:	4650      	mov	r0, sl
  4019fc:	b003      	add	sp, #12
  4019fe:	e8bd 8ff0 	ldmia.w	sp!, {r4, r5, r6, r7, r8, r9, sl, fp, pc}
  401a02:	bf00      	nop
  401a04:	004006dd 	.word	0x004006dd
  401a08:	00401d95 	.word	0x00401d95
  401a0c:	00408710 	.word	0x00408710
  401a10:	00408108 	.word	0x00408108
  401a14:	004046b5 	.word	0x004046b5
  401a18:	00408720 	.word	0x00408720
  401a1c:	00408134 	.word	0x00408134
  401a20:	aaaaaaab 	.word	0xaaaaaaab
  401a24:	20400010 	.word	0x20400010
  401a28:	00408740 	.word	0x00408740
  401a2c:	00408760 	.word	0x00408760
  401a30:	00401da1 	.word	0x00401da1

00401a34 <enable_interrupts>:
	nm_write_reg(0x6, 0x0);
	nm_write_reg(0x7, 0x0);
}

sint8 enable_interrupts(void)
{
  401a34:	b500      	push	{lr}
  401a36:	b083      	sub	sp, #12
	uint32 reg;
	sint8 ret;
	/**
	interrupt pin mux select
	**/
	ret = nm_read_reg_with_ret(NMI_PIN_MUX_0, &reg);
  401a38:	a901      	add	r1, sp, #4
  401a3a:	f241 4008 	movw	r0, #5128	; 0x1408
  401a3e:	4b15      	ldr	r3, [pc, #84]	; (401a94 <enable_interrupts+0x60>)
  401a40:	4798      	blx	r3
	if (M2M_SUCCESS != ret) {
  401a42:	b9e0      	cbnz	r0, 401a7e <enable_interrupts+0x4a>
		return M2M_ERR_BUS_FAIL;
	}
	reg |= ((uint32) 1 << 8);
  401a44:	9901      	ldr	r1, [sp, #4]
  401a46:	f441 7180 	orr.w	r1, r1, #256	; 0x100
  401a4a:	9101      	str	r1, [sp, #4]
	ret = nm_write_reg(NMI_PIN_MUX_0, reg);
  401a4c:	f241 4008 	movw	r0, #5128	; 0x1408
  401a50:	4b11      	ldr	r3, [pc, #68]	; (401a98 <enable_interrupts+0x64>)
  401a52:	4798      	blx	r3
	if (M2M_SUCCESS != ret) {
  401a54:	b9b0      	cbnz	r0, 401a84 <enable_interrupts+0x50>
		return M2M_ERR_BUS_FAIL;
	}
	/**
	interrupt enable
	**/
	ret = nm_read_reg_with_ret(NMI_INTR_ENABLE, &reg);
  401a56:	a901      	add	r1, sp, #4
  401a58:	f44f 50d0 	mov.w	r0, #6656	; 0x1a00
  401a5c:	4b0d      	ldr	r3, [pc, #52]	; (401a94 <enable_interrupts+0x60>)
  401a5e:	4798      	blx	r3
	if (M2M_SUCCESS != ret) {
  401a60:	b998      	cbnz	r0, 401a8a <enable_interrupts+0x56>
		return M2M_ERR_BUS_FAIL;
	}
	reg |= ((uint32) 1 << 16);
  401a62:	9901      	ldr	r1, [sp, #4]
  401a64:	f441 3180 	orr.w	r1, r1, #65536	; 0x10000
  401a68:	9101      	str	r1, [sp, #4]
	ret = nm_write_reg(NMI_INTR_ENABLE, reg);
  401a6a:	f44f 50d0 	mov.w	r0, #6656	; 0x1a00
  401a6e:	4b0a      	ldr	r3, [pc, #40]	; (401a98 <enable_interrupts+0x64>)
  401a70:	4798      	blx	r3
	if (M2M_SUCCESS != ret) {
  401a72:	2800      	cmp	r0, #0
		return M2M_ERR_BUS_FAIL;
	}
	return M2M_SUCCESS;
  401a74:	bf14      	ite	ne
  401a76:	f06f 0005 	mvnne.w	r0, #5
  401a7a:	2000      	moveq	r0, #0
  401a7c:	e007      	b.n	401a8e <enable_interrupts+0x5a>
	/**
	interrupt pin mux select
	**/
	ret = nm_read_reg_with_ret(NMI_PIN_MUX_0, &reg);
	if (M2M_SUCCESS != ret) {
		return M2M_ERR_BUS_FAIL;
  401a7e:	f06f 0005 	mvn.w	r0, #5
  401a82:	e004      	b.n	401a8e <enable_interrupts+0x5a>
	}
	reg |= ((uint32) 1 << 8);
	ret = nm_write_reg(NMI_PIN_MUX_0, reg);
	if (M2M_SUCCESS != ret) {
		return M2M_ERR_BUS_FAIL;
  401a84:	f06f 0005 	mvn.w	r0, #5
  401a88:	e001      	b.n	401a8e <enable_interrupts+0x5a>
	/**
	interrupt enable
	**/
	ret = nm_read_reg_with_ret(NMI_INTR_ENABLE, &reg);
	if (M2M_SUCCESS != ret) {
		return M2M_ERR_BUS_FAIL;
  401a8a:	f06f 0005 	mvn.w	r0, #5
	ret = nm_write_reg(NMI_INTR_ENABLE, reg);
	if (M2M_SUCCESS != ret) {
		return M2M_ERR_BUS_FAIL;
	}
	return M2M_SUCCESS;
}
  401a8e:	b003      	add	sp, #12
  401a90:	f85d fb04 	ldr.w	pc, [sp], #4
  401a94:	00401d95 	.word	0x00401d95
  401a98:	00401da1 	.word	0x00401da1

00401a9c <nmi_get_chipid>:
	nm_bsp_sleep(1); /* TODO: Why bus error if this delay is not here. */
	return ret;
}

uint32 nmi_get_chipid(void)
{
  401a9c:	b510      	push	{r4, lr}
  401a9e:	b082      	sub	sp, #8
	static uint32 chipid = 0;

	if (chipid == 0) {
  401aa0:	4b24      	ldr	r3, [pc, #144]	; (401b34 <nmi_get_chipid+0x98>)
  401aa2:	681c      	ldr	r4, [r3, #0]
  401aa4:	2c00      	cmp	r4, #0
  401aa6:	d140      	bne.n	401b2a <nmi_get_chipid+0x8e>
		uint32 rfrevid;

		if((nm_read_reg_with_ret(0x1000, &chipid)) != M2M_SUCCESS) {
  401aa8:	4619      	mov	r1, r3
  401aaa:	f44f 5080 	mov.w	r0, #4096	; 0x1000
  401aae:	4b22      	ldr	r3, [pc, #136]	; (401b38 <nmi_get_chipid+0x9c>)
  401ab0:	4798      	blx	r3
  401ab2:	b118      	cbz	r0, 401abc <nmi_get_chipid+0x20>
			chipid = 0;
  401ab4:	2200      	movs	r2, #0
  401ab6:	4b1f      	ldr	r3, [pc, #124]	; (401b34 <nmi_get_chipid+0x98>)
  401ab8:	601a      	str	r2, [r3, #0]
			return 0;
  401aba:	e038      	b.n	401b2e <nmi_get_chipid+0x92>
		}
		//if((ret = nm_read_reg_with_ret(0x11fc, &revid)) != M2M_SUCCESS) {
		//	return 0;
		//}
		if((nm_read_reg_with_ret(0x13f4, &rfrevid)) != M2M_SUCCESS) {
  401abc:	a901      	add	r1, sp, #4
  401abe:	f241 30f4 	movw	r0, #5108	; 0x13f4
  401ac2:	4b1d      	ldr	r3, [pc, #116]	; (401b38 <nmi_get_chipid+0x9c>)
  401ac4:	4798      	blx	r3
  401ac6:	b118      	cbz	r0, 401ad0 <nmi_get_chipid+0x34>
			chipid = 0;
  401ac8:	2200      	movs	r2, #0
  401aca:	4b1a      	ldr	r3, [pc, #104]	; (401b34 <nmi_get_chipid+0x98>)
  401acc:	601a      	str	r2, [r3, #0]
			return 0;
  401ace:	e02e      	b.n	401b2e <nmi_get_chipid+0x92>
		}

		if (chipid == 0x1002a0)  {
  401ad0:	4b18      	ldr	r3, [pc, #96]	; (401b34 <nmi_get_chipid+0x98>)
  401ad2:	681b      	ldr	r3, [r3, #0]
  401ad4:	4a19      	ldr	r2, [pc, #100]	; (401b3c <nmi_get_chipid+0xa0>)
  401ad6:	4293      	cmp	r3, r2
  401ad8:	d106      	bne.n	401ae8 <nmi_get_chipid+0x4c>
			if (rfrevid == 0x1) { /* 1002A0 */
  401ada:	9b01      	ldr	r3, [sp, #4]
  401adc:	2b01      	cmp	r3, #1
  401ade:	d01d      	beq.n	401b1c <nmi_get_chipid+0x80>
			} else /* if (rfrevid == 0x2) */ { /* 1002A1 */
				chipid = 0x1002a1;
  401ae0:	3201      	adds	r2, #1
  401ae2:	4b14      	ldr	r3, [pc, #80]	; (401b34 <nmi_get_chipid+0x98>)
  401ae4:	601a      	str	r2, [r3, #0]
  401ae6:	e019      	b.n	401b1c <nmi_get_chipid+0x80>
			}
		} else if(chipid == 0x1002b0) {
  401ae8:	4a15      	ldr	r2, [pc, #84]	; (401b40 <nmi_get_chipid+0xa4>)
  401aea:	4293      	cmp	r3, r2
  401aec:	d109      	bne.n	401b02 <nmi_get_chipid+0x66>
			if(rfrevid == 3) { /* 1002B0 */
  401aee:	9b01      	ldr	r3, [sp, #4]
  401af0:	2b03      	cmp	r3, #3
  401af2:	d013      	beq.n	401b1c <nmi_get_chipid+0x80>
			} else if(rfrevid == 4) { /* 1002B1 */
  401af4:	2b04      	cmp	r3, #4
				chipid = 0x1002b1;
  401af6:	bf0c      	ite	eq
  401af8:	3201      	addeq	r2, #1
			} else /* if(rfrevid == 5) */ { /* 1002B2 */
				chipid = 0x1002b2;
  401afa:	4a12      	ldrne	r2, [pc, #72]	; (401b44 <nmi_get_chipid+0xa8>)
  401afc:	4b0d      	ldr	r3, [pc, #52]	; (401b34 <nmi_get_chipid+0x98>)
  401afe:	601a      	str	r2, [r3, #0]
  401b00:	e00c      	b.n	401b1c <nmi_get_chipid+0x80>
			}
		} else if(chipid == 0x1000F0) { 
  401b02:	4a11      	ldr	r2, [pc, #68]	; (401b48 <nmi_get_chipid+0xac>)
  401b04:	4293      	cmp	r3, r2
  401b06:	d109      	bne.n	401b1c <nmi_get_chipid+0x80>
			if((nm_read_reg_with_ret(0x3B0000, &chipid)) != M2M_SUCCESS) {
  401b08:	490a      	ldr	r1, [pc, #40]	; (401b34 <nmi_get_chipid+0x98>)
  401b0a:	f44f 106c 	mov.w	r0, #3866624	; 0x3b0000
  401b0e:	4b0a      	ldr	r3, [pc, #40]	; (401b38 <nmi_get_chipid+0x9c>)
  401b10:	4798      	blx	r3
  401b12:	b118      	cbz	r0, 401b1c <nmi_get_chipid+0x80>
			chipid = 0;
  401b14:	2200      	movs	r2, #0
  401b16:	4b07      	ldr	r3, [pc, #28]	; (401b34 <nmi_get_chipid+0x98>)
  401b18:	601a      	str	r2, [r3, #0]
			return 0;
  401b1a:	e008      	b.n	401b2e <nmi_get_chipid+0x92>
			}
		}
#else
		/*M2M is by default have SPI flash*/
		chipid &= ~(0x0f0000);
		chipid |= 0x050000;
  401b1c:	4a05      	ldr	r2, [pc, #20]	; (401b34 <nmi_get_chipid+0x98>)
  401b1e:	6813      	ldr	r3, [r2, #0]
  401b20:	f423 2370 	bic.w	r3, r3, #983040	; 0xf0000
  401b24:	f443 23a0 	orr.w	r3, r3, #327680	; 0x50000
  401b28:	6013      	str	r3, [r2, #0]
#endif /* PROBE_FLASH */
	}
	return chipid;
  401b2a:	4b02      	ldr	r3, [pc, #8]	; (401b34 <nmi_get_chipid+0x98>)
  401b2c:	681c      	ldr	r4, [r3, #0]
}
  401b2e:	4620      	mov	r0, r4
  401b30:	b002      	add	sp, #8
  401b32:	bd10      	pop	{r4, pc}
  401b34:	204008d4 	.word	0x204008d4
  401b38:	00401d95 	.word	0x00401d95
  401b3c:	001002a0 	.word	0x001002a0
  401b40:	001002b0 	.word	0x001002b0
  401b44:	001002b2 	.word	0x001002b2
  401b48:	001000f0 	.word	0x001000f0

00401b4c <wait_for_bootrom>:
#endif
	return ret;
}

sint8 wait_for_bootrom(uint8 arg)
{
  401b4c:	e92d 41f0 	stmdb	sp!, {r4, r5, r6, r7, r8, lr}
  401b50:	4607      	mov	r7, r0
	uint32 reg = 0, cnt = 0;
	uint32 u32GpReg1 = 0;

	reg = 0;
	while(1) {
		reg = nm_read_reg(0x1014);	/* wait for efuse loading done */
  401b52:	f241 0514 	movw	r5, #4116	; 0x1014
  401b56:	4c28      	ldr	r4, [pc, #160]	; (401bf8 <wait_for_bootrom+0xac>)
		if (reg & 0x80000000) {
			break;
		}
		nm_bsp_sleep(1); /* TODO: Why bus error if this delay is not here. */
  401b58:	4e28      	ldr	r6, [pc, #160]	; (401bfc <wait_for_bootrom+0xb0>)
	uint32 reg = 0, cnt = 0;
	uint32 u32GpReg1 = 0;

	reg = 0;
	while(1) {
		reg = nm_read_reg(0x1014);	/* wait for efuse loading done */
  401b5a:	4628      	mov	r0, r5
  401b5c:	47a0      	blx	r4
		if (reg & 0x80000000) {
  401b5e:	2800      	cmp	r0, #0
  401b60:	db02      	blt.n	401b68 <wait_for_bootrom+0x1c>
			break;
		}
		nm_bsp_sleep(1); /* TODO: Why bus error if this delay is not here. */
  401b62:	2001      	movs	r0, #1
  401b64:	47b0      	blx	r6
	}
  401b66:	e7f8      	b.n	401b5a <wait_for_bootrom+0xe>
	reg = nm_read_reg(M2M_WAIT_FOR_HOST_REG);
  401b68:	4825      	ldr	r0, [pc, #148]	; (401c00 <wait_for_bootrom+0xb4>)
  401b6a:	4b23      	ldr	r3, [pc, #140]	; (401bf8 <wait_for_bootrom+0xac>)
  401b6c:	4798      	blx	r3
	reg &= 0x1;

	/* check if waiting for the host will be skipped or not */
	if(reg == 0)
  401b6e:	f010 0f01 	tst.w	r0, #1
  401b72:	d110      	bne.n	401b96 <wait_for_bootrom+0x4a>
	{
		reg = 0;
		while(reg != M2M_FINISH_BOOT_ROM)
		{
			nm_bsp_sleep(1);
  401b74:	f8df 8084 	ldr.w	r8, [pc, #132]	; 401bfc <wait_for_bootrom+0xb0>
			reg = nm_read_reg(BOOTROM_REG);
  401b78:	4e1f      	ldr	r6, [pc, #124]	; (401bf8 <wait_for_bootrom+0xac>)

			printf("reg:%x / %x \n",reg, M2M_FINISH_BOOT_ROM );
  401b7a:	4d22      	ldr	r5, [pc, #136]	; (401c04 <wait_for_bootrom+0xb8>)
	if(reg == 0)
	{
		reg = 0;
		while(reg != M2M_FINISH_BOOT_ROM)
		{
			nm_bsp_sleep(1);
  401b7c:	2001      	movs	r0, #1
  401b7e:	47c0      	blx	r8
			reg = nm_read_reg(BOOTROM_REG);
  401b80:	f04f 100c 	mov.w	r0, #786444	; 0xc000c
  401b84:	47b0      	blx	r6
  401b86:	4604      	mov	r4, r0

			printf("reg:%x / %x \n",reg, M2M_FINISH_BOOT_ROM );
  401b88:	462a      	mov	r2, r5
  401b8a:	4601      	mov	r1, r0
  401b8c:	481e      	ldr	r0, [pc, #120]	; (401c08 <wait_for_bootrom+0xbc>)
  401b8e:	4b1f      	ldr	r3, [pc, #124]	; (401c0c <wait_for_bootrom+0xc0>)
  401b90:	4798      	blx	r3

	/* check if waiting for the host will be skipped or not */
	if(reg == 0)
	{
		reg = 0;
		while(reg != M2M_FINISH_BOOT_ROM)
  401b92:	42ac      	cmp	r4, r5
  401b94:	d1f2      	bne.n	401b7c <wait_for_bootrom+0x30>
				goto ERR2;
			}
		}
	}
	
	if(M2M_WIFI_MODE_ATE_HIGH == arg) {
  401b96:	2f02      	cmp	r7, #2
  401b98:	d10a      	bne.n	401bb0 <wait_for_bootrom+0x64>
		nm_write_reg(NMI_REV_REG, M2M_ATE_FW_START_VALUE);
  401b9a:	491d      	ldr	r1, [pc, #116]	; (401c10 <wait_for_bootrom+0xc4>)
  401b9c:	481d      	ldr	r0, [pc, #116]	; (401c14 <wait_for_bootrom+0xc8>)
  401b9e:	4c1e      	ldr	r4, [pc, #120]	; (401c18 <wait_for_bootrom+0xcc>)
  401ba0:	47a0      	blx	r4
		nm_write_reg(NMI_STATE_REG, NBIT20);
  401ba2:	f44f 1180 	mov.w	r1, #1048576	; 0x100000
  401ba6:	f241 008c 	movw	r0, #4236	; 0x108c
  401baa:	47a0      	blx	r4

sint8 wait_for_bootrom(uint8 arg)
{
	sint8 ret = M2M_SUCCESS;
	uint32 reg = 0, cnt = 0;
	uint32 u32GpReg1 = 0;
  401bac:	2400      	movs	r4, #0
  401bae:	e00f      	b.n	401bd0 <wait_for_bootrom+0x84>
	}
	
	if(M2M_WIFI_MODE_ATE_HIGH == arg) {
		nm_write_reg(NMI_REV_REG, M2M_ATE_FW_START_VALUE);
		nm_write_reg(NMI_STATE_REG, NBIT20);
	}else if(M2M_WIFI_MODE_ATE_LOW == arg) {
  401bb0:	2f03      	cmp	r7, #3
  401bb2:	d109      	bne.n	401bc8 <wait_for_bootrom+0x7c>
		nm_write_reg(NMI_REV_REG, M2M_ATE_FW_START_VALUE);
  401bb4:	4916      	ldr	r1, [pc, #88]	; (401c10 <wait_for_bootrom+0xc4>)
  401bb6:	4817      	ldr	r0, [pc, #92]	; (401c14 <wait_for_bootrom+0xc8>)
  401bb8:	4c17      	ldr	r4, [pc, #92]	; (401c18 <wait_for_bootrom+0xcc>)
  401bba:	47a0      	blx	r4
		nm_write_reg(NMI_STATE_REG, 0);
  401bbc:	2100      	movs	r1, #0
  401bbe:	f241 008c 	movw	r0, #4236	; 0x108c
  401bc2:	47a0      	blx	r4

sint8 wait_for_bootrom(uint8 arg)
{
	sint8 ret = M2M_SUCCESS;
	uint32 reg = 0, cnt = 0;
	uint32 u32GpReg1 = 0;
  401bc4:	2400      	movs	r4, #0
  401bc6:	e003      	b.n	401bd0 <wait_for_bootrom+0x84>
		nm_write_reg(NMI_STATE_REG, NBIT20);
	}else if(M2M_WIFI_MODE_ATE_LOW == arg) {
		nm_write_reg(NMI_REV_REG, M2M_ATE_FW_START_VALUE);
		nm_write_reg(NMI_STATE_REG, 0);
	}else if(M2M_WIFI_MODE_ETHERNET == arg){
		u32GpReg1 = rHAVE_ETHERNET_MODE_BIT;
  401bc8:	2f04      	cmp	r7, #4
  401bca:	bf14      	ite	ne
  401bcc:	2400      	movne	r4, #0
  401bce:	2480      	moveq	r4, #128	; 0x80
	} else {
		/*bypass this step*/
	}

	if(REV(nmi_get_chipid()) == REV_3A0)
  401bd0:	4b12      	ldr	r3, [pc, #72]	; (401c1c <wait_for_bootrom+0xd0>)
  401bd2:	4798      	blx	r3
  401bd4:	f3c0 000b 	ubfx	r0, r0, #0, #12
  401bd8:	f5b0 7f68 	cmp.w	r0, #928	; 0x3a0
	{
		chip_apply_conf(u32GpReg1 | rHAVE_USE_PMU_BIT);
  401bdc:	bf0c      	ite	eq
  401bde:	f044 0002 	orreq.w	r0, r4, #2
	}
	else
	{
		chip_apply_conf(u32GpReg1);
  401be2:	4620      	movne	r0, r4
  401be4:	4b0e      	ldr	r3, [pc, #56]	; (401c20 <wait_for_bootrom+0xd4>)
  401be6:	4798      	blx	r3
	}
	
	nm_write_reg(BOOTROM_REG,M2M_START_FIRMWARE);
  401be8:	490e      	ldr	r1, [pc, #56]	; (401c24 <wait_for_bootrom+0xd8>)
  401bea:	f04f 100c 	mov.w	r0, #786444	; 0xc000c
  401bee:	4b0a      	ldr	r3, [pc, #40]	; (401c18 <wait_for_bootrom+0xcc>)
  401bf0:	4798      	blx	r3
	rom_test();
#endif /* __ROM_TEST__ */

ERR2:
	return ret;
}
  401bf2:	2000      	movs	r0, #0
  401bf4:	e8bd 81f0 	ldmia.w	sp!, {r4, r5, r6, r7, r8, pc}
  401bf8:	00401d89 	.word	0x00401d89
  401bfc:	004006dd 	.word	0x004006dd
  401c00:	000207bc 	.word	0x000207bc
  401c04:	10add09e 	.word	0x10add09e
  401c08:	004087ac 	.word	0x004087ac
  401c0c:	004046b5 	.word	0x004046b5
  401c10:	3c1cd57d 	.word	0x3c1cd57d
  401c14:	000207ac 	.word	0x000207ac
  401c18:	00401da1 	.word	0x00401da1
  401c1c:	00401a9d 	.word	0x00401a9d
  401c20:	004018c9 	.word	0x004018c9
  401c24:	ef522f61 	.word	0xef522f61

00401c28 <wait_for_firmware_start>:

sint8 wait_for_firmware_start(uint8 arg)
{
  401c28:	b5f0      	push	{r4, r5, r6, r7, lr}
  401c2a:	b083      	sub	sp, #12
	sint8 ret = M2M_SUCCESS;
	uint32 reg = 0, cnt = 0;
	uint32 u32Timeout = TIMEOUT;
	volatile uint32 regAddress = NMI_STATE_REG;
  401c2c:	f241 038c 	movw	r3, #4236	; 0x108c
  401c30:	9301      	str	r3, [sp, #4]
	volatile uint32 checkValue = M2M_FINISH_INIT_STATE;
  401c32:	4b18      	ldr	r3, [pc, #96]	; (401c94 <wait_for_firmware_start+0x6c>)
  401c34:	9300      	str	r3, [sp, #0]
	
	if((M2M_WIFI_MODE_ATE_HIGH == arg)||(M2M_WIFI_MODE_ATE_LOW == arg)) {
  401c36:	3802      	subs	r0, #2
  401c38:	b2c0      	uxtb	r0, r0
  401c3a:	2801      	cmp	r0, #1
  401c3c:	d810      	bhi.n	401c60 <wait_for_firmware_start+0x38>
		regAddress = NMI_REV_REG;
  401c3e:	4b16      	ldr	r3, [pc, #88]	; (401c98 <wait_for_firmware_start+0x70>)
  401c40:	9301      	str	r3, [sp, #4]
		checkValue = M2M_ATE_FW_IS_UP_VALUE;
  401c42:	f1a3 5322 	sub.w	r3, r3, #679477248	; 0x28800000
  401c46:	f5a3 1311 	sub.w	r3, r3, #2375680	; 0x244000
  401c4a:	f2a3 53e9 	subw	r3, r3, #1513	; 0x5e9
  401c4e:	9300      	str	r3, [sp, #0]
  401c50:	e006      	b.n	401c60 <wait_for_firmware_start+0x38>
	
	
	while (checkValue != reg)
	{
	
		nm_bsp_sleep(2); /* TODO: Why bus error if this delay is not here. */
  401c52:	4638      	mov	r0, r7
  401c54:	47b0      	blx	r6
		M2M_DBG("%x %x %x\n",(unsigned int)nm_read_reg(0x108c),(unsigned int)nm_read_reg(0x108c),(unsigned int)nm_read_reg(0x14A0));
		reg = nm_read_reg(regAddress);
  401c56:	9801      	ldr	r0, [sp, #4]
  401c58:	47a8      	blx	r5
		if(++cnt >= u32Timeout)
  401c5a:	3c01      	subs	r4, #1
  401c5c:	d106      	bne.n	401c6c <wait_for_firmware_start+0x44>
  401c5e:	e013      	b.n	401c88 <wait_for_firmware_start+0x60>
ERR2:
	return ret;
}

sint8 wait_for_firmware_start(uint8 arg)
{
  401c60:	f04f 34ff 	mov.w	r4, #4294967295
  401c64:	2000      	movs	r0, #0
	
	
	while (checkValue != reg)
	{
	
		nm_bsp_sleep(2); /* TODO: Why bus error if this delay is not here. */
  401c66:	2702      	movs	r7, #2
  401c68:	4e0c      	ldr	r6, [pc, #48]	; (401c9c <wait_for_firmware_start+0x74>)
		M2M_DBG("%x %x %x\n",(unsigned int)nm_read_reg(0x108c),(unsigned int)nm_read_reg(0x108c),(unsigned int)nm_read_reg(0x14A0));
		reg = nm_read_reg(regAddress);
  401c6a:	4d0d      	ldr	r5, [pc, #52]	; (401ca0 <wait_for_firmware_start+0x78>)
	} else {
		/*bypass this step*/
	}
	
	
	while (checkValue != reg)
  401c6c:	9b00      	ldr	r3, [sp, #0]
  401c6e:	4298      	cmp	r0, r3
  401c70:	d1ef      	bne.n	401c52 <wait_for_firmware_start+0x2a>
			M2M_DBG("Time out for wait firmware Run\n");
			ret = M2M_ERR_INIT;
			goto ERR;
		}
	}
	if(M2M_FINISH_INIT_STATE == checkValue)
  401c72:	9a00      	ldr	r2, [sp, #0]
  401c74:	4b07      	ldr	r3, [pc, #28]	; (401c94 <wait_for_firmware_start+0x6c>)
  401c76:	429a      	cmp	r2, r3
  401c78:	d109      	bne.n	401c8e <wait_for_firmware_start+0x66>
	{
		nm_write_reg(NMI_STATE_REG, 0);
  401c7a:	2100      	movs	r1, #0
  401c7c:	f241 008c 	movw	r0, #4236	; 0x108c
  401c80:	4b08      	ldr	r3, [pc, #32]	; (401ca4 <wait_for_firmware_start+0x7c>)
  401c82:	4798      	blx	r3
	return ret;
}

sint8 wait_for_firmware_start(uint8 arg)
{
	sint8 ret = M2M_SUCCESS;
  401c84:	2000      	movs	r0, #0
  401c86:	e003      	b.n	401c90 <wait_for_firmware_start+0x68>
		M2M_DBG("%x %x %x\n",(unsigned int)nm_read_reg(0x108c),(unsigned int)nm_read_reg(0x108c),(unsigned int)nm_read_reg(0x14A0));
		reg = nm_read_reg(regAddress);
		if(++cnt >= u32Timeout)
		{
			M2M_DBG("Time out for wait firmware Run\n");
			ret = M2M_ERR_INIT;
  401c88:	f06f 0004 	mvn.w	r0, #4
  401c8c:	e000      	b.n	401c90 <wait_for_firmware_start+0x68>
	return ret;
}

sint8 wait_for_firmware_start(uint8 arg)
{
	sint8 ret = M2M_SUCCESS;
  401c8e:	2000      	movs	r0, #0
	{
		nm_write_reg(NMI_STATE_REG, 0);
	}
ERR:
	return ret;
}
  401c90:	b003      	add	sp, #12
  401c92:	bdf0      	pop	{r4, r5, r6, r7, pc}
  401c94:	02532636 	.word	0x02532636
  401c98:	000207ac 	.word	0x000207ac
  401c9c:	004006dd 	.word	0x004006dd
  401ca0:	00401d89 	.word	0x00401d89
  401ca4:	00401da1 	.word	0x00401da1

00401ca8 <chip_deinit>:

sint8 chip_deinit(void)
{
  401ca8:	b5f0      	push	{r4, r5, r6, r7, lr}
  401caa:	b083      	sub	sp, #12
	uint32 reg = 0;
  401cac:	a902      	add	r1, sp, #8
  401cae:	2300      	movs	r3, #0
  401cb0:	f841 3d04 	str.w	r3, [r1, #-4]!
	uint8 timeout = 10;

	/**
	stop the firmware, need a re-download
	**/
	ret = nm_read_reg_with_ret(NMI_GLB_RESET_0, &reg);
  401cb4:	f44f 50a0 	mov.w	r0, #5120	; 0x1400
  401cb8:	4b24      	ldr	r3, [pc, #144]	; (401d4c <chip_deinit+0xa4>)
  401cba:	4798      	blx	r3
	if (ret != M2M_SUCCESS) {
  401cbc:	b148      	cbz	r0, 401cd2 <chip_deinit+0x2a>
		M2M_ERR("failed to de-initialize\n");
  401cbe:	f240 2231 	movw	r2, #561	; 0x231
  401cc2:	4923      	ldr	r1, [pc, #140]	; (401d50 <chip_deinit+0xa8>)
  401cc4:	4823      	ldr	r0, [pc, #140]	; (401d54 <chip_deinit+0xac>)
  401cc6:	4c24      	ldr	r4, [pc, #144]	; (401d58 <chip_deinit+0xb0>)
  401cc8:	47a0      	blx	r4
  401cca:	4824      	ldr	r0, [pc, #144]	; (401d5c <chip_deinit+0xb4>)
  401ccc:	47a0      	blx	r4
  401cce:	4824      	ldr	r0, [pc, #144]	; (401d60 <chip_deinit+0xb8>)
  401cd0:	47a0      	blx	r4
	}
	reg &= ~(1 << 10);
  401cd2:	9901      	ldr	r1, [sp, #4]
  401cd4:	f421 6180 	bic.w	r1, r1, #1024	; 0x400
  401cd8:	9101      	str	r1, [sp, #4]
	ret = nm_write_reg(NMI_GLB_RESET_0, reg);
  401cda:	f44f 50a0 	mov.w	r0, #5120	; 0x1400
  401cde:	4b21      	ldr	r3, [pc, #132]	; (401d64 <chip_deinit+0xbc>)
  401ce0:	4798      	blx	r3

	if (ret != M2M_SUCCESS) {
  401ce2:	4605      	mov	r5, r0
  401ce4:	b158      	cbz	r0, 401cfe <chip_deinit+0x56>
		M2M_ERR("Error while writing reg\n");
  401ce6:	f240 2237 	movw	r2, #567	; 0x237
  401cea:	4919      	ldr	r1, [pc, #100]	; (401d50 <chip_deinit+0xa8>)
  401cec:	4819      	ldr	r0, [pc, #100]	; (401d54 <chip_deinit+0xac>)
  401cee:	4c1a      	ldr	r4, [pc, #104]	; (401d58 <chip_deinit+0xb0>)
  401cf0:	47a0      	blx	r4
  401cf2:	481d      	ldr	r0, [pc, #116]	; (401d68 <chip_deinit+0xc0>)
  401cf4:	47a0      	blx	r4
  401cf6:	481a      	ldr	r0, [pc, #104]	; (401d60 <chip_deinit+0xb8>)
  401cf8:	47a0      	blx	r4
		return ret;
  401cfa:	4628      	mov	r0, r5
  401cfc:	e024      	b.n	401d48 <chip_deinit+0xa0>
  401cfe:	240a      	movs	r4, #10
	}

	do {
		ret = nm_read_reg_with_ret(NMI_GLB_RESET_0, &reg);
  401d00:	4e12      	ldr	r6, [pc, #72]	; (401d4c <chip_deinit+0xa4>)
		}
		/*Workaround to ensure that the chip is actually reset*/
		if ((reg & (1 << 10))) {
			M2M_DBG("Bit 10 not reset retry %d\n", timeout);
			reg &= ~(1 << 10);
			ret = nm_write_reg(NMI_GLB_RESET_0, reg);
  401d02:	4f18      	ldr	r7, [pc, #96]	; (401d64 <chip_deinit+0xbc>)
		M2M_ERR("Error while writing reg\n");
		return ret;
	}

	do {
		ret = nm_read_reg_with_ret(NMI_GLB_RESET_0, &reg);
  401d04:	a901      	add	r1, sp, #4
  401d06:	f44f 50a0 	mov.w	r0, #5120	; 0x1400
  401d0a:	47b0      	blx	r6
		if (ret != M2M_SUCCESS) {
  401d0c:	4605      	mov	r5, r0
  401d0e:	b158      	cbz	r0, 401d28 <chip_deinit+0x80>
			M2M_ERR("Error while reading reg\n");
  401d10:	f240 223e 	movw	r2, #574	; 0x23e
  401d14:	490e      	ldr	r1, [pc, #56]	; (401d50 <chip_deinit+0xa8>)
  401d16:	480f      	ldr	r0, [pc, #60]	; (401d54 <chip_deinit+0xac>)
  401d18:	4c0f      	ldr	r4, [pc, #60]	; (401d58 <chip_deinit+0xb0>)
  401d1a:	47a0      	blx	r4
  401d1c:	4813      	ldr	r0, [pc, #76]	; (401d6c <chip_deinit+0xc4>)
  401d1e:	47a0      	blx	r4
  401d20:	480f      	ldr	r0, [pc, #60]	; (401d60 <chip_deinit+0xb8>)
  401d22:	47a0      	blx	r4
		M2M_ERR("Error while writing reg\n");
		return ret;
	}

	do {
		ret = nm_read_reg_with_ret(NMI_GLB_RESET_0, &reg);
  401d24:	4628      	mov	r0, r5
		if (ret != M2M_SUCCESS) {
			M2M_ERR("Error while reading reg\n");
			return ret;
  401d26:	e00f      	b.n	401d48 <chip_deinit+0xa0>
		}
		/*Workaround to ensure that the chip is actually reset*/
		if ((reg & (1 << 10))) {
  401d28:	9901      	ldr	r1, [sp, #4]
  401d2a:	f411 6f80 	tst.w	r1, #1024	; 0x400
  401d2e:	d00a      	beq.n	401d46 <chip_deinit+0x9e>
			M2M_DBG("Bit 10 not reset retry %d\n", timeout);
			reg &= ~(1 << 10);
  401d30:	f421 6180 	bic.w	r1, r1, #1024	; 0x400
  401d34:	9101      	str	r1, [sp, #4]
			ret = nm_write_reg(NMI_GLB_RESET_0, reg);
  401d36:	f44f 50a0 	mov.w	r0, #5120	; 0x1400
  401d3a:	47b8      	blx	r7
  401d3c:	1e63      	subs	r3, r4, #1
			timeout--;
		} else {
			break;
		}

	} while (timeout);
  401d3e:	f013 04ff 	ands.w	r4, r3, #255	; 0xff
  401d42:	d1df      	bne.n	401d04 <chip_deinit+0x5c>
  401d44:	e000      	b.n	401d48 <chip_deinit+0xa0>
		M2M_ERR("Error while writing reg\n");
		return ret;
	}

	do {
		ret = nm_read_reg_with_ret(NMI_GLB_RESET_0, &reg);
  401d46:	2000      	movs	r0, #0
		}

	} while (timeout);

	return ret;
}
  401d48:	b003      	add	sp, #12
  401d4a:	bdf0      	pop	{r4, r5, r6, r7, pc}
  401d4c:	00401d95 	.word	0x00401d95
  401d50:	00408704 	.word	0x00408704
  401d54:	00408108 	.word	0x00408108
  401d58:	004046b5 	.word	0x004046b5
  401d5c:	004087bc 	.word	0x004087bc
  401d60:	00408134 	.word	0x00408134
  401d64:	00401da1 	.word	0x00401da1
  401d68:	004087d8 	.word	0x004087d8
  401d6c:	004087f4 	.word	0x004087f4

00401d70 <nm_bus_iface_init>:
*	@author	M. Abdelmawla
*	@date	11 July 2012
*	@version	1.0
*/
sint8 nm_bus_iface_init(void *pvInitVal)
{
  401d70:	b508      	push	{r3, lr}
	sint8 ret = M2M_SUCCESS;
	ret = nm_bus_init(pvInitVal);
  401d72:	4b01      	ldr	r3, [pc, #4]	; (401d78 <nm_bus_iface_init+0x8>)
  401d74:	4798      	blx	r3

	return ret;
}
  401d76:	bd08      	pop	{r3, pc}
  401d78:	0040084d 	.word	0x0040084d

00401d7c <nm_bus_iface_deinit>:
*	@author	Samer Sarhan
*	@date	07 April 2014
*	@version	1.0
*/
sint8 nm_bus_iface_deinit(void)
{
  401d7c:	b508      	push	{r3, lr}
	sint8 ret = M2M_SUCCESS;
	ret = nm_bus_deinit();
  401d7e:	4b01      	ldr	r3, [pc, #4]	; (401d84 <nm_bus_iface_deinit+0x8>)
  401d80:	4798      	blx	r3

	return ret;
}
  401d82:	bd08      	pop	{r3, pc}
  401d84:	00400a39 	.word	0x00400a39

00401d88 <nm_read_reg>:
*	@author	M. Abdelmawla
*	@date	11 July 2012
*	@version	1.0
*/
uint32 nm_read_reg(uint32 u32Addr)
{
  401d88:	b508      	push	{r3, lr}
#ifdef CONF_WINC_USE_UART
	return nm_uart_read_reg(u32Addr);
#elif defined (CONF_WINC_USE_SPI)
	return nm_spi_read_reg(u32Addr);
  401d8a:	4b01      	ldr	r3, [pc, #4]	; (401d90 <nm_read_reg+0x8>)
  401d8c:	4798      	blx	r3
	return nm_i2c_read_reg(u32Addr);
#else
#error "Plesae define bus usage"
#endif

}
  401d8e:	bd08      	pop	{r3, pc}
  401d90:	004025d9 	.word	0x004025d9

00401d94 <nm_read_reg_with_ret>:
*	@author	M. Abdelmawla
*	@date	11 July 2012
*	@version	1.0
*/
sint8 nm_read_reg_with_ret(uint32 u32Addr, uint32* pu32RetVal)
{
  401d94:	b508      	push	{r3, lr}
#ifdef CONF_WINC_USE_UART
	return nm_uart_read_reg_with_ret(u32Addr,pu32RetVal);
#elif defined (CONF_WINC_USE_SPI)
	return nm_spi_read_reg_with_ret(u32Addr,pu32RetVal);
  401d96:	4b01      	ldr	r3, [pc, #4]	; (401d9c <nm_read_reg_with_ret+0x8>)
  401d98:	4798      	blx	r3
#elif defined (CONF_WINC_USE_I2C)
	return nm_i2c_read_reg_with_ret(u32Addr,pu32RetVal);
#else
#error "Plesae define bus usage"
#endif
}
  401d9a:	bd08      	pop	{r3, pc}
  401d9c:	004025f1 	.word	0x004025f1

00401da0 <nm_write_reg>:
*	@author	M. Abdelmawla
*	@date	11 July 2012
*	@version	1.0
*/
sint8 nm_write_reg(uint32 u32Addr, uint32 u32Val)
{
  401da0:	b508      	push	{r3, lr}
#ifdef CONF_WINC_USE_UART
	return nm_uart_write_reg(u32Addr,u32Val);
#elif defined (CONF_WINC_USE_SPI)
	return nm_spi_write_reg(u32Addr,u32Val);
  401da2:	4b01      	ldr	r3, [pc, #4]	; (401da8 <nm_write_reg+0x8>)
  401da4:	4798      	blx	r3
#elif defined (CONF_WINC_USE_I2C)
	return nm_i2c_write_reg(u32Addr,u32Val);
#else
#error "Plesae define bus usage"
#endif
}
  401da6:	bd08      	pop	{r3, pc}
  401da8:	00402609 	.word	0x00402609

00401dac <nm_read_block>:
*	@author	M. Abdelmawla
*	@date	11 July 2012
*	@version	1.0
*/
sint8 nm_read_block(uint32 u32Addr, uint8 *puBuf, uint32 u32Sz)
{
  401dac:	e92d 47f0 	stmdb	sp!, {r4, r5, r6, r7, r8, r9, sl, lr}
  401db0:	4607      	mov	r7, r0
  401db2:	4689      	mov	r9, r1
  401db4:	4615      	mov	r5, r2
	uint16 u16MaxTrxSz = egstrNmBusCapabilities.u16MaxTrxSz - MAX_TRX_CFG_SZ;
  401db6:	4b13      	ldr	r3, [pc, #76]	; (401e04 <nm_read_block+0x58>)
  401db8:	f8b3 8000 	ldrh.w	r8, [r3]
  401dbc:	f1a8 0808 	sub.w	r8, r8, #8
  401dc0:	fa1f f888 	uxth.w	r8, r8
	uint32 off = 0;
	sint8 s8Ret = M2M_SUCCESS;

	for(;;)
	{
		if(u32Sz <= u16MaxTrxSz)
  401dc4:	4542      	cmp	r2, r8
  401dc6:	d808      	bhi.n	401dda <nm_read_block+0x2e>
*	@version	1.0
*/
sint8 nm_read_block(uint32 u32Addr, uint8 *puBuf, uint32 u32Sz)
{
	uint16 u16MaxTrxSz = egstrNmBusCapabilities.u16MaxTrxSz - MAX_TRX_CFG_SZ;
	uint32 off = 0;
  401dc8:	2600      	movs	r6, #0
static sint8 p_nm_read_block(uint32 u32Addr, uint8 *puBuf, uint16 u16Sz)
{
#ifdef CONF_WINC_USE_UART
	return nm_uart_read_block(u32Addr,puBuf,u16Sz);
#elif defined (CONF_WINC_USE_SPI)
	return nm_spi_read_block(u32Addr,puBuf,u16Sz);
  401dca:	b2aa      	uxth	r2, r5
  401dcc:	eb09 0106 	add.w	r1, r9, r6
  401dd0:	4638      	mov	r0, r7
  401dd2:	4b0d      	ldr	r3, [pc, #52]	; (401e08 <nm_read_block+0x5c>)
  401dd4:	4798      	blx	r3
  401dd6:	4603      	mov	r3, r0
	for(;;)
	{
		if(u32Sz <= u16MaxTrxSz)
		{
			s8Ret += p_nm_read_block(u32Addr, &puBuf[off], (uint16)u32Sz);
			break;
  401dd8:	e010      	b.n	401dfc <nm_read_block+0x50>
  401dda:	4644      	mov	r4, r8
	uint32 off = 0;
	sint8 s8Ret = M2M_SUCCESS;

	for(;;)
	{
		if(u32Sz <= u16MaxTrxSz)
  401ddc:	2600      	movs	r6, #0
static sint8 p_nm_read_block(uint32 u32Addr, uint8 *puBuf, uint16 u16Sz)
{
#ifdef CONF_WINC_USE_UART
	return nm_uart_read_block(u32Addr,puBuf,u16Sz);
#elif defined (CONF_WINC_USE_SPI)
	return nm_spi_read_block(u32Addr,puBuf,u16Sz);
  401dde:	f8df a028 	ldr.w	sl, [pc, #40]	; 401e08 <nm_read_block+0x5c>
  401de2:	4642      	mov	r2, r8
  401de4:	eb09 0106 	add.w	r1, r9, r6
  401de8:	4638      	mov	r0, r7
  401dea:	47d0      	blx	sl
			break;
		}
		else
		{
			s8Ret += p_nm_read_block(u32Addr, &puBuf[off], u16MaxTrxSz);
			if(M2M_SUCCESS != s8Ret) break;
  401dec:	4603      	mov	r3, r0
  401dee:	b928      	cbnz	r0, 401dfc <nm_read_block+0x50>
			u32Sz -= u16MaxTrxSz;
  401df0:	1b2d      	subs	r5, r5, r4
			off += u16MaxTrxSz;
  401df2:	4426      	add	r6, r4
			u32Addr += u16MaxTrxSz;
  401df4:	4427      	add	r7, r4
	uint32 off = 0;
	sint8 s8Ret = M2M_SUCCESS;

	for(;;)
	{
		if(u32Sz <= u16MaxTrxSz)
  401df6:	42a5      	cmp	r5, r4
  401df8:	d8f3      	bhi.n	401de2 <nm_read_block+0x36>
  401dfa:	e7e6      	b.n	401dca <nm_read_block+0x1e>
			u32Addr += u16MaxTrxSz;
		}
	}

	return s8Ret;
}
  401dfc:	4618      	mov	r0, r3
  401dfe:	e8bd 87f0 	ldmia.w	sp!, {r4, r5, r6, r7, r8, r9, sl, pc}
  401e02:	bf00      	nop
  401e04:	2040000c 	.word	0x2040000c
  401e08:	0040272d 	.word	0x0040272d

00401e0c <nm_write_block>:
*	@author	M. Abdelmawla
*	@date	11 July 2012
*	@version	1.0
*/
sint8 nm_write_block(uint32 u32Addr, uint8 *puBuf, uint32 u32Sz)
{
  401e0c:	e92d 47f0 	stmdb	sp!, {r4, r5, r6, r7, r8, r9, sl, lr}
  401e10:	4607      	mov	r7, r0
  401e12:	4689      	mov	r9, r1
  401e14:	4615      	mov	r5, r2
	uint16 u16MaxTrxSz = egstrNmBusCapabilities.u16MaxTrxSz - MAX_TRX_CFG_SZ;
  401e16:	4b13      	ldr	r3, [pc, #76]	; (401e64 <nm_write_block+0x58>)
  401e18:	f8b3 8000 	ldrh.w	r8, [r3]
  401e1c:	f1a8 0808 	sub.w	r8, r8, #8
  401e20:	fa1f f888 	uxth.w	r8, r8
	uint32 off = 0;
	sint8 s8Ret = M2M_SUCCESS;

	for(;;)
	{
		if(u32Sz <= u16MaxTrxSz)
  401e24:	4542      	cmp	r2, r8
  401e26:	d808      	bhi.n	401e3a <nm_write_block+0x2e>
*	@version	1.0
*/
sint8 nm_write_block(uint32 u32Addr, uint8 *puBuf, uint32 u32Sz)
{
	uint16 u16MaxTrxSz = egstrNmBusCapabilities.u16MaxTrxSz - MAX_TRX_CFG_SZ;
	uint32 off = 0;
  401e28:	2600      	movs	r6, #0
static sint8 p_nm_write_block(uint32 u32Addr, uint8 *puBuf, uint16 u16Sz)
{
#ifdef CONF_WINC_USE_UART
	return nm_uart_write_block(u32Addr,puBuf,u16Sz);
#elif defined (CONF_WINC_USE_SPI)
	return nm_spi_write_block(u32Addr,puBuf,u16Sz);
  401e2a:	b2aa      	uxth	r2, r5
  401e2c:	eb09 0106 	add.w	r1, r9, r6
  401e30:	4638      	mov	r0, r7
  401e32:	4b0d      	ldr	r3, [pc, #52]	; (401e68 <nm_write_block+0x5c>)
  401e34:	4798      	blx	r3
  401e36:	4603      	mov	r3, r0
	for(;;)
	{
		if(u32Sz <= u16MaxTrxSz)
		{
			s8Ret += p_nm_write_block(u32Addr, &puBuf[off], (uint16)u32Sz);
			break;
  401e38:	e010      	b.n	401e5c <nm_write_block+0x50>
  401e3a:	4644      	mov	r4, r8
	uint32 off = 0;
	sint8 s8Ret = M2M_SUCCESS;

	for(;;)
	{
		if(u32Sz <= u16MaxTrxSz)
  401e3c:	2600      	movs	r6, #0
static sint8 p_nm_write_block(uint32 u32Addr, uint8 *puBuf, uint16 u16Sz)
{
#ifdef CONF_WINC_USE_UART
	return nm_uart_write_block(u32Addr,puBuf,u16Sz);
#elif defined (CONF_WINC_USE_SPI)
	return nm_spi_write_block(u32Addr,puBuf,u16Sz);
  401e3e:	f8df a028 	ldr.w	sl, [pc, #40]	; 401e68 <nm_write_block+0x5c>
  401e42:	4642      	mov	r2, r8
  401e44:	eb09 0106 	add.w	r1, r9, r6
  401e48:	4638      	mov	r0, r7
  401e4a:	47d0      	blx	sl
			break;
		}
		else
		{
			s8Ret += p_nm_write_block(u32Addr, &puBuf[off], u16MaxTrxSz);
			if(M2M_SUCCESS != s8Ret) break;
  401e4c:	4603      	mov	r3, r0
  401e4e:	b928      	cbnz	r0, 401e5c <nm_write_block+0x50>
			u32Sz -= u16MaxTrxSz;
  401e50:	1b2d      	subs	r5, r5, r4
			off += u16MaxTrxSz;
  401e52:	4426      	add	r6, r4
			u32Addr += u16MaxTrxSz;
  401e54:	4427      	add	r7, r4
	uint32 off = 0;
	sint8 s8Ret = M2M_SUCCESS;

	for(;;)
	{
		if(u32Sz <= u16MaxTrxSz)
  401e56:	42a5      	cmp	r5, r4
  401e58:	d8f3      	bhi.n	401e42 <nm_write_block+0x36>
  401e5a:	e7e6      	b.n	401e2a <nm_write_block+0x1e>
			u32Addr += u16MaxTrxSz;
		}
	}

	return s8Ret;
}
  401e5c:	4618      	mov	r0, r3
  401e5e:	e8bd 87f0 	ldmia.w	sp!, {r4, r5, r6, r7, r8, r9, sl, pc}
  401e62:	bf00      	nop
  401e64:	2040000c 	.word	0x2040000c
  401e68:	004027f9 	.word	0x004027f9

00401e6c <nm_get_firmware_info>:
*	@param [out]	M2mRev
*			    pointer holds address of structure "tstrM2mRev" that contains the firmware version parameters
*	@version	1.0
*/
sint8 nm_get_firmware_info(tstrM2mRev* M2mRev)
{
  401e6c:	b530      	push	{r4, r5, lr}
  401e6e:	b083      	sub	sp, #12
  401e70:	4604      	mov	r4, r0
	uint16  curr_drv_ver, min_req_drv_ver,curr_firm_ver;
	uint32	reg = 0;
  401e72:	a902      	add	r1, sp, #8
  401e74:	2300      	movs	r3, #0
  401e76:	f841 3d04 	str.w	r3, [r1, #-4]!
	sint8	ret = M2M_SUCCESS;

	ret = nm_read_reg_with_ret(NMI_REV_REG, &reg);
  401e7a:	4823      	ldr	r0, [pc, #140]	; (401f08 <nm_get_firmware_info+0x9c>)
  401e7c:	4b23      	ldr	r3, [pc, #140]	; (401f0c <nm_get_firmware_info+0xa0>)
  401e7e:	4798      	blx	r3
  401e80:	4605      	mov	r5, r0
	//In case the Firmware running is ATE fw
	if(M2M_ATE_FW_IS_UP_VALUE == reg)
  401e82:	9a01      	ldr	r2, [sp, #4]
  401e84:	4b22      	ldr	r3, [pc, #136]	; (401f10 <nm_get_firmware_info+0xa4>)
  401e86:	429a      	cmp	r2, r3
  401e88:	d105      	bne.n	401e96 <nm_get_firmware_info+0x2a>
	{
		//Read FW info again from the register specified for ATE
		ret = nm_read_reg_with_ret(NMI_REV_REG_ATE, &reg);
  401e8a:	a901      	add	r1, sp, #4
  401e8c:	f241 0048 	movw	r0, #4168	; 0x1048
  401e90:	4b1e      	ldr	r3, [pc, #120]	; (401f0c <nm_get_firmware_info+0xa0>)
  401e92:	4798      	blx	r3
  401e94:	4605      	mov	r5, r0
	}
	M2mRev->u8DriverMajor	= M2M_GET_DRV_MAJOR(reg);
  401e96:	9b01      	ldr	r3, [sp, #4]
  401e98:	0c1a      	lsrs	r2, r3, #16
  401e9a:	1211      	asrs	r1, r2, #8
  401e9c:	71e1      	strb	r1, [r4, #7]
	M2mRev->u8DriverMinor   = M2M_GET_DRV_MINOR(reg);
  401e9e:	f3c2 1103 	ubfx	r1, r2, #4, #4
  401ea2:	7221      	strb	r1, [r4, #8]
	M2mRev->u8DriverPatch	= M2M_GET_DRV_PATCH(reg);
  401ea4:	f002 020f 	and.w	r2, r2, #15
  401ea8:	7262      	strb	r2, [r4, #9]
	M2mRev->u8FirmwareMajor	= M2M_GET_FW_MAJOR(reg);
  401eaa:	121a      	asrs	r2, r3, #8
  401eac:	7122      	strb	r2, [r4, #4]
	M2mRev->u8FirmwareMinor = M2M_GET_FW_MINOR(reg);
  401eae:	f3c3 1203 	ubfx	r2, r3, #4, #4
  401eb2:	7162      	strb	r2, [r4, #5]
	M2mRev->u8FirmwarePatch = M2M_GET_FW_PATCH(reg);
  401eb4:	f003 030f 	and.w	r3, r3, #15
  401eb8:	71a3      	strb	r3, [r4, #6]
	M2mRev->u32Chipid	= nmi_get_chipid();
  401eba:	4b16      	ldr	r3, [pc, #88]	; (401f14 <nm_get_firmware_info+0xa8>)
  401ebc:	4798      	blx	r3
  401ebe:	6020      	str	r0, [r4, #0]
	
	curr_firm_ver   = M2M_MAKE_VERSION(M2mRev->u8FirmwareMajor, M2mRev->u8FirmwareMinor,M2mRev->u8FirmwarePatch);
  401ec0:	7922      	ldrb	r2, [r4, #4]
  401ec2:	79a3      	ldrb	r3, [r4, #6]
  401ec4:	f003 030f 	and.w	r3, r3, #15
  401ec8:	ea43 2202 	orr.w	r2, r3, r2, lsl #8
  401ecc:	7963      	ldrb	r3, [r4, #5]
  401ece:	011b      	lsls	r3, r3, #4
  401ed0:	b2db      	uxtb	r3, r3
  401ed2:	4313      	orrs	r3, r2
	curr_drv_ver    = M2M_MAKE_VERSION(M2M_DRIVER_VERSION_MAJOR_NO, M2M_DRIVER_VERSION_MINOR_NO, M2M_DRIVER_VERSION_PATCH_NO);
	min_req_drv_ver = M2M_MAKE_VERSION(M2mRev->u8DriverMajor, M2mRev->u8DriverMinor,M2mRev->u8DriverPatch);
	if(curr_drv_ver <  min_req_drv_ver) {
  401ed4:	79e1      	ldrb	r1, [r4, #7]
  401ed6:	7a62      	ldrb	r2, [r4, #9]
  401ed8:	f002 020f 	and.w	r2, r2, #15
  401edc:	ea42 2101 	orr.w	r1, r2, r1, lsl #8
  401ee0:	7a22      	ldrb	r2, [r4, #8]
  401ee2:	0112      	lsls	r2, r2, #4
  401ee4:	b2d2      	uxtb	r2, r2
  401ee6:	430a      	orrs	r2, r1
  401ee8:	f241 3130 	movw	r1, #4912	; 0x1330
		/*The current driver version should be larger or equal 
		than the min driver that the current firmware support  */
		ret = M2M_ERR_FW_VER_MISMATCH;
  401eec:	428a      	cmp	r2, r1
  401eee:	bf88      	it	hi
  401ef0:	f06f 050c 	mvnhi.w	r5, #12
	}
	if(curr_drv_ver >  curr_firm_ver) {
  401ef4:	f241 322f 	movw	r2, #4911	; 0x132f
		/*The current driver should be equal or less than the firmware version*/
		ret = M2M_ERR_FW_VER_MISMATCH;
  401ef8:	4293      	cmp	r3, r2
	}
	return ret;
}
  401efa:	bf8c      	ite	hi
  401efc:	4628      	movhi	r0, r5
  401efe:	f06f 000c 	mvnls.w	r0, #12
  401f02:	b003      	add	sp, #12
  401f04:	bd30      	pop	{r4, r5, pc}
  401f06:	bf00      	nop
  401f08:	000207ac 	.word	0x000207ac
  401f0c:	00401d95 	.word	0x00401d95
  401f10:	d75dc1c3 	.word	0xd75dc1c3
  401f14:	00401a9d 	.word	0x00401a9d

00401f18 <nm_drv_init>:
*	@author	M. Abdelmawla
*	@date	15 July 2012
*	@version	1.0
*/
sint8 nm_drv_init(void * arg)
{
  401f18:	b538      	push	{r3, r4, r5, lr}
	sint8 ret = M2M_SUCCESS;
	uint8 u8Mode;
	
	if(NULL != arg) {
  401f1a:	b130      	cbz	r0, 401f2a <nm_drv_init+0x12>
		u8Mode = *((uint8 *)arg);
  401f1c:	7804      	ldrb	r4, [r0, #0]
		if((u8Mode < M2M_WIFI_MODE_NORMAL)||(u8Mode >= M2M_WIFI_MODE_MAX)) {
  401f1e:	1e63      	subs	r3, r4, #1
  401f20:	b2db      	uxtb	r3, r3
			u8Mode = M2M_WIFI_MODE_NORMAL;
  401f22:	2b04      	cmp	r3, #4
  401f24:	bf28      	it	cs
  401f26:	2401      	movcs	r4, #1
  401f28:	e000      	b.n	401f2c <nm_drv_init+0x14>
		}
	} else {
		u8Mode = M2M_WIFI_MODE_NORMAL;
  401f2a:	2401      	movs	r4, #1
	}
	
	ret = nm_bus_iface_init(NULL);
  401f2c:	2000      	movs	r0, #0
  401f2e:	4b1d      	ldr	r3, [pc, #116]	; (401fa4 <nm_drv_init+0x8c>)
  401f30:	4798      	blx	r3
	if (M2M_SUCCESS != ret) {
  401f32:	4605      	mov	r5, r0
  401f34:	b150      	cbz	r0, 401f4c <nm_drv_init+0x34>
		M2M_ERR("[nmi start]: fail init bus\n");
  401f36:	f44f 7292 	mov.w	r2, #292	; 0x124
  401f3a:	491b      	ldr	r1, [pc, #108]	; (401fa8 <nm_drv_init+0x90>)
  401f3c:	481b      	ldr	r0, [pc, #108]	; (401fac <nm_drv_init+0x94>)
  401f3e:	4c1c      	ldr	r4, [pc, #112]	; (401fb0 <nm_drv_init+0x98>)
  401f40:	47a0      	blx	r4
  401f42:	481c      	ldr	r0, [pc, #112]	; (401fb4 <nm_drv_init+0x9c>)
  401f44:	47a0      	blx	r4
  401f46:	481c      	ldr	r0, [pc, #112]	; (401fb8 <nm_drv_init+0xa0>)
  401f48:	47a0      	blx	r4
		goto ERR1;
  401f4a:	e029      	b.n	401fa0 <nm_drv_init+0x88>
	ret = chip_reset();
	if (M2M_SUCCESS != ret) {
		goto ERR2;
	}
#endif
	M2M_INFO("Chip ID %lx\n", nmi_get_chipid());
  401f4c:	481b      	ldr	r0, [pc, #108]	; (401fbc <nm_drv_init+0xa4>)
  401f4e:	4d18      	ldr	r5, [pc, #96]	; (401fb0 <nm_drv_init+0x98>)
  401f50:	47a8      	blx	r5
  401f52:	4b1b      	ldr	r3, [pc, #108]	; (401fc0 <nm_drv_init+0xa8>)
  401f54:	4798      	blx	r3
  401f56:	4601      	mov	r1, r0
  401f58:	481a      	ldr	r0, [pc, #104]	; (401fc4 <nm_drv_init+0xac>)
  401f5a:	47a8      	blx	r5
  401f5c:	4816      	ldr	r0, [pc, #88]	; (401fb8 <nm_drv_init+0xa0>)
  401f5e:	47a8      	blx	r5
#ifdef CONF_WINC_USE_SPI
	/* Must do this after global reset to set SPI data packet size. */
	nm_spi_init();
  401f60:	4b19      	ldr	r3, [pc, #100]	; (401fc8 <nm_drv_init+0xb0>)
  401f62:	4798      	blx	r3
	ret = cpu_start();
	if (M2M_SUCCESS != ret) {
		goto ERR2;
	}
#endif
	ret = wait_for_bootrom(u8Mode);
  401f64:	4620      	mov	r0, r4
  401f66:	4b19      	ldr	r3, [pc, #100]	; (401fcc <nm_drv_init+0xb4>)
  401f68:	4798      	blx	r3
	if (M2M_SUCCESS != ret) {
  401f6a:	4605      	mov	r5, r0
  401f6c:	b9b0      	cbnz	r0, 401f9c <nm_drv_init+0x84>
		goto ERR2;
	}
		
	ret = wait_for_firmware_start(u8Mode);
  401f6e:	4620      	mov	r0, r4
  401f70:	4b17      	ldr	r3, [pc, #92]	; (401fd0 <nm_drv_init+0xb8>)
  401f72:	4798      	blx	r3
	if (M2M_SUCCESS != ret) {
  401f74:	4605      	mov	r5, r0
  401f76:	b988      	cbnz	r0, 401f9c <nm_drv_init+0x84>
		goto ERR2;
	}
	
	if((M2M_WIFI_MODE_ATE_HIGH == u8Mode)||(M2M_WIFI_MODE_ATE_LOW == u8Mode)) {
  401f78:	3c02      	subs	r4, #2
  401f7a:	b2e4      	uxtb	r4, r4
  401f7c:	2c01      	cmp	r4, #1
  401f7e:	d90f      	bls.n	401fa0 <nm_drv_init+0x88>
		goto ERR1;
	} else {
		/*continue running*/
	}
	
	ret = enable_interrupts();
  401f80:	4b14      	ldr	r3, [pc, #80]	; (401fd4 <nm_drv_init+0xbc>)
  401f82:	4798      	blx	r3
	if (M2M_SUCCESS != ret) {
  401f84:	4605      	mov	r5, r0
  401f86:	b158      	cbz	r0, 401fa0 <nm_drv_init+0x88>
		M2M_ERR("failed to enable interrupts..\n");
  401f88:	f44f 72ae 	mov.w	r2, #348	; 0x15c
  401f8c:	4906      	ldr	r1, [pc, #24]	; (401fa8 <nm_drv_init+0x90>)
  401f8e:	4807      	ldr	r0, [pc, #28]	; (401fac <nm_drv_init+0x94>)
  401f90:	4c07      	ldr	r4, [pc, #28]	; (401fb0 <nm_drv_init+0x98>)
  401f92:	47a0      	blx	r4
  401f94:	4810      	ldr	r0, [pc, #64]	; (401fd8 <nm_drv_init+0xc0>)
  401f96:	47a0      	blx	r4
  401f98:	4807      	ldr	r0, [pc, #28]	; (401fb8 <nm_drv_init+0xa0>)
  401f9a:	47a0      	blx	r4
		goto ERR2;
	}
	
	return ret;
ERR2:
	nm_bus_iface_deinit();
  401f9c:	4b0f      	ldr	r3, [pc, #60]	; (401fdc <nm_drv_init+0xc4>)
  401f9e:	4798      	blx	r3
ERR1:
	return ret;
}
  401fa0:	4628      	mov	r0, r5
  401fa2:	bd38      	pop	{r3, r4, r5, pc}
  401fa4:	00401d71 	.word	0x00401d71
  401fa8:	004088fc 	.word	0x004088fc
  401fac:	00408108 	.word	0x00408108
  401fb0:	004046b5 	.word	0x004046b5
  401fb4:	00408850 	.word	0x00408850
  401fb8:	00408134 	.word	0x00408134
  401fbc:	004083cc 	.word	0x004083cc
  401fc0:	00401a9d 	.word	0x00401a9d
  401fc4:	0040886c 	.word	0x0040886c
  401fc8:	00402621 	.word	0x00402621
  401fcc:	00401b4d 	.word	0x00401b4d
  401fd0:	00401c29 	.word	0x00401c29
  401fd4:	00401a35 	.word	0x00401a35
  401fd8:	0040887c 	.word	0x0040887c
  401fdc:	00401d7d 	.word	0x00401d7d

00401fe0 <nm_drv_deinit>:
*	@author	M. Abdelmawla
*	@date	17 July 2012
*	@version	1.0
*/
sint8 nm_drv_deinit(void * arg)
{
  401fe0:	b538      	push	{r3, r4, r5, lr}
	sint8 ret;

	ret = chip_deinit();
  401fe2:	4b19      	ldr	r3, [pc, #100]	; (402048 <nm_drv_deinit+0x68>)
  401fe4:	4798      	blx	r3
	if (M2M_SUCCESS != ret) {
  401fe6:	b158      	cbz	r0, 402000 <nm_drv_deinit+0x20>
  401fe8:	4604      	mov	r4, r0
		M2M_ERR("[nmi stop]: chip_deinit fail\n");
  401fea:	f44f 72ba 	mov.w	r2, #372	; 0x174
  401fee:	4917      	ldr	r1, [pc, #92]	; (40204c <nm_drv_deinit+0x6c>)
  401ff0:	4817      	ldr	r0, [pc, #92]	; (402050 <nm_drv_deinit+0x70>)
  401ff2:	4d18      	ldr	r5, [pc, #96]	; (402054 <nm_drv_deinit+0x74>)
  401ff4:	47a8      	blx	r5
  401ff6:	4818      	ldr	r0, [pc, #96]	; (402058 <nm_drv_deinit+0x78>)
  401ff8:	47a8      	blx	r5
  401ffa:	4818      	ldr	r0, [pc, #96]	; (40205c <nm_drv_deinit+0x7c>)
  401ffc:	47a8      	blx	r5
		goto ERR1;
  401ffe:	e020      	b.n	402042 <nm_drv_deinit+0x62>
	}
	
	/* Disable SPI flash to save power when the chip is off */
	ret = spi_flash_enable(0);
  402000:	2000      	movs	r0, #0
  402002:	4b17      	ldr	r3, [pc, #92]	; (402060 <nm_drv_deinit+0x80>)
  402004:	4798      	blx	r3
	if (M2M_SUCCESS != ret) {
  402006:	4604      	mov	r4, r0
  402008:	b150      	cbz	r0, 402020 <nm_drv_deinit+0x40>
		M2M_ERR("[nmi stop]: SPI flash disable fail\n");
  40200a:	f240 127b 	movw	r2, #379	; 0x17b
  40200e:	490f      	ldr	r1, [pc, #60]	; (40204c <nm_drv_deinit+0x6c>)
  402010:	480f      	ldr	r0, [pc, #60]	; (402050 <nm_drv_deinit+0x70>)
  402012:	4d10      	ldr	r5, [pc, #64]	; (402054 <nm_drv_deinit+0x74>)
  402014:	47a8      	blx	r5
  402016:	4813      	ldr	r0, [pc, #76]	; (402064 <nm_drv_deinit+0x84>)
  402018:	47a8      	blx	r5
  40201a:	4810      	ldr	r0, [pc, #64]	; (40205c <nm_drv_deinit+0x7c>)
  40201c:	47a8      	blx	r5
		goto ERR1;
  40201e:	e010      	b.n	402042 <nm_drv_deinit+0x62>
	}

	ret = nm_bus_iface_deinit();
  402020:	4b11      	ldr	r3, [pc, #68]	; (402068 <nm_drv_deinit+0x88>)
  402022:	4798      	blx	r3
	if (M2M_SUCCESS != ret) {
  402024:	4604      	mov	r4, r0
  402026:	b150      	cbz	r0, 40203e <nm_drv_deinit+0x5e>
		M2M_ERR("[nmi stop]: fail init bus\n");
  402028:	f240 1281 	movw	r2, #385	; 0x181
  40202c:	4907      	ldr	r1, [pc, #28]	; (40204c <nm_drv_deinit+0x6c>)
  40202e:	4808      	ldr	r0, [pc, #32]	; (402050 <nm_drv_deinit+0x70>)
  402030:	4d08      	ldr	r5, [pc, #32]	; (402054 <nm_drv_deinit+0x74>)
  402032:	47a8      	blx	r5
  402034:	480d      	ldr	r0, [pc, #52]	; (40206c <nm_drv_deinit+0x8c>)
  402036:	47a8      	blx	r5
  402038:	4808      	ldr	r0, [pc, #32]	; (40205c <nm_drv_deinit+0x7c>)
  40203a:	47a8      	blx	r5
		goto ERR1;
  40203c:	e001      	b.n	402042 <nm_drv_deinit+0x62>
	}
#ifdef CONF_WINC_USE_SPI
	/* Must do this after global reset to set SPI data packet size. */
	nm_spi_deinit();
  40203e:	4b0c      	ldr	r3, [pc, #48]	; (402070 <nm_drv_deinit+0x90>)
  402040:	4798      	blx	r3
#endif

ERR1:
	return ret;
}
  402042:	4620      	mov	r0, r4
  402044:	bd38      	pop	{r3, r4, r5, pc}
  402046:	bf00      	nop
  402048:	00401ca9 	.word	0x00401ca9
  40204c:	00408908 	.word	0x00408908
  402050:	00408108 	.word	0x00408108
  402054:	004046b5 	.word	0x004046b5
  402058:	0040889c 	.word	0x0040889c
  40205c:	00408134 	.word	0x00408134
  402060:	004030ed 	.word	0x004030ed
  402064:	004088bc 	.word	0x004088bc
  402068:	00401d7d 	.word	0x00401d7d
  40206c:	004088e0 	.word	0x004088e0
  402070:	004025cd 	.word	0x004025cd

00402074 <nmi_spi_read>:
#define DATA_PKT_SZ				DATA_PKT_SZ_8K

static uint8 	gu8Crc_off	=   0;

static sint8 nmi_spi_read(uint8* b, uint16 sz)
{
  402074:	b500      	push	{lr}
  402076:	b085      	sub	sp, #20
	tstrNmSpiRw spi;
	spi.pu8InBuf = NULL;
  402078:	2300      	movs	r3, #0
  40207a:	9301      	str	r3, [sp, #4]
	spi.pu8OutBuf = b;
  40207c:	9002      	str	r0, [sp, #8]
	spi.u16Sz = sz;
  40207e:	f8ad 100c 	strh.w	r1, [sp, #12]
	return nm_bus_ioctl(NM_BUS_IOCTL_RW, &spi);
  402082:	a901      	add	r1, sp, #4
  402084:	2003      	movs	r0, #3
  402086:	4b02      	ldr	r3, [pc, #8]	; (402090 <nmi_spi_read+0x1c>)
  402088:	4798      	blx	r3
}
  40208a:	b005      	add	sp, #20
  40208c:	f85d fb04 	ldr.w	pc, [sp], #4
  402090:	00400969 	.word	0x00400969

00402094 <spi_cmd_rsp>:

	return result;
}

static sint8 spi_cmd_rsp(uint8 cmd)
{
  402094:	b5f0      	push	{r4, r5, r6, r7, lr}
  402096:	b083      	sub	sp, #12
  402098:	4605      	mov	r5, r0

	/**
		Command/Control response
	**/
	if ((cmd == CMD_RESET) ||
		 (cmd == CMD_TERMINATE) ||
  40209a:	f100 033b 	add.w	r3, r0, #59	; 0x3b
  40209e:	b2db      	uxtb	r3, r3
  4020a0:	2b01      	cmp	r3, #1
  4020a2:	d901      	bls.n	4020a8 <spi_cmd_rsp+0x14>
  4020a4:	28cf      	cmp	r0, #207	; 0xcf
  4020a6:	d106      	bne.n	4020b6 <spi_cmd_rsp+0x22>
		 (cmd == CMD_REPEAT)) {
		if (M2M_SUCCESS != nmi_spi_read(&rsp, 1)) {
  4020a8:	2101      	movs	r1, #1
  4020aa:	f10d 0007 	add.w	r0, sp, #7
  4020ae:	4b22      	ldr	r3, [pc, #136]	; (402138 <spi_cmd_rsp+0xa4>)
  4020b0:	4798      	blx	r3
  4020b2:	2800      	cmp	r0, #0
  4020b4:	d13a      	bne.n	40212c <spi_cmd_rsp+0x98>

	return result;
}

static sint8 spi_cmd_rsp(uint8 cmd)
{
  4020b6:	240b      	movs	r4, #11

	/* wait for response */
	s8RetryCnt = 10;
	do
	{
		if (M2M_SUCCESS != nmi_spi_read(&rsp, 1)) {
  4020b8:	2701      	movs	r7, #1
  4020ba:	4e1f      	ldr	r6, [pc, #124]	; (402138 <spi_cmd_rsp+0xa4>)
  4020bc:	4639      	mov	r1, r7
  4020be:	f10d 0007 	add.w	r0, sp, #7
  4020c2:	47b0      	blx	r6
  4020c4:	b158      	cbz	r0, 4020de <spi_cmd_rsp+0x4a>
			M2M_ERR("[nmi spi]: Failed cmd response read, bus error...\n");
  4020c6:	f240 1227 	movw	r2, #295	; 0x127
  4020ca:	491c      	ldr	r1, [pc, #112]	; (40213c <spi_cmd_rsp+0xa8>)
  4020cc:	481c      	ldr	r0, [pc, #112]	; (402140 <spi_cmd_rsp+0xac>)
  4020ce:	4c1d      	ldr	r4, [pc, #116]	; (402144 <spi_cmd_rsp+0xb0>)
  4020d0:	47a0      	blx	r4
  4020d2:	481d      	ldr	r0, [pc, #116]	; (402148 <spi_cmd_rsp+0xb4>)
  4020d4:	47a0      	blx	r4
  4020d6:	481d      	ldr	r0, [pc, #116]	; (40214c <spi_cmd_rsp+0xb8>)
  4020d8:	47a0      	blx	r4
			result = N_FAIL;
  4020da:	2000      	movs	r0, #0
			goto _fail_;
  4020dc:	e029      	b.n	402132 <spi_cmd_rsp+0x9e>
		}
	} while((rsp != cmd) && (s8RetryCnt-- >0));
  4020de:	f89d 3007 	ldrb.w	r3, [sp, #7]
  4020e2:	42ab      	cmp	r3, r5
  4020e4:	d005      	beq.n	4020f2 <spi_cmd_rsp+0x5e>
  4020e6:	1e63      	subs	r3, r4, #1
  4020e8:	f013 04ff 	ands.w	r4, r3, #255	; 0xff
  4020ec:	d1e6      	bne.n	4020bc <spi_cmd_rsp+0x28>
  4020ee:	240b      	movs	r4, #11
  4020f0:	e000      	b.n	4020f4 <spi_cmd_rsp+0x60>
  4020f2:	240b      	movs	r4, #11
	**/
	/* wait for response */
	s8RetryCnt = 10;
	do
	{
		if (M2M_SUCCESS != nmi_spi_read(&rsp, 1)) {
  4020f4:	2601      	movs	r6, #1
  4020f6:	4d10      	ldr	r5, [pc, #64]	; (402138 <spi_cmd_rsp+0xa4>)
  4020f8:	4631      	mov	r1, r6
  4020fa:	f10d 0007 	add.w	r0, sp, #7
  4020fe:	47a8      	blx	r5
  402100:	b158      	cbz	r0, 40211a <spi_cmd_rsp+0x86>
			M2M_ERR("[nmi spi]: Failed cmd response read, bus error...\n");
  402102:	f240 1235 	movw	r2, #309	; 0x135
  402106:	490d      	ldr	r1, [pc, #52]	; (40213c <spi_cmd_rsp+0xa8>)
  402108:	480d      	ldr	r0, [pc, #52]	; (402140 <spi_cmd_rsp+0xac>)
  40210a:	4c0e      	ldr	r4, [pc, #56]	; (402144 <spi_cmd_rsp+0xb0>)
  40210c:	47a0      	blx	r4
  40210e:	480e      	ldr	r0, [pc, #56]	; (402148 <spi_cmd_rsp+0xb4>)
  402110:	47a0      	blx	r4
  402112:	480e      	ldr	r0, [pc, #56]	; (40214c <spi_cmd_rsp+0xb8>)
  402114:	47a0      	blx	r4
			result = N_FAIL;
  402116:	2000      	movs	r0, #0
			goto _fail_;
  402118:	e00b      	b.n	402132 <spi_cmd_rsp+0x9e>
		}
	} while((rsp != 0x00) && (s8RetryCnt-- >0));
  40211a:	f89d 3007 	ldrb.w	r3, [sp, #7]
  40211e:	b13b      	cbz	r3, 402130 <spi_cmd_rsp+0x9c>
  402120:	1e63      	subs	r3, r4, #1
  402122:	f013 04ff 	ands.w	r4, r3, #255	; 0xff
  402126:	d1e7      	bne.n	4020f8 <spi_cmd_rsp+0x64>
}

static sint8 spi_cmd_rsp(uint8 cmd)
{
	uint8 rsp;
	sint8 result = N_OK;
  402128:	2001      	movs	r0, #1
  40212a:	e002      	b.n	402132 <spi_cmd_rsp+0x9e>
	**/
	if ((cmd == CMD_RESET) ||
		 (cmd == CMD_TERMINATE) ||
		 (cmd == CMD_REPEAT)) {
		if (M2M_SUCCESS != nmi_spi_read(&rsp, 1)) {
			result = N_FAIL;
  40212c:	2000      	movs	r0, #0
  40212e:	e000      	b.n	402132 <spi_cmd_rsp+0x9e>
}

static sint8 spi_cmd_rsp(uint8 cmd)
{
	uint8 rsp;
	sint8 result = N_OK;
  402130:	2001      	movs	r0, #1
	} while((rsp != 0x00) && (s8RetryCnt-- >0));

_fail_:

	return result;
}
  402132:	b003      	add	sp, #12
  402134:	bdf0      	pop	{r4, r5, r6, r7, pc}
  402136:	bf00      	nop
  402138:	00402075 	.word	0x00402075
  40213c:	00408f2c 	.word	0x00408f2c
  402140:	00408108 	.word	0x00408108
  402144:	004046b5 	.word	0x004046b5
  402148:	00408a50 	.word	0x00408a50
  40214c:	00408134 	.word	0x00408134

00402150 <spi_data_read>:

static sint8 spi_data_read(uint8 *b, uint16 sz,uint8 clockless)
{
  402150:	e92d 4ff0 	stmdb	sp!, {r4, r5, r6, r7, r8, r9, sl, fp, lr}
  402154:	b083      	sub	sp, #12
  402156:	4682      	mov	sl, r0
  402158:	4689      	mov	r9, r1
  40215a:	4693      	mov	fp, r2
	uint8 rsp;

	/**
		Data
	**/
	ix = 0;
  40215c:	f04f 0800 	mov.w	r8, #0
		/**
			Data Respnose header
		**/
		retry = 10;
		do {
			if (M2M_SUCCESS != nmi_spi_read(&rsp, 1)) {
  402160:	4d35      	ldr	r5, [pc, #212]	; (402238 <spi_data_read+0xe8>)
	/**
		Data
	**/
	ix = 0;
	do {
		if (sz <= DATA_PKT_SZ)
  402162:	f5b9 5f00 	cmp.w	r9, #8192	; 0x2000
			nbytes = sz;
  402166:	bf94      	ite	ls
  402168:	fa0f f789 	sxthls.w	r7, r9
		else
			nbytes = DATA_PKT_SZ;
  40216c:	f44f 5700 	movhi.w	r7, #8192	; 0x2000

		/**
			Data Respnose header
		**/
		retry = 10;
  402170:	240a      	movs	r4, #10
		do {
			if (M2M_SUCCESS != nmi_spi_read(&rsp, 1)) {
  402172:	2601      	movs	r6, #1
  402174:	4631      	mov	r1, r6
  402176:	f10d 0003 	add.w	r0, sp, #3
  40217a:	47a8      	blx	r5
  40217c:	b158      	cbz	r0, 402196 <spi_data_read+0x46>
				M2M_ERR("[nmi spi]: Failed data response read, bus error...\n");
  40217e:	f240 1257 	movw	r2, #343	; 0x157
  402182:	492e      	ldr	r1, [pc, #184]	; (40223c <spi_data_read+0xec>)
  402184:	482e      	ldr	r0, [pc, #184]	; (402240 <spi_data_read+0xf0>)
  402186:	4c2f      	ldr	r4, [pc, #188]	; (402244 <spi_data_read+0xf4>)
  402188:	47a0      	blx	r4
  40218a:	482f      	ldr	r0, [pc, #188]	; (402248 <spi_data_read+0xf8>)
  40218c:	47a0      	blx	r4
  40218e:	482f      	ldr	r0, [pc, #188]	; (40224c <spi_data_read+0xfc>)
  402190:	47a0      	blx	r4
  402192:	2000      	movs	r0, #0
  402194:	e04d      	b.n	402232 <spi_data_read+0xe2>
				result = N_FAIL;
				break;
			}
			if (((rsp >> 4) & 0xf) == 0xf)
  402196:	f89d 3003 	ldrb.w	r3, [sp, #3]
  40219a:	091b      	lsrs	r3, r3, #4
  40219c:	2b0f      	cmp	r3, #15
  40219e:	d005      	beq.n	4021ac <spi_data_read+0x5c>
  4021a0:	3c01      	subs	r4, #1
  4021a2:	b224      	sxth	r4, r4
				break;
		} while (retry--);
  4021a4:	f1b4 3fff 	cmp.w	r4, #4294967295
  4021a8:	d1e4      	bne.n	402174 <spi_data_read+0x24>
  4021aa:	e001      	b.n	4021b0 <spi_data_read+0x60>

		if (result == N_FAIL)
			break;

		if (retry <= 0) {
  4021ac:	2c00      	cmp	r4, #0
  4021ae:	dc0d      	bgt.n	4021cc <spi_data_read+0x7c>
			M2M_ERR("[nmi spi]: Failed data response read...(%02x)\n", rsp);
  4021b0:	f240 1263 	movw	r2, #355	; 0x163
  4021b4:	4921      	ldr	r1, [pc, #132]	; (40223c <spi_data_read+0xec>)
  4021b6:	4822      	ldr	r0, [pc, #136]	; (402240 <spi_data_read+0xf0>)
  4021b8:	4c22      	ldr	r4, [pc, #136]	; (402244 <spi_data_read+0xf4>)
  4021ba:	47a0      	blx	r4
  4021bc:	f89d 1003 	ldrb.w	r1, [sp, #3]
  4021c0:	4823      	ldr	r0, [pc, #140]	; (402250 <spi_data_read+0x100>)
  4021c2:	47a0      	blx	r4
  4021c4:	4821      	ldr	r0, [pc, #132]	; (40224c <spi_data_read+0xfc>)
  4021c6:	47a0      	blx	r4
			result = N_FAIL;
  4021c8:	2000      	movs	r0, #0
			break;
  4021ca:	e032      	b.n	402232 <spi_data_read+0xe2>
		}

		/**
			Read bytes
		**/
		if (M2M_SUCCESS != nmi_spi_read(&b[ix], nbytes)) {
  4021cc:	b2bf      	uxth	r7, r7
  4021ce:	4639      	mov	r1, r7
  4021d0:	eb0a 0008 	add.w	r0, sl, r8
  4021d4:	47a8      	blx	r5
  4021d6:	b158      	cbz	r0, 4021f0 <spi_data_read+0xa0>
			M2M_ERR("[nmi spi]: Failed data block read, bus error...\n");
  4021d8:	f44f 72b6 	mov.w	r2, #364	; 0x16c
  4021dc:	4917      	ldr	r1, [pc, #92]	; (40223c <spi_data_read+0xec>)
  4021de:	4818      	ldr	r0, [pc, #96]	; (402240 <spi_data_read+0xf0>)
  4021e0:	4c18      	ldr	r4, [pc, #96]	; (402244 <spi_data_read+0xf4>)
  4021e2:	47a0      	blx	r4
  4021e4:	481b      	ldr	r0, [pc, #108]	; (402254 <spi_data_read+0x104>)
  4021e6:	47a0      	blx	r4
  4021e8:	4818      	ldr	r0, [pc, #96]	; (40224c <spi_data_read+0xfc>)
  4021ea:	47a0      	blx	r4
			result = N_FAIL;
  4021ec:	2000      	movs	r0, #0
			break;
  4021ee:	e020      	b.n	402232 <spi_data_read+0xe2>
		}
		if(!clockless)
  4021f0:	f1bb 0f00 	cmp.w	fp, #0
  4021f4:	d112      	bne.n	40221c <spi_data_read+0xcc>
		{
			/**
			Read Crc
			**/
			if (!gu8Crc_off) {
  4021f6:	4b18      	ldr	r3, [pc, #96]	; (402258 <spi_data_read+0x108>)
  4021f8:	781b      	ldrb	r3, [r3, #0]
  4021fa:	b97b      	cbnz	r3, 40221c <spi_data_read+0xcc>
				if (M2M_SUCCESS != nmi_spi_read(crc, 2)) {
  4021fc:	2102      	movs	r1, #2
  4021fe:	a801      	add	r0, sp, #4
  402200:	47a8      	blx	r5
  402202:	b158      	cbz	r0, 40221c <spi_data_read+0xcc>
					M2M_ERR("[nmi spi]: Failed data block crc read, bus error...\n");
  402204:	f240 1277 	movw	r2, #375	; 0x177
  402208:	490c      	ldr	r1, [pc, #48]	; (40223c <spi_data_read+0xec>)
  40220a:	480d      	ldr	r0, [pc, #52]	; (402240 <spi_data_read+0xf0>)
  40220c:	4c0d      	ldr	r4, [pc, #52]	; (402244 <spi_data_read+0xf4>)
  40220e:	47a0      	blx	r4
  402210:	4812      	ldr	r0, [pc, #72]	; (40225c <spi_data_read+0x10c>)
  402212:	47a0      	blx	r4
  402214:	480d      	ldr	r0, [pc, #52]	; (40224c <spi_data_read+0xfc>)
  402216:	47a0      	blx	r4
					result = N_FAIL;
  402218:	2000      	movs	r0, #0
					break;
  40221a:	e00a      	b.n	402232 <spi_data_read+0xe2>
				}
			}
		}
		ix += nbytes;
  40221c:	44b8      	add	r8, r7
  40221e:	fa0f f888 	sxth.w	r8, r8
		sz -= nbytes;
  402222:	ebc7 0709 	rsb	r7, r7, r9
  402226:	fa1f f987 	uxth.w	r9, r7

	} while (sz);
  40222a:	f1b9 0f00 	cmp.w	r9, #0
  40222e:	d198      	bne.n	402162 <spi_data_read+0x12>
  402230:	2001      	movs	r0, #1

	return result;
}
  402232:	b003      	add	sp, #12
  402234:	e8bd 8ff0 	ldmia.w	sp!, {r4, r5, r6, r7, r8, r9, sl, fp, pc}
  402238:	00402075 	.word	0x00402075
  40223c:	00408918 	.word	0x00408918
  402240:	00408108 	.word	0x00408108
  402244:	004046b5 	.word	0x004046b5
  402248:	00408a84 	.word	0x00408a84
  40224c:	00408134 	.word	0x00408134
  402250:	00408ab8 	.word	0x00408ab8
  402254:	00408ae8 	.word	0x00408ae8
  402258:	204008d8 	.word	0x204008d8
  40225c:	00408b1c 	.word	0x00408b1c

00402260 <nmi_spi_write>:
	spi.u16Sz = sz;
	return nm_bus_ioctl(NM_BUS_IOCTL_RW, &spi);
}

static sint8 nmi_spi_write(uint8* b, uint16 sz)
{
  402260:	b500      	push	{lr}
  402262:	b085      	sub	sp, #20
	tstrNmSpiRw spi;
	spi.pu8InBuf = b;
  402264:	9001      	str	r0, [sp, #4]
	spi.pu8OutBuf = NULL;
  402266:	2300      	movs	r3, #0
  402268:	9302      	str	r3, [sp, #8]
	spi.u16Sz = sz;
  40226a:	f8ad 100c 	strh.w	r1, [sp, #12]
	return nm_bus_ioctl(NM_BUS_IOCTL_RW, &spi);
  40226e:	a901      	add	r1, sp, #4
  402270:	2003      	movs	r0, #3
  402272:	4b02      	ldr	r3, [pc, #8]	; (40227c <nmi_spi_write+0x1c>)
  402274:	4798      	blx	r3
}
  402276:	b005      	add	sp, #20
  402278:	f85d fb04 	ldr.w	pc, [sp], #4
  40227c:	00400969 	.word	0x00400969

00402280 <spi_cmd>:
	Spi protocol Function

********************************************/

static sint8 spi_cmd(uint8 cmd, uint32 adr, uint32 u32data, uint32 sz,uint8 clockless)
{
  402280:	b570      	push	{r4, r5, r6, lr}
  402282:	b084      	sub	sp, #16
  402284:	f89d 4020 	ldrb.w	r4, [sp, #32]
	uint8 bc[9];
	uint8 len = 5;
	sint8 result = N_OK;

	bc[0] = cmd;
  402288:	f88d 0004 	strb.w	r0, [sp, #4]
	switch (cmd) {
  40228c:	38c1      	subs	r0, #193	; 0xc1
  40228e:	280e      	cmp	r0, #14
  402290:	f200 80ae 	bhi.w	4023f0 <spi_cmd+0x170>
  402294:	e8df f000 	tbb	[pc, r0]
  402298:	125f3e3e 	.word	0x125f3e3e
  40229c:	4d4d2c23 	.word	0x4d4d2c23
  4022a0:	acac0878 	.word	0xacac0878
  4022a4:	acac      	.short	0xacac
  4022a6:	35          	.byte	0x35
  4022a7:	00          	.byte	0x00
	case CMD_SINGLE_READ:				/* single word (4 bytes) read */
		bc[1] = (uint8)(adr >> 16);
  4022a8:	0c0b      	lsrs	r3, r1, #16
  4022aa:	f88d 3005 	strb.w	r3, [sp, #5]
		bc[2] = (uint8)(adr >> 8);
  4022ae:	0a0b      	lsrs	r3, r1, #8
  4022b0:	f88d 3006 	strb.w	r3, [sp, #6]
		bc[3] = (uint8)adr;
  4022b4:	f88d 1007 	strb.w	r1, [sp, #7]
		len = 5;
  4022b8:	2105      	movs	r1, #5
		break;
  4022ba:	e0a4      	b.n	402406 <spi_cmd+0x186>
	case CMD_INTERNAL_READ:			/* internal register read */
		bc[1] = (uint8)(adr >> 8);
  4022bc:	f3c1 2307 	ubfx	r3, r1, #8, #8
		if(clockless)  bc[1] |= (1 << 7);
  4022c0:	b914      	cbnz	r4, 4022c8 <spi_cmd+0x48>
		bc[2] = (uint8)(adr >> 8);
		bc[3] = (uint8)adr;
		len = 5;
		break;
	case CMD_INTERNAL_READ:			/* internal register read */
		bc[1] = (uint8)(adr >> 8);
  4022c2:	f88d 3005 	strb.w	r3, [sp, #5]
  4022c6:	e003      	b.n	4022d0 <spi_cmd+0x50>
		if(clockless)  bc[1] |= (1 << 7);
  4022c8:	f063 037f 	orn	r3, r3, #127	; 0x7f
  4022cc:	f88d 3005 	strb.w	r3, [sp, #5]
		bc[2] = (uint8)adr;
  4022d0:	f88d 1006 	strb.w	r1, [sp, #6]
		bc[3] = 0x00;
  4022d4:	2300      	movs	r3, #0
  4022d6:	f88d 3007 	strb.w	r3, [sp, #7]
		len = 5;
  4022da:	2105      	movs	r1, #5
		break;
  4022dc:	e093      	b.n	402406 <spi_cmd+0x186>
	case CMD_TERMINATE:					/* termination */
		bc[1] = 0x00;
  4022de:	2300      	movs	r3, #0
  4022e0:	f88d 3005 	strb.w	r3, [sp, #5]
		bc[2] = 0x00;
  4022e4:	f88d 3006 	strb.w	r3, [sp, #6]
		bc[3] = 0x00;
  4022e8:	f88d 3007 	strb.w	r3, [sp, #7]
		len = 5;
  4022ec:	2105      	movs	r1, #5
		break;
  4022ee:	e08a      	b.n	402406 <spi_cmd+0x186>
	case CMD_REPEAT:						/* repeat */
		bc[1] = 0x00;
  4022f0:	2300      	movs	r3, #0
  4022f2:	f88d 3005 	strb.w	r3, [sp, #5]
		bc[2] = 0x00;
  4022f6:	f88d 3006 	strb.w	r3, [sp, #6]
		bc[3] = 0x00;
  4022fa:	f88d 3007 	strb.w	r3, [sp, #7]
		len = 5;
  4022fe:	2105      	movs	r1, #5
		break;
  402300:	e081      	b.n	402406 <spi_cmd+0x186>
	case CMD_RESET:							/* reset */
		bc[1] = 0xff;
  402302:	23ff      	movs	r3, #255	; 0xff
  402304:	f88d 3005 	strb.w	r3, [sp, #5]
		bc[2] = 0xff;
  402308:	f88d 3006 	strb.w	r3, [sp, #6]
		bc[3] = 0xff;
  40230c:	f88d 3007 	strb.w	r3, [sp, #7]
		len = 5;
  402310:	2105      	movs	r1, #5
		break;
  402312:	e078      	b.n	402406 <spi_cmd+0x186>
	case CMD_DMA_WRITE:					/* dma write */
	case CMD_DMA_READ:					/* dma read */
		bc[1] = (uint8)(adr >> 16);
  402314:	0c0a      	lsrs	r2, r1, #16
  402316:	f88d 2005 	strb.w	r2, [sp, #5]
		bc[2] = (uint8)(adr >> 8);
  40231a:	0a0a      	lsrs	r2, r1, #8
  40231c:	f88d 2006 	strb.w	r2, [sp, #6]
		bc[3] = (uint8)adr;
  402320:	f88d 1007 	strb.w	r1, [sp, #7]
		bc[4] = (uint8)(sz >> 8);
  402324:	0a1a      	lsrs	r2, r3, #8
  402326:	f88d 2008 	strb.w	r2, [sp, #8]
		bc[5] = (uint8)(sz);
  40232a:	f88d 3009 	strb.w	r3, [sp, #9]
		len = 7;
  40232e:	2107      	movs	r1, #7
		break;
  402330:	e069      	b.n	402406 <spi_cmd+0x186>
	case CMD_DMA_EXT_WRITE:		/* dma extended write */
	case CMD_DMA_EXT_READ:			/* dma extended read */
		bc[1] = (uint8)(adr >> 16);
  402332:	0c0a      	lsrs	r2, r1, #16
  402334:	f88d 2005 	strb.w	r2, [sp, #5]
		bc[2] = (uint8)(adr >> 8);
  402338:	0a0a      	lsrs	r2, r1, #8
  40233a:	f88d 2006 	strb.w	r2, [sp, #6]
		bc[3] = (uint8)adr;
  40233e:	f88d 1007 	strb.w	r1, [sp, #7]
		bc[4] = (uint8)(sz >> 16);
  402342:	0c1a      	lsrs	r2, r3, #16
  402344:	f88d 2008 	strb.w	r2, [sp, #8]
		bc[5] = (uint8)(sz >> 8);
  402348:	0a1a      	lsrs	r2, r3, #8
  40234a:	f88d 2009 	strb.w	r2, [sp, #9]
		bc[6] = (uint8)(sz);
  40234e:	f88d 300a 	strb.w	r3, [sp, #10]
		len = 8;
  402352:	2108      	movs	r1, #8
		break;
  402354:	e057      	b.n	402406 <spi_cmd+0x186>
	case CMD_INTERNAL_WRITE:		/* internal register write */
		bc[1] = (uint8)(adr >> 8);
  402356:	f3c1 2307 	ubfx	r3, r1, #8, #8
		if(clockless)  bc[1] |= (1 << 7);
  40235a:	b914      	cbnz	r4, 402362 <spi_cmd+0xe2>
		bc[5] = (uint8)(sz >> 8);
		bc[6] = (uint8)(sz);
		len = 8;
		break;
	case CMD_INTERNAL_WRITE:		/* internal register write */
		bc[1] = (uint8)(adr >> 8);
  40235c:	f88d 3005 	strb.w	r3, [sp, #5]
  402360:	e003      	b.n	40236a <spi_cmd+0xea>
		if(clockless)  bc[1] |= (1 << 7);
  402362:	f063 037f 	orn	r3, r3, #127	; 0x7f
  402366:	f88d 3005 	strb.w	r3, [sp, #5]
		bc[2] = (uint8)(adr);
  40236a:	f88d 1006 	strb.w	r1, [sp, #6]
		bc[3] = (uint8)(u32data >> 24);
  40236e:	0e13      	lsrs	r3, r2, #24
  402370:	f88d 3007 	strb.w	r3, [sp, #7]
		bc[4] = (uint8)(u32data >> 16);
  402374:	0c13      	lsrs	r3, r2, #16
  402376:	f88d 3008 	strb.w	r3, [sp, #8]
		bc[5] = (uint8)(u32data >> 8);
  40237a:	0a13      	lsrs	r3, r2, #8
  40237c:	f88d 3009 	strb.w	r3, [sp, #9]
		bc[6] = (uint8)(u32data);
  402380:	f88d 200a 	strb.w	r2, [sp, #10]
		len = 8;
  402384:	2108      	movs	r1, #8
		break;
  402386:	e03e      	b.n	402406 <spi_cmd+0x186>
	case CMD_SINGLE_WRITE:			/* single word write */
		bc[1] = (uint8)(adr >> 16);
  402388:	0c0b      	lsrs	r3, r1, #16
  40238a:	f88d 3005 	strb.w	r3, [sp, #5]
		bc[2] = (uint8)(adr >> 8);
  40238e:	0a0b      	lsrs	r3, r1, #8
  402390:	f88d 3006 	strb.w	r3, [sp, #6]
		bc[3] = (uint8)(adr);
  402394:	f88d 1007 	strb.w	r1, [sp, #7]
		bc[4] = (uint8)(u32data >> 24);
  402398:	0e13      	lsrs	r3, r2, #24
  40239a:	f88d 3008 	strb.w	r3, [sp, #8]
		bc[5] = (uint8)(u32data >> 16);
  40239e:	0c13      	lsrs	r3, r2, #16
  4023a0:	f88d 3009 	strb.w	r3, [sp, #9]
		bc[6] = (uint8)(u32data >> 8);
  4023a4:	0a13      	lsrs	r3, r2, #8
  4023a6:	f88d 300a 	strb.w	r3, [sp, #10]
		bc[7] = (uint8)(u32data);
  4023aa:	f88d 200b 	strb.w	r2, [sp, #11]
		len = 9;
  4023ae:	2109      	movs	r1, #9
		break;
  4023b0:	e029      	b.n	402406 <spi_cmd+0x186>
};


static uint8 crc7_byte(uint8 crc, uint8 data)
{
	return crc7_syndrome_table[(crc << 1) ^ data];
  4023b2:	f812 3b01 	ldrb.w	r3, [r2], #1
  4023b6:	ea83 0340 	eor.w	r3, r3, r0, lsl #1
  4023ba:	5ce0      	ldrb	r0, [r4, r3]
}

static uint8 crc7(uint8 crc, const uint8 *buffer, uint32 len)
{
	while (len--)
  4023bc:	4295      	cmp	r5, r2
  4023be:	d1f8      	bne.n	4023b2 <spi_cmd+0x132>
		break;
	}

	if (result) {
		if (!gu8Crc_off)
			bc[len-1] = (crc7(0x7f, (const uint8 *)&bc[0], len-1)) << 1;
  4023c0:	ab04      	add	r3, sp, #16
  4023c2:	441e      	add	r6, r3
  4023c4:	0043      	lsls	r3, r0, #1
  4023c6:	f806 3c0c 	strb.w	r3, [r6, #-12]
  4023ca:	e001      	b.n	4023d0 <spi_cmd+0x150>
		else
			len-=1;
  4023cc:	3901      	subs	r1, #1
  4023ce:	b2c9      	uxtb	r1, r1

		if (M2M_SUCCESS != nmi_spi_write(bc, len)) {
  4023d0:	a801      	add	r0, sp, #4
  4023d2:	4b10      	ldr	r3, [pc, #64]	; (402414 <spi_cmd+0x194>)
  4023d4:	4798      	blx	r3
  4023d6:	b168      	cbz	r0, 4023f4 <spi_cmd+0x174>
			M2M_ERR("[nmi spi]: Failed cmd write, bus error...\n");
  4023d8:	f44f 7284 	mov.w	r2, #264	; 0x108
  4023dc:	490e      	ldr	r1, [pc, #56]	; (402418 <spi_cmd+0x198>)
  4023de:	480f      	ldr	r0, [pc, #60]	; (40241c <spi_cmd+0x19c>)
  4023e0:	4c0f      	ldr	r4, [pc, #60]	; (402420 <spi_cmd+0x1a0>)
  4023e2:	47a0      	blx	r4
  4023e4:	480f      	ldr	r0, [pc, #60]	; (402424 <spi_cmd+0x1a4>)
  4023e6:	47a0      	blx	r4
  4023e8:	480f      	ldr	r0, [pc, #60]	; (402428 <spi_cmd+0x1a8>)
  4023ea:	47a0      	blx	r4
			result = N_FAIL;
  4023ec:	2000      	movs	r0, #0
  4023ee:	e00f      	b.n	402410 <spi_cmd+0x190>
	uint8 bc[9];
	uint8 len = 5;
	sint8 result = N_OK;

	bc[0] = cmd;
	switch (cmd) {
  4023f0:	2000      	movs	r0, #0
  4023f2:	e00d      	b.n	402410 <spi_cmd+0x190>
  4023f4:	2001      	movs	r0, #1
			M2M_ERR("[nmi spi]: Failed cmd write, bus error...\n");
			result = N_FAIL;
		}
	}

	return result;
  4023f6:	e00b      	b.n	402410 <spi_cmd+0x190>
		break;
	}

	if (result) {
		if (!gu8Crc_off)
			bc[len-1] = (crc7(0x7f, (const uint8 *)&bc[0], len-1)) << 1;
  4023f8:	1e4e      	subs	r6, r1, #1
  4023fa:	ab01      	add	r3, sp, #4
  4023fc:	199d      	adds	r5, r3, r6
  4023fe:	207f      	movs	r0, #127	; 0x7f
  402400:	461a      	mov	r2, r3
};


static uint8 crc7_byte(uint8 crc, uint8 data)
{
	return crc7_syndrome_table[(crc << 1) ^ data];
  402402:	4c0a      	ldr	r4, [pc, #40]	; (40242c <spi_cmd+0x1ac>)
  402404:	e7d5      	b.n	4023b2 <spi_cmd+0x132>
		result = N_FAIL;
		break;
	}

	if (result) {
		if (!gu8Crc_off)
  402406:	4b0a      	ldr	r3, [pc, #40]	; (402430 <spi_cmd+0x1b0>)
  402408:	781b      	ldrb	r3, [r3, #0]
  40240a:	2b00      	cmp	r3, #0
  40240c:	d1de      	bne.n	4023cc <spi_cmd+0x14c>
  40240e:	e7f3      	b.n	4023f8 <spi_cmd+0x178>
			result = N_FAIL;
		}
	}

	return result;
}
  402410:	b004      	add	sp, #16
  402412:	bd70      	pop	{r4, r5, r6, pc}
  402414:	00402261 	.word	0x00402261
  402418:	00408f14 	.word	0x00408f14
  40241c:	00408108 	.word	0x00408108
  402420:	004046b5 	.word	0x004046b5
  402424:	00408b54 	.word	0x00408b54
  402428:	00408134 	.word	0x00408134
  40242c:	00408928 	.word	0x00408928
  402430:	204008d8 	.word	0x204008d8

00402434 <spi_write_reg>:
	Spi interfaces

********************************************/

static sint8 spi_write_reg(uint32 addr, uint32 u32data)
{
  402434:	b570      	push	{r4, r5, r6, lr}
  402436:	b082      	sub	sp, #8
  402438:	4604      	mov	r4, r0
		clockless = 1;
	}
	else
	{
		cmd = CMD_SINGLE_WRITE;
		clockless = 0;
  40243a:	2831      	cmp	r0, #49	; 0x31
  40243c:	bf35      	itete	cc
  40243e:	2301      	movcc	r3, #1
  402440:	2300      	movcs	r3, #0
  402442:	25c3      	movcc	r5, #195	; 0xc3
  402444:	25c9      	movcs	r5, #201	; 0xc9
	}

#if defined USE_OLD_SPI_SW
	result = spi_cmd(cmd, addr, u32data, 4, clockless);
  402446:	9300      	str	r3, [sp, #0]
  402448:	2304      	movs	r3, #4
  40244a:	460a      	mov	r2, r1
  40244c:	4601      	mov	r1, r0
  40244e:	4628      	mov	r0, r5
  402450:	4e16      	ldr	r6, [pc, #88]	; (4024ac <spi_write_reg+0x78>)
  402452:	47b0      	blx	r6
	if (result != N_OK) {
  402454:	2801      	cmp	r0, #1
  402456:	d00c      	beq.n	402472 <spi_write_reg+0x3e>
		M2M_ERR("[nmi spi]: Failed cmd, write reg (%08x)...\n", (unsigned int)addr);
  402458:	f240 12eb 	movw	r2, #491	; 0x1eb
  40245c:	4914      	ldr	r1, [pc, #80]	; (4024b0 <spi_write_reg+0x7c>)
  40245e:	4815      	ldr	r0, [pc, #84]	; (4024b4 <spi_write_reg+0x80>)
  402460:	4d15      	ldr	r5, [pc, #84]	; (4024b8 <spi_write_reg+0x84>)
  402462:	47a8      	blx	r5
  402464:	4621      	mov	r1, r4
  402466:	4815      	ldr	r0, [pc, #84]	; (4024bc <spi_write_reg+0x88>)
  402468:	47a8      	blx	r5
  40246a:	4815      	ldr	r0, [pc, #84]	; (4024c0 <spi_write_reg+0x8c>)
  40246c:	47a8      	blx	r5
		return N_FAIL;
  40246e:	2000      	movs	r0, #0
  402470:	e01a      	b.n	4024a8 <spi_write_reg+0x74>
	}

	result = spi_cmd_rsp(cmd);
  402472:	4628      	mov	r0, r5
  402474:	4b13      	ldr	r3, [pc, #76]	; (4024c4 <spi_write_reg+0x90>)
  402476:	4798      	blx	r3
	if (result != N_OK) {
  402478:	2801      	cmp	r0, #1
  40247a:	d014      	beq.n	4024a6 <spi_write_reg+0x72>
		M2M_ERR("[nmi spi]: Failed cmd response, write reg (%08x)...\n", (unsigned int)addr);
  40247c:	f240 12f1 	movw	r2, #497	; 0x1f1
  402480:	490b      	ldr	r1, [pc, #44]	; (4024b0 <spi_write_reg+0x7c>)
  402482:	480c      	ldr	r0, [pc, #48]	; (4024b4 <spi_write_reg+0x80>)
  402484:	4d0c      	ldr	r5, [pc, #48]	; (4024b8 <spi_write_reg+0x84>)
  402486:	47a8      	blx	r5
  402488:	4621      	mov	r1, r4
  40248a:	480f      	ldr	r0, [pc, #60]	; (4024c8 <spi_write_reg+0x94>)
  40248c:	47a8      	blx	r5
  40248e:	480c      	ldr	r0, [pc, #48]	; (4024c0 <spi_write_reg+0x8c>)
  402490:	47a8      	blx	r5
		spi_cmd(CMD_RESET, 0, 0, 0, 0);
  402492:	2400      	movs	r4, #0
  402494:	9400      	str	r4, [sp, #0]
  402496:	4623      	mov	r3, r4
  402498:	4622      	mov	r2, r4
  40249a:	4621      	mov	r1, r4
  40249c:	20cf      	movs	r0, #207	; 0xcf
  40249e:	4d03      	ldr	r5, [pc, #12]	; (4024ac <spi_write_reg+0x78>)
  4024a0:	47a8      	blx	r5
		return N_FAIL;
  4024a2:	4620      	mov	r0, r4
  4024a4:	e000      	b.n	4024a8 <spi_write_reg+0x74>
	}

	return N_OK;
  4024a6:	2001      	movs	r0, #1
	}

	return result;

#endif
}
  4024a8:	b002      	add	sp, #8
  4024aa:	bd70      	pop	{r4, r5, r6, pc}
  4024ac:	00402281 	.word	0x00402281
  4024b0:	00408f04 	.word	0x00408f04
  4024b4:	00408108 	.word	0x00408108
  4024b8:	004046b5 	.word	0x004046b5
  4024bc:	00408b80 	.word	0x00408b80
  4024c0:	00408134 	.word	0x00408134
  4024c4:	00402095 	.word	0x00402095
  4024c8:	00408bac 	.word	0x00408bac

004024cc <spi_read_reg>:

	return N_OK;
}

static sint8 spi_read_reg(uint32 addr, uint32 *u32data)
{
  4024cc:	e92d 41f0 	stmdb	sp!, {r4, r5, r6, r7, r8, lr}
  4024d0:	b084      	sub	sp, #16
  4024d2:	4604      	mov	r4, r0
  4024d4:	4688      	mov	r8, r1
		clockless = 1;
	}
	else
	{
		cmd = CMD_SINGLE_READ;
		clockless = 0;
  4024d6:	f5b0 7f80 	cmp.w	r0, #256	; 0x100
  4024da:	bf35      	itete	cc
  4024dc:	2601      	movcc	r6, #1
  4024de:	2600      	movcs	r6, #0
  4024e0:	25c4      	movcc	r5, #196	; 0xc4
  4024e2:	25ca      	movcs	r5, #202	; 0xca
	}

#if defined USE_OLD_SPI_SW
	result = spi_cmd(cmd, addr, 0, 4, clockless);
  4024e4:	9600      	str	r6, [sp, #0]
  4024e6:	2304      	movs	r3, #4
  4024e8:	2200      	movs	r2, #0
  4024ea:	4601      	mov	r1, r0
  4024ec:	4628      	mov	r0, r5
  4024ee:	4f2d      	ldr	r7, [pc, #180]	; (4025a4 <spi_read_reg+0xd8>)
  4024f0:	47b8      	blx	r7
	if (result != N_OK) {
  4024f2:	2801      	cmp	r0, #1
  4024f4:	d00c      	beq.n	402510 <spi_read_reg+0x44>
		M2M_ERR("[nmi spi]: Failed cmd, read reg (%08x)...\n", (unsigned int)addr);
  4024f6:	f240 2245 	movw	r2, #581	; 0x245
  4024fa:	492b      	ldr	r1, [pc, #172]	; (4025a8 <spi_read_reg+0xdc>)
  4024fc:	482b      	ldr	r0, [pc, #172]	; (4025ac <spi_read_reg+0xe0>)
  4024fe:	4d2c      	ldr	r5, [pc, #176]	; (4025b0 <spi_read_reg+0xe4>)
  402500:	47a8      	blx	r5
  402502:	4621      	mov	r1, r4
  402504:	482b      	ldr	r0, [pc, #172]	; (4025b4 <spi_read_reg+0xe8>)
  402506:	47a8      	blx	r5
  402508:	482b      	ldr	r0, [pc, #172]	; (4025b8 <spi_read_reg+0xec>)
  40250a:	47a8      	blx	r5
		return N_FAIL;
  40250c:	2000      	movs	r0, #0
  40250e:	e045      	b.n	40259c <spi_read_reg+0xd0>
	}

	result = spi_cmd_rsp(cmd);
  402510:	4628      	mov	r0, r5
  402512:	4b2a      	ldr	r3, [pc, #168]	; (4025bc <spi_read_reg+0xf0>)
  402514:	4798      	blx	r3
	if (result != N_OK) {
  402516:	2801      	cmp	r0, #1
  402518:	d014      	beq.n	402544 <spi_read_reg+0x78>
		M2M_ERR("[nmi spi]: Failed cmd response, read reg (%08x)...\n", (unsigned int)addr);
  40251a:	f240 224b 	movw	r2, #587	; 0x24b
  40251e:	4922      	ldr	r1, [pc, #136]	; (4025a8 <spi_read_reg+0xdc>)
  402520:	4822      	ldr	r0, [pc, #136]	; (4025ac <spi_read_reg+0xe0>)
  402522:	4d23      	ldr	r5, [pc, #140]	; (4025b0 <spi_read_reg+0xe4>)
  402524:	47a8      	blx	r5
  402526:	4621      	mov	r1, r4
  402528:	4825      	ldr	r0, [pc, #148]	; (4025c0 <spi_read_reg+0xf4>)
  40252a:	47a8      	blx	r5
  40252c:	4822      	ldr	r0, [pc, #136]	; (4025b8 <spi_read_reg+0xec>)
  40252e:	47a8      	blx	r5
		spi_cmd(CMD_RESET, 0, 0, 0, 0);
  402530:	2400      	movs	r4, #0
  402532:	9400      	str	r4, [sp, #0]
  402534:	4623      	mov	r3, r4
  402536:	4622      	mov	r2, r4
  402538:	4621      	mov	r1, r4
  40253a:	20cf      	movs	r0, #207	; 0xcf
  40253c:	4d19      	ldr	r5, [pc, #100]	; (4025a4 <spi_read_reg+0xd8>)
  40253e:	47a8      	blx	r5
		return N_FAIL;
  402540:	4620      	mov	r0, r4
  402542:	e02b      	b.n	40259c <spi_read_reg+0xd0>
	}

	/* to avoid endianess issues */
	result = spi_data_read(&tmp[0], 4, clockless);
  402544:	4632      	mov	r2, r6
  402546:	2104      	movs	r1, #4
  402548:	a803      	add	r0, sp, #12
  40254a:	4b1e      	ldr	r3, [pc, #120]	; (4025c4 <spi_read_reg+0xf8>)
  40254c:	4798      	blx	r3
	if (result != N_OK) {
  40254e:	2801      	cmp	r0, #1
  402550:	d013      	beq.n	40257a <spi_read_reg+0xae>
		M2M_ERR("[nmi spi]: Failed data read...\n");
  402552:	f240 2253 	movw	r2, #595	; 0x253
  402556:	4914      	ldr	r1, [pc, #80]	; (4025a8 <spi_read_reg+0xdc>)
  402558:	4814      	ldr	r0, [pc, #80]	; (4025ac <spi_read_reg+0xe0>)
  40255a:	4c15      	ldr	r4, [pc, #84]	; (4025b0 <spi_read_reg+0xe4>)
  40255c:	47a0      	blx	r4
  40255e:	481a      	ldr	r0, [pc, #104]	; (4025c8 <spi_read_reg+0xfc>)
  402560:	47a0      	blx	r4
  402562:	4815      	ldr	r0, [pc, #84]	; (4025b8 <spi_read_reg+0xec>)
  402564:	47a0      	blx	r4
		spi_cmd(CMD_RESET, 0, 0, 0, 0);
  402566:	2400      	movs	r4, #0
  402568:	9400      	str	r4, [sp, #0]
  40256a:	4623      	mov	r3, r4
  40256c:	4622      	mov	r2, r4
  40256e:	4621      	mov	r1, r4
  402570:	20cf      	movs	r0, #207	; 0xcf
  402572:	4d0c      	ldr	r5, [pc, #48]	; (4025a4 <spi_read_reg+0xd8>)
  402574:	47a8      	blx	r5
		return N_FAIL;
  402576:	4620      	mov	r0, r4
  402578:	e010      	b.n	40259c <spi_read_reg+0xd0>
		return N_FAIL;
	}

#endif

	*u32data = tmp[0] |
  40257a:	f89d 100d 	ldrb.w	r1, [sp, #13]
  40257e:	f89d 200e 	ldrb.w	r2, [sp, #14]
  402582:	0413      	lsls	r3, r2, #16
  402584:	ea43 2201 	orr.w	r2, r3, r1, lsl #8
  402588:	f89d 300c 	ldrb.w	r3, [sp, #12]
  40258c:	4313      	orrs	r3, r2
  40258e:	f89d 200f 	ldrb.w	r2, [sp, #15]
  402592:	ea43 6302 	orr.w	r3, r3, r2, lsl #24
  402596:	f8c8 3000 	str.w	r3, [r8]
		((uint32)tmp[1] << 8) |
		((uint32)tmp[2] << 16) |
		((uint32)tmp[3] << 24);

	return N_OK;
  40259a:	2001      	movs	r0, #1
}
  40259c:	b004      	add	sp, #16
  40259e:	e8bd 81f0 	ldmia.w	sp!, {r4, r5, r6, r7, r8, pc}
  4025a2:	bf00      	nop
  4025a4:	00402281 	.word	0x00402281
  4025a8:	00408f38 	.word	0x00408f38
  4025ac:	00408108 	.word	0x00408108
  4025b0:	004046b5 	.word	0x004046b5
  4025b4:	00408be4 	.word	0x00408be4
  4025b8:	00408134 	.word	0x00408134
  4025bc:	00402095 	.word	0x00402095
  4025c0:	00408c10 	.word	0x00408c10
  4025c4:	00402151 	.word	0x00402151
  4025c8:	00408c44 	.word	0x00408c44

004025cc <nm_spi_deinit>:
*	@date	27 Feb 2015
*	@version	1.0
*/
sint8 nm_spi_deinit(void)
{
	gu8Crc_off = 0;
  4025cc:	2000      	movs	r0, #0
  4025ce:	4b01      	ldr	r3, [pc, #4]	; (4025d4 <nm_spi_deinit+0x8>)
  4025d0:	7018      	strb	r0, [r3, #0]
	return M2M_SUCCESS;
}
  4025d2:	4770      	bx	lr
  4025d4:	204008d8 	.word	0x204008d8

004025d8 <nm_spi_read_reg>:
*	@author	M. Abdelmawla
*	@date	11 July 2012
*	@version	1.0
*/
uint32 nm_spi_read_reg(uint32 u32Addr)
{
  4025d8:	b500      	push	{lr}
  4025da:	b083      	sub	sp, #12
	uint32 u32Val;

	spi_read_reg(u32Addr, &u32Val);
  4025dc:	a901      	add	r1, sp, #4
  4025de:	4b03      	ldr	r3, [pc, #12]	; (4025ec <nm_spi_read_reg+0x14>)
  4025e0:	4798      	blx	r3

	return u32Val;
}
  4025e2:	9801      	ldr	r0, [sp, #4]
  4025e4:	b003      	add	sp, #12
  4025e6:	f85d fb04 	ldr.w	pc, [sp], #4
  4025ea:	bf00      	nop
  4025ec:	004024cd 	.word	0x004024cd

004025f0 <nm_spi_read_reg_with_ret>:
*	@author	M. Abdelmawla
*	@date	11 July 2012
*	@version	1.0
*/
sint8 nm_spi_read_reg_with_ret(uint32 u32Addr, uint32* pu32RetVal)
{
  4025f0:	b508      	push	{r3, lr}
	sint8 s8Ret;

	s8Ret = spi_read_reg(u32Addr,pu32RetVal);
  4025f2:	4b04      	ldr	r3, [pc, #16]	; (402604 <nm_spi_read_reg_with_ret+0x14>)
  4025f4:	4798      	blx	r3

	if(N_OK == s8Ret) s8Ret = M2M_SUCCESS;
	else s8Ret = M2M_ERR_BUS_FAIL;
  4025f6:	2801      	cmp	r0, #1

	return s8Ret;
}
  4025f8:	bf0c      	ite	eq
  4025fa:	2000      	moveq	r0, #0
  4025fc:	f06f 0005 	mvnne.w	r0, #5
  402600:	bd08      	pop	{r3, pc}
  402602:	bf00      	nop
  402604:	004024cd 	.word	0x004024cd

00402608 <nm_spi_write_reg>:
*	@author	M. Abdelmawla
*	@date	11 July 2012
*	@version	1.0
*/
sint8 nm_spi_write_reg(uint32 u32Addr, uint32 u32Val)
{
  402608:	b508      	push	{r3, lr}
	sint8 s8Ret;

	s8Ret = spi_write_reg(u32Addr, u32Val);
  40260a:	4b04      	ldr	r3, [pc, #16]	; (40261c <nm_spi_write_reg+0x14>)
  40260c:	4798      	blx	r3

	if(N_OK == s8Ret) s8Ret = M2M_SUCCESS;
	else s8Ret = M2M_ERR_BUS_FAIL;
  40260e:	2801      	cmp	r0, #1

	return s8Ret;
}
  402610:	bf0c      	ite	eq
  402612:	2000      	moveq	r0, #0
  402614:	f06f 0005 	mvnne.w	r0, #5
  402618:	bd08      	pop	{r3, pc}
  40261a:	bf00      	nop
  40261c:	00402435 	.word	0x00402435

00402620 <nm_spi_init>:
*	@author	M. Abdelmawla
*	@date	11 July 2012
*	@version	1.0
*/
sint8 nm_spi_init(void)
{
  402620:	b530      	push	{r4, r5, lr}
  402622:	b083      	sub	sp, #12
	uint32 chipid;
	uint32 reg =0;
  402624:	2300      	movs	r3, #0
  402626:	a902      	add	r1, sp, #8
  402628:	f841 3d08 	str.w	r3, [r1, #-8]!

	/**
		configure protocol
	**/
	gu8Crc_off = 0;
  40262c:	4a32      	ldr	r2, [pc, #200]	; (4026f8 <nm_spi_init+0xd8>)
  40262e:	7013      	strb	r3, [r2, #0]

	// TODO: We can remove the CRC trials if there is a definite way to reset
	// the SPI to it's initial value.
	if (!spi_read_reg(NMI_SPI_PROTOCOL_CONFIG, &reg)) {
  402630:	f64e 0024 	movw	r0, #59428	; 0xe824
  402634:	4b31      	ldr	r3, [pc, #196]	; (4026fc <nm_spi_init+0xdc>)
  402636:	4798      	blx	r3
  402638:	b9f0      	cbnz	r0, 402678 <nm_spi_init+0x58>
		/* Read failed. Try with CRC off. This might happen when module
		is removed but chip isn't reset*/
		gu8Crc_off = 1;
  40263a:	2201      	movs	r2, #1
  40263c:	4b2e      	ldr	r3, [pc, #184]	; (4026f8 <nm_spi_init+0xd8>)
  40263e:	701a      	strb	r2, [r3, #0]
		M2M_ERR("[nmi spi]: Failed internal read protocol with CRC on, retyring with CRC off...\n");
  402640:	f240 22c5 	movw	r2, #709	; 0x2c5
  402644:	492e      	ldr	r1, [pc, #184]	; (402700 <nm_spi_init+0xe0>)
  402646:	482f      	ldr	r0, [pc, #188]	; (402704 <nm_spi_init+0xe4>)
  402648:	4c2f      	ldr	r4, [pc, #188]	; (402708 <nm_spi_init+0xe8>)
  40264a:	47a0      	blx	r4
  40264c:	482f      	ldr	r0, [pc, #188]	; (40270c <nm_spi_init+0xec>)
  40264e:	47a0      	blx	r4
  402650:	482f      	ldr	r0, [pc, #188]	; (402710 <nm_spi_init+0xf0>)
  402652:	47a0      	blx	r4
		if (!spi_read_reg(NMI_SPI_PROTOCOL_CONFIG, &reg)){
  402654:	4669      	mov	r1, sp
  402656:	f64e 0024 	movw	r0, #59428	; 0xe824
  40265a:	4b28      	ldr	r3, [pc, #160]	; (4026fc <nm_spi_init+0xdc>)
  40265c:	4798      	blx	r3
  40265e:	4604      	mov	r4, r0
  402660:	b950      	cbnz	r0, 402678 <nm_spi_init+0x58>
			// Reaad failed with both CRC on and off, something went bad
			M2M_ERR( "[nmi spi]: Failed internal read protocol...\n");
  402662:	f44f 7232 	mov.w	r2, #712	; 0x2c8
  402666:	4926      	ldr	r1, [pc, #152]	; (402700 <nm_spi_init+0xe0>)
  402668:	4826      	ldr	r0, [pc, #152]	; (402704 <nm_spi_init+0xe4>)
  40266a:	4d27      	ldr	r5, [pc, #156]	; (402708 <nm_spi_init+0xe8>)
  40266c:	47a8      	blx	r5
  40266e:	4829      	ldr	r0, [pc, #164]	; (402714 <nm_spi_init+0xf4>)
  402670:	47a8      	blx	r5
  402672:	4827      	ldr	r0, [pc, #156]	; (402710 <nm_spi_init+0xf0>)
  402674:	47a8      	blx	r5
			return 0;
  402676:	e03c      	b.n	4026f2 <nm_spi_init+0xd2>
		}
	}
	if(gu8Crc_off == 0)
  402678:	4b1f      	ldr	r3, [pc, #124]	; (4026f8 <nm_spi_init+0xd8>)
  40267a:	781b      	ldrb	r3, [r3, #0]
  40267c:	b9cb      	cbnz	r3, 4026b2 <nm_spi_init+0x92>
	{
		reg &= ~0xc;	/* disable crc checking */
		reg &= ~0x70;
		reg |= (0x5 << 4);
  40267e:	9900      	ldr	r1, [sp, #0]
  402680:	f021 017c 	bic.w	r1, r1, #124	; 0x7c
  402684:	f041 0150 	orr.w	r1, r1, #80	; 0x50
  402688:	9100      	str	r1, [sp, #0]
		if (!spi_write_reg(NMI_SPI_PROTOCOL_CONFIG, reg)) {
  40268a:	f64e 0024 	movw	r0, #59428	; 0xe824
  40268e:	4b22      	ldr	r3, [pc, #136]	; (402718 <nm_spi_init+0xf8>)
  402690:	4798      	blx	r3
  402692:	4604      	mov	r4, r0
  402694:	b950      	cbnz	r0, 4026ac <nm_spi_init+0x8c>
			M2M_ERR( "[nmi spi]: Failed internal write protocol reg...\n");
  402696:	f240 22d2 	movw	r2, #722	; 0x2d2
  40269a:	4919      	ldr	r1, [pc, #100]	; (402700 <nm_spi_init+0xe0>)
  40269c:	4819      	ldr	r0, [pc, #100]	; (402704 <nm_spi_init+0xe4>)
  40269e:	4d1a      	ldr	r5, [pc, #104]	; (402708 <nm_spi_init+0xe8>)
  4026a0:	47a8      	blx	r5
  4026a2:	481e      	ldr	r0, [pc, #120]	; (40271c <nm_spi_init+0xfc>)
  4026a4:	47a8      	blx	r5
  4026a6:	481a      	ldr	r0, [pc, #104]	; (402710 <nm_spi_init+0xf0>)
  4026a8:	47a8      	blx	r5
			return 0;
  4026aa:	e022      	b.n	4026f2 <nm_spi_init+0xd2>
		}
		gu8Crc_off = 1;
  4026ac:	2201      	movs	r2, #1
  4026ae:	4b12      	ldr	r3, [pc, #72]	; (4026f8 <nm_spi_init+0xd8>)
  4026b0:	701a      	strb	r2, [r3, #0]
	}

	/**
		make sure can read back chip id correctly
	**/
	if (!spi_read_reg(0x1000, &chipid)) {
  4026b2:	a901      	add	r1, sp, #4
  4026b4:	f44f 5080 	mov.w	r0, #4096	; 0x1000
  4026b8:	4b10      	ldr	r3, [pc, #64]	; (4026fc <nm_spi_init+0xdc>)
  4026ba:	4798      	blx	r3
  4026bc:	b960      	cbnz	r0, 4026d8 <nm_spi_init+0xb8>
		M2M_ERR("[nmi spi]: Fail cmd read chip id...\n");
  4026be:	f44f 7237 	mov.w	r2, #732	; 0x2dc
  4026c2:	490f      	ldr	r1, [pc, #60]	; (402700 <nm_spi_init+0xe0>)
  4026c4:	480f      	ldr	r0, [pc, #60]	; (402704 <nm_spi_init+0xe4>)
  4026c6:	4c10      	ldr	r4, [pc, #64]	; (402708 <nm_spi_init+0xe8>)
  4026c8:	47a0      	blx	r4
  4026ca:	4815      	ldr	r0, [pc, #84]	; (402720 <nm_spi_init+0x100>)
  4026cc:	47a0      	blx	r4
  4026ce:	4810      	ldr	r0, [pc, #64]	; (402710 <nm_spi_init+0xf0>)
  4026d0:	47a0      	blx	r4
		return M2M_ERR_BUS_FAIL;
  4026d2:	f06f 0405 	mvn.w	r4, #5
  4026d6:	e00c      	b.n	4026f2 <nm_spi_init+0xd2>
static void spi_init_pkt_sz(void)
{
	uint32 val32;

	/* Make sure SPI max. packet size fits the defined DATA_PKT_SZ.  */
	val32 = nm_spi_read_reg(SPI_BASE+0x24);
  4026d8:	f64e 0024 	movw	r0, #59428	; 0xe824
  4026dc:	4b11      	ldr	r3, [pc, #68]	; (402724 <nm_spi_init+0x104>)
  4026de:	4798      	blx	r3
	val32 &= ~(0x7 << 4);
  4026e0:	f020 0170 	bic.w	r1, r0, #112	; 0x70
	case 2048: val32 |= (3 << 4); break;
	case 4096: val32 |= (4 << 4); break;
	case 8192: val32 |= (5 << 4); break;

	}
	nm_spi_write_reg(SPI_BASE+0x24, val32);
  4026e4:	f041 0150 	orr.w	r1, r1, #80	; 0x50
  4026e8:	f64e 0024 	movw	r0, #59428	; 0xe824
  4026ec:	4b0e      	ldr	r3, [pc, #56]	; (402728 <nm_spi_init+0x108>)
  4026ee:	4798      	blx	r3

	M2M_DBG("[nmi spi]: chipid (%08x)\n", (unsigned int)chipid);
	spi_init_pkt_sz();


	return M2M_SUCCESS;
  4026f0:	2400      	movs	r4, #0
}
  4026f2:	4620      	mov	r0, r4
  4026f4:	b003      	add	sp, #12
  4026f6:	bd30      	pop	{r4, r5, pc}
  4026f8:	204008d8 	.word	0x204008d8
  4026fc:	004024cd 	.word	0x004024cd
  402700:	00408a28 	.word	0x00408a28
  402704:	00408108 	.word	0x00408108
  402708:	004046b5 	.word	0x004046b5
  40270c:	00408c64 	.word	0x00408c64
  402710:	00408134 	.word	0x00408134
  402714:	00408cb4 	.word	0x00408cb4
  402718:	00402435 	.word	0x00402435
  40271c:	00408ce4 	.word	0x00408ce4
  402720:	00408d18 	.word	0x00408d18
  402724:	004025d9 	.word	0x004025d9
  402728:	00402609 	.word	0x00402609

0040272c <nm_spi_read_block>:
*	@author	M. Abdelmawla
*	@date	11 July 2012
*	@version	1.0
*/
sint8 nm_spi_read_block(uint32 u32Addr, uint8 *puBuf, uint16 u16Sz)
{
  40272c:	b5f0      	push	{r4, r5, r6, r7, lr}
  40272e:	b083      	sub	sp, #12
  402730:	4604      	mov	r4, r0
  402732:	460f      	mov	r7, r1
  402734:	4615      	mov	r5, r2

	/**
		Command
	**/
#if defined USE_OLD_SPI_SW
	result = spi_cmd(cmd, addr, 0, size,0);
  402736:	2200      	movs	r2, #0
  402738:	9200      	str	r2, [sp, #0]
  40273a:	462b      	mov	r3, r5
  40273c:	4601      	mov	r1, r0
  40273e:	20c8      	movs	r0, #200	; 0xc8
  402740:	4e23      	ldr	r6, [pc, #140]	; (4027d0 <nm_spi_read_block+0xa4>)
  402742:	47b0      	blx	r6
	if (result != N_OK) {
  402744:	2801      	cmp	r0, #1
  402746:	d00b      	beq.n	402760 <nm_spi_read_block+0x34>
		M2M_ERR("[nmi spi]: Failed cmd, read block (%08x)...\n", (unsigned int)addr);
  402748:	f44f 721d 	mov.w	r2, #628	; 0x274
  40274c:	4921      	ldr	r1, [pc, #132]	; (4027d4 <nm_spi_read_block+0xa8>)
  40274e:	4822      	ldr	r0, [pc, #136]	; (4027d8 <nm_spi_read_block+0xac>)
  402750:	4d22      	ldr	r5, [pc, #136]	; (4027dc <nm_spi_read_block+0xb0>)
  402752:	47a8      	blx	r5
  402754:	4621      	mov	r1, r4
  402756:	4822      	ldr	r0, [pc, #136]	; (4027e0 <nm_spi_read_block+0xb4>)
  402758:	47a8      	blx	r5
  40275a:	4822      	ldr	r0, [pc, #136]	; (4027e4 <nm_spi_read_block+0xb8>)
  40275c:	47a8      	blx	r5
  40275e:	e032      	b.n	4027c6 <nm_spi_read_block+0x9a>
		return N_FAIL;
	}

	result = spi_cmd_rsp(cmd);
  402760:	20c8      	movs	r0, #200	; 0xc8
  402762:	4b21      	ldr	r3, [pc, #132]	; (4027e8 <nm_spi_read_block+0xbc>)
  402764:	4798      	blx	r3
	if (result != N_OK) {
  402766:	2801      	cmp	r0, #1
  402768:	d012      	beq.n	402790 <nm_spi_read_block+0x64>
		M2M_ERR("[nmi spi]: Failed cmd response, read block (%08x)...\n", (unsigned int)addr);
  40276a:	f240 227a 	movw	r2, #634	; 0x27a
  40276e:	4919      	ldr	r1, [pc, #100]	; (4027d4 <nm_spi_read_block+0xa8>)
  402770:	4819      	ldr	r0, [pc, #100]	; (4027d8 <nm_spi_read_block+0xac>)
  402772:	4d1a      	ldr	r5, [pc, #104]	; (4027dc <nm_spi_read_block+0xb0>)
  402774:	47a8      	blx	r5
  402776:	4621      	mov	r1, r4
  402778:	481c      	ldr	r0, [pc, #112]	; (4027ec <nm_spi_read_block+0xc0>)
  40277a:	47a8      	blx	r5
  40277c:	4819      	ldr	r0, [pc, #100]	; (4027e4 <nm_spi_read_block+0xb8>)
  40277e:	47a8      	blx	r5
		spi_cmd(CMD_RESET, 0, 0, 0, 0);
  402780:	2100      	movs	r1, #0
  402782:	9100      	str	r1, [sp, #0]
  402784:	460b      	mov	r3, r1
  402786:	460a      	mov	r2, r1
  402788:	20cf      	movs	r0, #207	; 0xcf
  40278a:	4c11      	ldr	r4, [pc, #68]	; (4027d0 <nm_spi_read_block+0xa4>)
  40278c:	47a0      	blx	r4
  40278e:	e01a      	b.n	4027c6 <nm_spi_read_block+0x9a>
	}

	/**
		Data
	**/
	result = spi_data_read(buf, size,0);
  402790:	2200      	movs	r2, #0
  402792:	4629      	mov	r1, r5
  402794:	4638      	mov	r0, r7
  402796:	4b16      	ldr	r3, [pc, #88]	; (4027f0 <nm_spi_read_block+0xc4>)
  402798:	4798      	blx	r3
	if (result != N_OK) {
  40279a:	2801      	cmp	r0, #1
  40279c:	d011      	beq.n	4027c2 <nm_spi_read_block+0x96>
		M2M_ERR("[nmi spi]: Failed block data read...\n");
  40279e:	f44f 7221 	mov.w	r2, #644	; 0x284
  4027a2:	490c      	ldr	r1, [pc, #48]	; (4027d4 <nm_spi_read_block+0xa8>)
  4027a4:	480c      	ldr	r0, [pc, #48]	; (4027d8 <nm_spi_read_block+0xac>)
  4027a6:	4c0d      	ldr	r4, [pc, #52]	; (4027dc <nm_spi_read_block+0xb0>)
  4027a8:	47a0      	blx	r4
  4027aa:	4812      	ldr	r0, [pc, #72]	; (4027f4 <nm_spi_read_block+0xc8>)
  4027ac:	47a0      	blx	r4
  4027ae:	480d      	ldr	r0, [pc, #52]	; (4027e4 <nm_spi_read_block+0xb8>)
  4027b0:	47a0      	blx	r4
		spi_cmd(CMD_RESET, 0, 0, 0, 0);
  4027b2:	2100      	movs	r1, #0
  4027b4:	9100      	str	r1, [sp, #0]
  4027b6:	460b      	mov	r3, r1
  4027b8:	460a      	mov	r2, r1
  4027ba:	20cf      	movs	r0, #207	; 0xcf
  4027bc:	4c04      	ldr	r4, [pc, #16]	; (4027d0 <nm_spi_read_block+0xa4>)
  4027be:	47a0      	blx	r4
  4027c0:	e001      	b.n	4027c6 <nm_spi_read_block+0x9a>
{
	sint8 s8Ret;

	s8Ret = nm_spi_read(u32Addr, puBuf, u16Sz);

	if(N_OK == s8Ret) s8Ret = M2M_SUCCESS;
  4027c2:	2000      	movs	r0, #0
  4027c4:	e001      	b.n	4027ca <nm_spi_read_block+0x9e>
	else s8Ret = M2M_ERR_BUS_FAIL;
  4027c6:	f06f 0005 	mvn.w	r0, #5

	return s8Ret;
}
  4027ca:	b003      	add	sp, #12
  4027cc:	bdf0      	pop	{r4, r5, r6, r7, pc}
  4027ce:	bf00      	nop
  4027d0:	00402281 	.word	0x00402281
  4027d4:	00408a44 	.word	0x00408a44
  4027d8:	00408108 	.word	0x00408108
  4027dc:	004046b5 	.word	0x004046b5
  4027e0:	00408d40 	.word	0x00408d40
  4027e4:	00408134 	.word	0x00408134
  4027e8:	00402095 	.word	0x00402095
  4027ec:	00408d70 	.word	0x00408d70
  4027f0:	00402151 	.word	0x00402151
  4027f4:	00408da8 	.word	0x00408da8

004027f8 <nm_spi_write_block>:
*	@author	M. Abdelmawla
*	@date	11 July 2012
*	@version	1.0
*/
sint8 nm_spi_write_block(uint32 u32Addr, uint8 *puBuf, uint16 u16Sz)
{
  4027f8:	e92d 43f0 	stmdb	sp!, {r4, r5, r6, r7, r8, r9, lr}
  4027fc:	b085      	sub	sp, #20
  4027fe:	4604      	mov	r4, r0
  402800:	4688      	mov	r8, r1
  402802:	4615      	mov	r5, r2

	/**
		Command
	**/
#if defined USE_OLD_SPI_SW
	result = spi_cmd(cmd, addr, 0, size,0);
  402804:	2200      	movs	r2, #0
  402806:	9200      	str	r2, [sp, #0]
  402808:	462b      	mov	r3, r5
  40280a:	4601      	mov	r1, r0
  40280c:	20c7      	movs	r0, #199	; 0xc7
  40280e:	4e4c      	ldr	r6, [pc, #304]	; (402940 <nm_spi_write_block+0x148>)
  402810:	47b0      	blx	r6
	if (result != N_OK) {
  402812:	2801      	cmp	r0, #1
  402814:	d00b      	beq.n	40282e <nm_spi_write_block+0x36>
		M2M_ERR("[nmi spi]: Failed cmd, write block (%08x)...\n", (unsigned int)addr);
  402816:	f240 220f 	movw	r2, #527	; 0x20f
  40281a:	494a      	ldr	r1, [pc, #296]	; (402944 <nm_spi_write_block+0x14c>)
  40281c:	484a      	ldr	r0, [pc, #296]	; (402948 <nm_spi_write_block+0x150>)
  40281e:	4d4b      	ldr	r5, [pc, #300]	; (40294c <nm_spi_write_block+0x154>)
  402820:	47a8      	blx	r5
  402822:	4621      	mov	r1, r4
  402824:	484a      	ldr	r0, [pc, #296]	; (402950 <nm_spi_write_block+0x158>)
  402826:	47a8      	blx	r5
  402828:	484a      	ldr	r0, [pc, #296]	; (402954 <nm_spi_write_block+0x15c>)
  40282a:	47a8      	blx	r5
  40282c:	e082      	b.n	402934 <nm_spi_write_block+0x13c>
		return N_FAIL;
	}

	result = spi_cmd_rsp(cmd);
  40282e:	20c7      	movs	r0, #199	; 0xc7
  402830:	4b49      	ldr	r3, [pc, #292]	; (402958 <nm_spi_write_block+0x160>)
  402832:	4798      	blx	r3
	if (result != N_OK) {
  402834:	2801      	cmp	r0, #1
  402836:	d012      	beq.n	40285e <nm_spi_write_block+0x66>
		M2M_ERR("[nmi spi ]: Failed cmd response, write block (%08x)...\n", (unsigned int)addr);
  402838:	f240 2215 	movw	r2, #533	; 0x215
  40283c:	4941      	ldr	r1, [pc, #260]	; (402944 <nm_spi_write_block+0x14c>)
  40283e:	4842      	ldr	r0, [pc, #264]	; (402948 <nm_spi_write_block+0x150>)
  402840:	4d42      	ldr	r5, [pc, #264]	; (40294c <nm_spi_write_block+0x154>)
  402842:	47a8      	blx	r5
  402844:	4621      	mov	r1, r4
  402846:	4845      	ldr	r0, [pc, #276]	; (40295c <nm_spi_write_block+0x164>)
  402848:	47a8      	blx	r5
  40284a:	4842      	ldr	r0, [pc, #264]	; (402954 <nm_spi_write_block+0x15c>)
  40284c:	47a8      	blx	r5
		spi_cmd(CMD_RESET, 0, 0, 0, 0);
  40284e:	2100      	movs	r1, #0
  402850:	9100      	str	r1, [sp, #0]
  402852:	460b      	mov	r3, r1
  402854:	460a      	mov	r2, r1
  402856:	20cf      	movs	r0, #207	; 0xcf
  402858:	4c39      	ldr	r4, [pc, #228]	; (402940 <nm_spi_write_block+0x148>)
  40285a:	47a0      	blx	r4
  40285c:	e06a      	b.n	402934 <nm_spi_write_block+0x13c>
static sint8 spi_data_write(uint8 *b, uint16 sz)
{
	sint16 ix;
	uint16 nbytes;
	sint8 result = 1;
	uint8 cmd, order, crc[2] = {0};
  40285e:	2400      	movs	r4, #0
  402860:	f8ad 400c 	strh.w	r4, [sp, #12]
				order = 0x3;
			else
				order = 0x2;
		}
		cmd |= order;
		if (M2M_SUCCESS != nmi_spi_write(&cmd, 1)) {
  402864:	4f3e      	ldr	r7, [pc, #248]	; (402960 <nm_spi_write_block+0x168>)
		}

		/**
			Write Crc
		**/
		if (!gu8Crc_off) {
  402866:	f8df 9110 	ldr.w	r9, [pc, #272]	; 402978 <nm_spi_write_block+0x180>
  40286a:	462e      	mov	r6, r5
  40286c:	f5b5 5f00 	cmp.w	r5, #8192	; 0x2000
  402870:	bf28      	it	cs
  402872:	f44f 5600 	movcs.w	r6, #8192	; 0x2000

		/**
			Write command
		**/
		cmd = 0xf0;
		if (ix == 0)  {
  402876:	b92c      	cbnz	r4, 402884 <nm_spi_write_block+0x8c>
			if (sz <= DATA_PKT_SZ)
				order = 0x3;
			else
				order = 0x1;
  402878:	f5b5 5f00 	cmp.w	r5, #8192	; 0x2000
  40287c:	bf94      	ite	ls
  40287e:	2303      	movls	r3, #3
  402880:	2301      	movhi	r3, #1
  402882:	e004      	b.n	40288e <nm_spi_write_block+0x96>
		} else {
			if (sz <= DATA_PKT_SZ)
				order = 0x3;
			else
				order = 0x2;
  402884:	f5b5 5f00 	cmp.w	r5, #8192	; 0x2000
  402888:	bf94      	ite	ls
  40288a:	2303      	movls	r3, #3
  40288c:	2302      	movhi	r3, #2
		}
		cmd |= order;
  40288e:	f063 030f 	orn	r3, r3, #15
  402892:	f88d 300b 	strb.w	r3, [sp, #11]
		if (M2M_SUCCESS != nmi_spi_write(&cmd, 1)) {
  402896:	2101      	movs	r1, #1
  402898:	f10d 000b 	add.w	r0, sp, #11
  40289c:	47b8      	blx	r7
  40289e:	b150      	cbz	r0, 4028b6 <nm_spi_write_block+0xbe>
			M2M_ERR("[nmi spi]: Failed data block cmd write, bus error...\n");
  4028a0:	f44f 72d4 	mov.w	r2, #424	; 0x1a8
  4028a4:	492f      	ldr	r1, [pc, #188]	; (402964 <nm_spi_write_block+0x16c>)
  4028a6:	4828      	ldr	r0, [pc, #160]	; (402948 <nm_spi_write_block+0x150>)
  4028a8:	4c28      	ldr	r4, [pc, #160]	; (40294c <nm_spi_write_block+0x154>)
  4028aa:	47a0      	blx	r4
  4028ac:	482e      	ldr	r0, [pc, #184]	; (402968 <nm_spi_write_block+0x170>)
  4028ae:	47a0      	blx	r4
  4028b0:	4828      	ldr	r0, [pc, #160]	; (402954 <nm_spi_write_block+0x15c>)
  4028b2:	47a0      	blx	r4
  4028b4:	e028      	b.n	402908 <nm_spi_write_block+0x110>
		}

		/**
			Write data
		**/
		if (M2M_SUCCESS != nmi_spi_write(&b[ix], nbytes)) {
  4028b6:	4631      	mov	r1, r6
  4028b8:	eb08 0004 	add.w	r0, r8, r4
  4028bc:	47b8      	blx	r7
  4028be:	b150      	cbz	r0, 4028d6 <nm_spi_write_block+0xde>
			M2M_ERR("[nmi spi]: Failed data block write, bus error...\n");
  4028c0:	f240 12b1 	movw	r2, #433	; 0x1b1
  4028c4:	4927      	ldr	r1, [pc, #156]	; (402964 <nm_spi_write_block+0x16c>)
  4028c6:	4820      	ldr	r0, [pc, #128]	; (402948 <nm_spi_write_block+0x150>)
  4028c8:	4c20      	ldr	r4, [pc, #128]	; (40294c <nm_spi_write_block+0x154>)
  4028ca:	47a0      	blx	r4
  4028cc:	4827      	ldr	r0, [pc, #156]	; (40296c <nm_spi_write_block+0x174>)
  4028ce:	47a0      	blx	r4
  4028d0:	4820      	ldr	r0, [pc, #128]	; (402954 <nm_spi_write_block+0x15c>)
  4028d2:	47a0      	blx	r4
  4028d4:	e018      	b.n	402908 <nm_spi_write_block+0x110>
		}

		/**
			Write Crc
		**/
		if (!gu8Crc_off) {
  4028d6:	f899 3000 	ldrb.w	r3, [r9]
  4028da:	b973      	cbnz	r3, 4028fa <nm_spi_write_block+0x102>
			if (M2M_SUCCESS != nmi_spi_write(crc, 2)) {
  4028dc:	2102      	movs	r1, #2
  4028de:	a803      	add	r0, sp, #12
  4028e0:	47b8      	blx	r7
  4028e2:	b150      	cbz	r0, 4028fa <nm_spi_write_block+0x102>
				M2M_ERR("[nmi spi]: Failed data block crc write, bus error...\n");
  4028e4:	f240 12bb 	movw	r2, #443	; 0x1bb
  4028e8:	491e      	ldr	r1, [pc, #120]	; (402964 <nm_spi_write_block+0x16c>)
  4028ea:	4817      	ldr	r0, [pc, #92]	; (402948 <nm_spi_write_block+0x150>)
  4028ec:	4c17      	ldr	r4, [pc, #92]	; (40294c <nm_spi_write_block+0x154>)
  4028ee:	47a0      	blx	r4
  4028f0:	481f      	ldr	r0, [pc, #124]	; (402970 <nm_spi_write_block+0x178>)
  4028f2:	47a0      	blx	r4
  4028f4:	4817      	ldr	r0, [pc, #92]	; (402954 <nm_spi_write_block+0x15c>)
  4028f6:	47a0      	blx	r4
  4028f8:	e006      	b.n	402908 <nm_spi_write_block+0x110>
				result = N_FAIL;
				break;
			}
		}

		ix += nbytes;
  4028fa:	4434      	add	r4, r6
  4028fc:	b224      	sxth	r4, r4
		sz -= nbytes;
  4028fe:	1bad      	subs	r5, r5, r6
  402900:	b2ad      	uxth	r5, r5
	} while (sz);
  402902:	2d00      	cmp	r5, #0
  402904:	d1b1      	bne.n	40286a <nm_spi_write_block+0x72>
  402906:	e013      	b.n	402930 <nm_spi_write_block+0x138>
	/**
		Data
	**/
	result = spi_data_write(buf, size);
	if (result != N_OK) {
		M2M_ERR("[nmi spi]: Failed block data write...\n");
  402908:	f240 2226 	movw	r2, #550	; 0x226
  40290c:	490d      	ldr	r1, [pc, #52]	; (402944 <nm_spi_write_block+0x14c>)
  40290e:	480e      	ldr	r0, [pc, #56]	; (402948 <nm_spi_write_block+0x150>)
  402910:	4c0e      	ldr	r4, [pc, #56]	; (40294c <nm_spi_write_block+0x154>)
  402912:	47a0      	blx	r4
  402914:	4817      	ldr	r0, [pc, #92]	; (402974 <nm_spi_write_block+0x17c>)
  402916:	47a0      	blx	r4
  402918:	480e      	ldr	r0, [pc, #56]	; (402954 <nm_spi_write_block+0x15c>)
  40291a:	47a0      	blx	r4
		spi_cmd(CMD_RESET, 0, 0, 0, 0);
  40291c:	2400      	movs	r4, #0
  40291e:	9400      	str	r4, [sp, #0]
  402920:	4623      	mov	r3, r4
  402922:	4622      	mov	r2, r4
  402924:	4621      	mov	r1, r4
  402926:	20cf      	movs	r0, #207	; 0xcf
  402928:	4d05      	ldr	r5, [pc, #20]	; (402940 <nm_spi_write_block+0x148>)
  40292a:	47a8      	blx	r5
{
	sint8 s8Ret;

	s8Ret = nm_spi_write(u32Addr, puBuf, u16Sz);

	if(N_OK == s8Ret) s8Ret = M2M_SUCCESS;
  40292c:	4620      	mov	r0, r4
  40292e:	e003      	b.n	402938 <nm_spi_write_block+0x140>
  402930:	2000      	movs	r0, #0
  402932:	e001      	b.n	402938 <nm_spi_write_block+0x140>
	else s8Ret = M2M_ERR_BUS_FAIL;
  402934:	f06f 0005 	mvn.w	r0, #5

	return s8Ret;
}
  402938:	b005      	add	sp, #20
  40293a:	e8bd 83f0 	ldmia.w	sp!, {r4, r5, r6, r7, r8, r9, pc}
  40293e:	bf00      	nop
  402940:	00402281 	.word	0x00402281
  402944:	00408f1c 	.word	0x00408f1c
  402948:	00408108 	.word	0x00408108
  40294c:	004046b5 	.word	0x004046b5
  402950:	00408dd0 	.word	0x00408dd0
  402954:	00408134 	.word	0x00408134
  402958:	00402095 	.word	0x00402095
  40295c:	00408e00 	.word	0x00408e00
  402960:	00402261 	.word	0x00402261
  402964:	00408a34 	.word	0x00408a34
  402968:	00408e38 	.word	0x00408e38
  40296c:	00408e70 	.word	0x00408e70
  402970:	00408ea4 	.word	0x00408ea4
  402974:	00408edc 	.word	0x00408edc
  402978:	204008d8 	.word	0x204008d8

0040297c <Socket_ReadSocketData>:
Date
		17 July 2012
*********************************************************************/
NMI_API void Socket_ReadSocketData(SOCKET sock, tstrSocketRecvMsg *pstrRecv,uint8 u8SocketMsg,
								  uint32 u32StartAddress,uint16 u16ReadCount)
{
  40297c:	e92d 4ff8 	stmdb	sp!, {r3, r4, r5, r6, r7, r8, r9, sl, fp, lr}
  402980:	f8bd 4028 	ldrh.w	r4, [sp, #40]	; 0x28
	if((u16ReadCount > 0) && (gastrSockets[sock].pu8UserBuffer != NULL) && (gastrSockets[sock].u16UserBufferSize > 0) && (gastrSockets[sock].bIsUsed == 1))
  402984:	2c00      	cmp	r4, #0
  402986:	d047      	beq.n	402a18 <Socket_ReadSocketData+0x9c>
  402988:	4681      	mov	r9, r0
  40298a:	460e      	mov	r6, r1
  40298c:	4692      	mov	sl, r2
  40298e:	4698      	mov	r8, r3
  402990:	0103      	lsls	r3, r0, #4
  402992:	4922      	ldr	r1, [pc, #136]	; (402a1c <Socket_ReadSocketData+0xa0>)
  402994:	58cb      	ldr	r3, [r1, r3]
  402996:	2b00      	cmp	r3, #0
  402998:	d03e      	beq.n	402a18 <Socket_ReadSocketData+0x9c>
  40299a:	eb01 1300 	add.w	r3, r1, r0, lsl #4
  40299e:	889b      	ldrh	r3, [r3, #4]
  4029a0:	b29b      	uxth	r3, r3
  4029a2:	2b00      	cmp	r3, #0
  4029a4:	d038      	beq.n	402a18 <Socket_ReadSocketData+0x9c>
  4029a6:	eb01 1300 	add.w	r3, r1, r0, lsl #4
  4029aa:	7a9b      	ldrb	r3, [r3, #10]
  4029ac:	b2db      	uxtb	r3, r3
  4029ae:	2b01      	cmp	r3, #1
  4029b0:	d132      	bne.n	402a18 <Socket_ReadSocketData+0x9c>
		uint32	u32Address = u32StartAddress;
		uint16	u16Read;
		sint16	s16Diff;
		uint8	u8SetRxDone;

		pstrRecv->u16RemainingSize = u16ReadCount;
  4029b2:	80f4      	strh	r4, [r6, #6]
		do
		{
			u8SetRxDone = 1;
			u16Read = u16ReadCount;
			s16Diff	= u16Read - gastrSockets[sock].u16UserBufferSize;
  4029b4:	eb01 1700 	add.w	r7, r1, r0, lsl #4
			if(s16Diff > 0)
			{
				u8SetRxDone = 0;
				u16Read		= gastrSockets[sock].u16UserBufferSize;
			}
			if(hif_receive(u32Address, gastrSockets[sock].pu8UserBuffer, u16Read, u8SetRxDone) == M2M_SUCCESS)
  4029b8:	f8df b078 	ldr.w	fp, [pc, #120]	; 402a34 <Socket_ReadSocketData+0xb8>
		pstrRecv->u16RemainingSize = u16ReadCount;
		do
		{
			u8SetRxDone = 1;
			u16Read = u16ReadCount;
			s16Diff	= u16Read - gastrSockets[sock].u16UserBufferSize;
  4029bc:	88bb      	ldrh	r3, [r7, #4]
			if(s16Diff > 0)
  4029be:	1ae3      	subs	r3, r4, r3
  4029c0:	b21b      	sxth	r3, r3
  4029c2:	2b00      	cmp	r3, #0
  4029c4:	dd03      	ble.n	4029ce <Socket_ReadSocketData+0x52>
			{
				u8SetRxDone = 0;
				u16Read		= gastrSockets[sock].u16UserBufferSize;
  4029c6:	88bd      	ldrh	r5, [r7, #4]
  4029c8:	b2ad      	uxth	r5, r5
			u8SetRxDone = 1;
			u16Read = u16ReadCount;
			s16Diff	= u16Read - gastrSockets[sock].u16UserBufferSize;
			if(s16Diff > 0)
			{
				u8SetRxDone = 0;
  4029ca:	2300      	movs	r3, #0
  4029cc:	e001      	b.n	4029d2 <Socket_ReadSocketData+0x56>
  4029ce:	4625      	mov	r5, r4
		uint8	u8SetRxDone;

		pstrRecv->u16RemainingSize = u16ReadCount;
		do
		{
			u8SetRxDone = 1;
  4029d0:	2301      	movs	r3, #1
			if(s16Diff > 0)
			{
				u8SetRxDone = 0;
				u16Read		= gastrSockets[sock].u16UserBufferSize;
			}
			if(hif_receive(u32Address, gastrSockets[sock].pu8UserBuffer, u16Read, u8SetRxDone) == M2M_SUCCESS)
  4029d2:	6839      	ldr	r1, [r7, #0]
  4029d4:	462a      	mov	r2, r5
  4029d6:	4640      	mov	r0, r8
  4029d8:	47d8      	blx	fp
  4029da:	b9a8      	cbnz	r0, 402a08 <Socket_ReadSocketData+0x8c>
			{
				pstrRecv->pu8Buffer			= gastrSockets[sock].pu8UserBuffer;
  4029dc:	683b      	ldr	r3, [r7, #0]
  4029de:	6033      	str	r3, [r6, #0]
				pstrRecv->s16BufferSize		= u16Read;
  4029e0:	80b5      	strh	r5, [r6, #4]
				pstrRecv->u16RemainingSize	-= u16Read;
  4029e2:	88f3      	ldrh	r3, [r6, #6]
  4029e4:	1b5b      	subs	r3, r3, r5
  4029e6:	80f3      	strh	r3, [r6, #6]

				if (gpfAppSocketCb)
  4029e8:	4b0d      	ldr	r3, [pc, #52]	; (402a20 <Socket_ReadSocketData+0xa4>)
  4029ea:	681b      	ldr	r3, [r3, #0]
  4029ec:	b12b      	cbz	r3, 4029fa <Socket_ReadSocketData+0x7e>
					gpfAppSocketCb(sock,u8SocketMsg, pstrRecv);
  4029ee:	4b0c      	ldr	r3, [pc, #48]	; (402a20 <Socket_ReadSocketData+0xa4>)
  4029f0:	681b      	ldr	r3, [r3, #0]
  4029f2:	4632      	mov	r2, r6
  4029f4:	4651      	mov	r1, sl
  4029f6:	4648      	mov	r0, r9
  4029f8:	4798      	blx	r3

				u16ReadCount -= u16Read;
  4029fa:	1b64      	subs	r4, r4, r5
  4029fc:	b2a4      	uxth	r4, r4
				u32Address += u16Read;
  4029fe:	44a8      	add	r8, r5
			else
			{
				M2M_INFO("(ERRR)Current <%d>\n", u16ReadCount);
				break;
			}
		}while(u16ReadCount != 0);
  402a00:	2c00      	cmp	r4, #0
  402a02:	d1db      	bne.n	4029bc <Socket_ReadSocketData+0x40>
  402a04:	e8bd 8ff8 	ldmia.w	sp!, {r3, r4, r5, r6, r7, r8, r9, sl, fp, pc}
				u16ReadCount -= u16Read;
				u32Address += u16Read;
			}
			else
			{
				M2M_INFO("(ERRR)Current <%d>\n", u16ReadCount);
  402a08:	4806      	ldr	r0, [pc, #24]	; (402a24 <Socket_ReadSocketData+0xa8>)
  402a0a:	4d07      	ldr	r5, [pc, #28]	; (402a28 <Socket_ReadSocketData+0xac>)
  402a0c:	47a8      	blx	r5
  402a0e:	4621      	mov	r1, r4
  402a10:	4806      	ldr	r0, [pc, #24]	; (402a2c <Socket_ReadSocketData+0xb0>)
  402a12:	47a8      	blx	r5
  402a14:	4806      	ldr	r0, [pc, #24]	; (402a30 <Socket_ReadSocketData+0xb4>)
  402a16:	47a8      	blx	r5
  402a18:	e8bd 8ff8 	ldmia.w	sp!, {r3, r4, r5, r6, r7, r8, r9, sl, fp, pc}
  402a1c:	20400f4c 	.word	0x20400f4c
  402a20:	20400ffc 	.word	0x20400ffc
  402a24:	004083cc 	.word	0x004083cc
  402a28:	004046b5 	.word	0x004046b5
  402a2c:	00408f48 	.word	0x00408f48
  402a30:	00408134 	.word	0x00408134
  402a34:	004010e9 	.word	0x004010e9

00402a38 <m2m_ip_cb>:

Date
		17 July 2012
*********************************************************************/
static void m2m_ip_cb(uint8 u8OpCode, uint16 u16BufferSize,uint32 u32Address)
{
  402a38:	b5f0      	push	{r4, r5, r6, r7, lr}
  402a3a:	b099      	sub	sp, #100	; 0x64
  402a3c:	4614      	mov	r4, r2
	if(u8OpCode == SOCKET_CMD_BIND)
  402a3e:	2841      	cmp	r0, #65	; 0x41
  402a40:	d119      	bne.n	402a76 <m2m_ip_cb+0x3e>
	{
		tstrBindReply		strBindReply;
		tstrSocketBindMsg	strBind;

		if(hif_receive(u32Address, (uint8*)&strBindReply, sizeof(tstrBindReply), 0) == M2M_SUCCESS)
  402a42:	2300      	movs	r3, #0
  402a44:	2204      	movs	r2, #4
  402a46:	a907      	add	r1, sp, #28
  402a48:	4620      	mov	r0, r4
  402a4a:	4ca4      	ldr	r4, [pc, #656]	; (402cdc <m2m_ip_cb+0x2a4>)
  402a4c:	47a0      	blx	r4
  402a4e:	2800      	cmp	r0, #0
  402a50:	f040 8141 	bne.w	402cd6 <m2m_ip_cb+0x29e>
		{
			strBind.status = strBindReply.s8Status;
  402a54:	f89d 301d 	ldrb.w	r3, [sp, #29]
  402a58:	f88d 300c 	strb.w	r3, [sp, #12]
			if(gpfAppSocketCb)
  402a5c:	4ba0      	ldr	r3, [pc, #640]	; (402ce0 <m2m_ip_cb+0x2a8>)
  402a5e:	681b      	ldr	r3, [r3, #0]
  402a60:	2b00      	cmp	r3, #0
  402a62:	f000 8138 	beq.w	402cd6 <m2m_ip_cb+0x29e>
				gpfAppSocketCb(strBindReply.sock,SOCKET_MSG_BIND,&strBind);
  402a66:	4b9e      	ldr	r3, [pc, #632]	; (402ce0 <m2m_ip_cb+0x2a8>)
  402a68:	681b      	ldr	r3, [r3, #0]
  402a6a:	aa03      	add	r2, sp, #12
  402a6c:	2101      	movs	r1, #1
  402a6e:	f99d 001c 	ldrsb.w	r0, [sp, #28]
  402a72:	4798      	blx	r3
  402a74:	e12f      	b.n	402cd6 <m2m_ip_cb+0x29e>
  402a76:	460d      	mov	r5, r1
		}
	}
	else if(u8OpCode == SOCKET_CMD_LISTEN)
  402a78:	2842      	cmp	r0, #66	; 0x42
  402a7a:	d119      	bne.n	402ab0 <m2m_ip_cb+0x78>
	{
		tstrListenReply			strListenReply;
		tstrSocketListenMsg		strListen;
		if(hif_receive(u32Address, (uint8*)&strListenReply, sizeof(tstrListenReply), 0) == M2M_SUCCESS)
  402a7c:	2300      	movs	r3, #0
  402a7e:	2204      	movs	r2, #4
  402a80:	a907      	add	r1, sp, #28
  402a82:	4620      	mov	r0, r4
  402a84:	4c95      	ldr	r4, [pc, #596]	; (402cdc <m2m_ip_cb+0x2a4>)
  402a86:	47a0      	blx	r4
  402a88:	2800      	cmp	r0, #0
  402a8a:	f040 8124 	bne.w	402cd6 <m2m_ip_cb+0x29e>
		{
			strListen.status = strListenReply.s8Status;
  402a8e:	f89d 301d 	ldrb.w	r3, [sp, #29]
  402a92:	f88d 300c 	strb.w	r3, [sp, #12]
			if(gpfAppSocketCb)
  402a96:	4b92      	ldr	r3, [pc, #584]	; (402ce0 <m2m_ip_cb+0x2a8>)
  402a98:	681b      	ldr	r3, [r3, #0]
  402a9a:	2b00      	cmp	r3, #0
  402a9c:	f000 811b 	beq.w	402cd6 <m2m_ip_cb+0x29e>
				gpfAppSocketCb(strListenReply.sock,SOCKET_MSG_LISTEN, &strListen);
  402aa0:	4b8f      	ldr	r3, [pc, #572]	; (402ce0 <m2m_ip_cb+0x2a8>)
  402aa2:	681b      	ldr	r3, [r3, #0]
  402aa4:	aa03      	add	r2, sp, #12
  402aa6:	2102      	movs	r1, #2
  402aa8:	f99d 001c 	ldrsb.w	r0, [sp, #28]
  402aac:	4798      	blx	r3
  402aae:	e112      	b.n	402cd6 <m2m_ip_cb+0x29e>
		}
	}
	else if(u8OpCode == SOCKET_CMD_ACCEPT)
  402ab0:	2843      	cmp	r0, #67	; 0x43
  402ab2:	d13f      	bne.n	402b34 <m2m_ip_cb+0xfc>
	{
		tstrAcceptReply			strAcceptReply;
		tstrSocketAcceptMsg		strAccept;
		if(hif_receive(u32Address, (uint8*)&strAcceptReply, sizeof(tstrAcceptReply), 0) == M2M_SUCCESS)
  402ab4:	2300      	movs	r3, #0
  402ab6:	220c      	movs	r2, #12
  402ab8:	eb0d 0102 	add.w	r1, sp, r2
  402abc:	4620      	mov	r0, r4
  402abe:	4c87      	ldr	r4, [pc, #540]	; (402cdc <m2m_ip_cb+0x2a4>)
  402ac0:	47a0      	blx	r4
  402ac2:	2800      	cmp	r0, #0
  402ac4:	f040 8107 	bne.w	402cd6 <m2m_ip_cb+0x29e>
		{
			if(strAcceptReply.sConnectedSock >= 0)
  402ac8:	f99d 3015 	ldrsb.w	r3, [sp, #21]
  402acc:	2b00      	cmp	r3, #0
  402ace:	db19      	blt.n	402b04 <m2m_ip_cb+0xcc>
			{
				gastrSockets[strAcceptReply.sConnectedSock].u8SSLFlags 	= 0;
  402ad0:	4a84      	ldr	r2, [pc, #528]	; (402ce4 <m2m_ip_cb+0x2ac>)
  402ad2:	eb02 1203 	add.w	r2, r2, r3, lsl #4
  402ad6:	2100      	movs	r1, #0
  402ad8:	72d1      	strb	r1, [r2, #11]
				gastrSockets[strAcceptReply.sConnectedSock].bIsUsed 	= 1;
  402ada:	2101      	movs	r1, #1
  402adc:	7291      	strb	r1, [r2, #10]

				/* The session ID is used to distinguish different socket connections
					by comparing the assigned session ID to the one reported by the firmware*/
				++gu16SessionID;
  402ade:	4982      	ldr	r1, [pc, #520]	; (402ce8 <m2m_ip_cb+0x2b0>)
  402ae0:	880a      	ldrh	r2, [r1, #0]
  402ae2:	3201      	adds	r2, #1
  402ae4:	b292      	uxth	r2, r2
  402ae6:	800a      	strh	r2, [r1, #0]
				if(gu16SessionID == 0)
  402ae8:	880a      	ldrh	r2, [r1, #0]
  402aea:	b292      	uxth	r2, r2
  402aec:	b91a      	cbnz	r2, 402af6 <m2m_ip_cb+0xbe>
					++gu16SessionID;
  402aee:	880a      	ldrh	r2, [r1, #0]
  402af0:	3201      	adds	r2, #1
  402af2:	b292      	uxth	r2, r2
  402af4:	800a      	strh	r2, [r1, #0]

				gastrSockets[strAcceptReply.sConnectedSock].u16SessionID = gu16SessionID;
  402af6:	4a7c      	ldr	r2, [pc, #496]	; (402ce8 <m2m_ip_cb+0x2b0>)
  402af8:	8811      	ldrh	r1, [r2, #0]
  402afa:	b289      	uxth	r1, r1
  402afc:	4a79      	ldr	r2, [pc, #484]	; (402ce4 <m2m_ip_cb+0x2ac>)
  402afe:	eb02 1203 	add.w	r2, r2, r3, lsl #4
  402b02:	80d1      	strh	r1, [r2, #6]
				M2M_DBG("Socket %d session ID = %d\r\n",strAcceptReply.sConnectedSock , gu16SessionID );		
			}
			strAccept.sock = strAcceptReply.sConnectedSock;
  402b04:	f88d 301c 	strb.w	r3, [sp, #28]
			strAccept.strAddr.sin_family		= AF_INET;
  402b08:	2302      	movs	r3, #2
  402b0a:	f8ad 3020 	strh.w	r3, [sp, #32]
			strAccept.strAddr.sin_port = strAcceptReply.strAddr.u16Port;
  402b0e:	f8bd 300e 	ldrh.w	r3, [sp, #14]
  402b12:	f8ad 3022 	strh.w	r3, [sp, #34]	; 0x22
			strAccept.strAddr.sin_addr.s_addr = strAcceptReply.strAddr.u32IPAddr;
  402b16:	9b04      	ldr	r3, [sp, #16]
  402b18:	9309      	str	r3, [sp, #36]	; 0x24
			if(gpfAppSocketCb)
  402b1a:	4b71      	ldr	r3, [pc, #452]	; (402ce0 <m2m_ip_cb+0x2a8>)
  402b1c:	681b      	ldr	r3, [r3, #0]
  402b1e:	2b00      	cmp	r3, #0
  402b20:	f000 80d9 	beq.w	402cd6 <m2m_ip_cb+0x29e>
				gpfAppSocketCb(strAcceptReply.sListenSock, SOCKET_MSG_ACCEPT, &strAccept);
  402b24:	4b6e      	ldr	r3, [pc, #440]	; (402ce0 <m2m_ip_cb+0x2a8>)
  402b26:	681b      	ldr	r3, [r3, #0]
  402b28:	aa07      	add	r2, sp, #28
  402b2a:	2104      	movs	r1, #4
  402b2c:	f99d 0014 	ldrsb.w	r0, [sp, #20]
  402b30:	4798      	blx	r3
  402b32:	e0d0      	b.n	402cd6 <m2m_ip_cb+0x29e>
		}
	}
	else if((u8OpCode == SOCKET_CMD_CONNECT) || (u8OpCode == SOCKET_CMD_SSL_CONNECT))
  402b34:	2844      	cmp	r0, #68	; 0x44
  402b36:	d001      	beq.n	402b3c <m2m_ip_cb+0x104>
  402b38:	284b      	cmp	r0, #75	; 0x4b
  402b3a:	d124      	bne.n	402b86 <m2m_ip_cb+0x14e>
	{
		tstrConnectReply		strConnectReply;
		tstrSocketConnectMsg	strConnMsg;
		if(hif_receive(u32Address, (uint8*)&strConnectReply, sizeof(tstrConnectReply), 0) == M2M_SUCCESS)
  402b3c:	2300      	movs	r3, #0
  402b3e:	2204      	movs	r2, #4
  402b40:	a907      	add	r1, sp, #28
  402b42:	4620      	mov	r0, r4
  402b44:	4c65      	ldr	r4, [pc, #404]	; (402cdc <m2m_ip_cb+0x2a4>)
  402b46:	47a0      	blx	r4
  402b48:	2800      	cmp	r0, #0
  402b4a:	f040 80c4 	bne.w	402cd6 <m2m_ip_cb+0x29e>
		{
			strConnMsg.sock		= strConnectReply.sock;
  402b4e:	f99d 001c 	ldrsb.w	r0, [sp, #28]
  402b52:	f88d 000c 	strb.w	r0, [sp, #12]
			strConnMsg.s8Error	= strConnectReply.s8Error;
  402b56:	f99d 301d 	ldrsb.w	r3, [sp, #29]
  402b5a:	f88d 300d 	strb.w	r3, [sp, #13]
			if(strConnectReply.s8Error == SOCK_ERR_NO_ERROR)
  402b5e:	b93b      	cbnz	r3, 402b70 <m2m_ip_cb+0x138>
			{
				gastrSockets[strConnectReply.sock].u16DataOffset = strConnectReply.u16AppDataOffset - M2M_HIF_HDR_OFFSET;
  402b60:	f8bd 301e 	ldrh.w	r3, [sp, #30]
  402b64:	3b08      	subs	r3, #8
  402b66:	b29b      	uxth	r3, r3
  402b68:	4a5e      	ldr	r2, [pc, #376]	; (402ce4 <m2m_ip_cb+0x2ac>)
  402b6a:	eb02 1200 	add.w	r2, r2, r0, lsl #4
  402b6e:	8113      	strh	r3, [r2, #8]
			}
			if(gpfAppSocketCb)
  402b70:	4b5b      	ldr	r3, [pc, #364]	; (402ce0 <m2m_ip_cb+0x2a8>)
  402b72:	681b      	ldr	r3, [r3, #0]
  402b74:	2b00      	cmp	r3, #0
  402b76:	f000 80ae 	beq.w	402cd6 <m2m_ip_cb+0x29e>
				gpfAppSocketCb(strConnectReply.sock,SOCKET_MSG_CONNECT, &strConnMsg);
  402b7a:	4b59      	ldr	r3, [pc, #356]	; (402ce0 <m2m_ip_cb+0x2a8>)
  402b7c:	681b      	ldr	r3, [r3, #0]
  402b7e:	aa03      	add	r2, sp, #12
  402b80:	2105      	movs	r1, #5
  402b82:	4798      	blx	r3
  402b84:	e0a7      	b.n	402cd6 <m2m_ip_cb+0x29e>
		}
	}
	else if(u8OpCode == SOCKET_CMD_DNS_RESOLVE)
  402b86:	284a      	cmp	r0, #74	; 0x4a
  402b88:	d113      	bne.n	402bb2 <m2m_ip_cb+0x17a>
	{
		tstrDnsReply	strDnsReply;
		if(hif_receive(u32Address, (uint8*)&strDnsReply, sizeof(tstrDnsReply), 0) == M2M_SUCCESS)
  402b8a:	2300      	movs	r3, #0
  402b8c:	2244      	movs	r2, #68	; 0x44
  402b8e:	a907      	add	r1, sp, #28
  402b90:	4620      	mov	r0, r4
  402b92:	4c52      	ldr	r4, [pc, #328]	; (402cdc <m2m_ip_cb+0x2a4>)
  402b94:	47a0      	blx	r4
  402b96:	2800      	cmp	r0, #0
  402b98:	f040 809d 	bne.w	402cd6 <m2m_ip_cb+0x29e>
		{
			strDnsReply.u32HostIP = strDnsReply.u32HostIP;
			if(gpfAppResolveCb)
  402b9c:	4b53      	ldr	r3, [pc, #332]	; (402cec <m2m_ip_cb+0x2b4>)
  402b9e:	681b      	ldr	r3, [r3, #0]
  402ba0:	2b00      	cmp	r3, #0
  402ba2:	f000 8098 	beq.w	402cd6 <m2m_ip_cb+0x29e>
				gpfAppResolveCb((uint8*)strDnsReply.acHostName, strDnsReply.u32HostIP);
  402ba6:	4b51      	ldr	r3, [pc, #324]	; (402cec <m2m_ip_cb+0x2b4>)
  402ba8:	681b      	ldr	r3, [r3, #0]
  402baa:	9917      	ldr	r1, [sp, #92]	; 0x5c
  402bac:	a807      	add	r0, sp, #28
  402bae:	4798      	blx	r3
  402bb0:	e091      	b.n	402cd6 <m2m_ip_cb+0x29e>
		}
	}
	else if((u8OpCode == SOCKET_CMD_RECV) || (u8OpCode == SOCKET_CMD_RECVFROM) || (u8OpCode == SOCKET_CMD_SSL_RECV))
  402bb2:	f1a0 0346 	sub.w	r3, r0, #70	; 0x46
  402bb6:	b2db      	uxtb	r3, r3
  402bb8:	2b07      	cmp	r3, #7
  402bba:	d84d      	bhi.n	402c58 <m2m_ip_cb+0x220>
  402bbc:	2285      	movs	r2, #133	; 0x85
  402bbe:	fa22 f303 	lsr.w	r3, r2, r3
  402bc2:	f013 0f01 	tst.w	r3, #1
  402bc6:	d047      	beq.n	402c58 <m2m_ip_cb+0x220>
		tstrSocketRecvMsg	strRecvMsg;
		uint8				u8CallbackMsgID = SOCKET_MSG_RECV;
		uint16				u16DataOffset;

		if(u8OpCode == SOCKET_CMD_RECVFROM)
			u8CallbackMsgID = SOCKET_MSG_RECVFROM;
  402bc8:	2848      	cmp	r0, #72	; 0x48
  402bca:	bf14      	ite	ne
  402bcc:	2706      	movne	r7, #6
  402bce:	2709      	moveq	r7, #9

		/* Read RECV REPLY data structure.
		*/
		u16ReadSize = sizeof(tstrRecvReply);
		if(hif_receive(u32Address, (uint8*)&strRecvReply, u16ReadSize, 0) == M2M_SUCCESS)
  402bd0:	2300      	movs	r3, #0
  402bd2:	2210      	movs	r2, #16
  402bd4:	a903      	add	r1, sp, #12
  402bd6:	4620      	mov	r0, r4
  402bd8:	4e40      	ldr	r6, [pc, #256]	; (402cdc <m2m_ip_cb+0x2a4>)
  402bda:	47b0      	blx	r6
  402bdc:	2800      	cmp	r0, #0
  402bde:	d17a      	bne.n	402cd6 <m2m_ip_cb+0x29e>
		{
			uint16 u16SessionID = 0;

			sock			= strRecvReply.sock;
  402be0:	f99d 0018 	ldrsb.w	r0, [sp, #24]
			u16SessionID = strRecvReply.u16SessionID;
  402be4:	f8bd 101a 	ldrh.w	r1, [sp, #26]
			M2M_DBG("recv callback session ID = %d\r\n",u16SessionID);
			
			/* Reset the Socket RX Pending Flag.
			*/
			gastrSockets[sock].bIsRecvPending = 0;
  402be8:	4a3e      	ldr	r2, [pc, #248]	; (402ce4 <m2m_ip_cb+0x2ac>)
  402bea:	eb02 1200 	add.w	r2, r2, r0, lsl #4
  402bee:	2300      	movs	r3, #0
  402bf0:	7313      	strb	r3, [r2, #12]

			s16RecvStatus	= NM_BSP_B_L_16(strRecvReply.s16RecvStatus);
  402bf2:	f9bd e014 	ldrsh.w	lr, [sp, #20]
			u16DataOffset	= NM_BSP_B_L_16(strRecvReply.u16DataOffset);
  402bf6:	f8bd 3016 	ldrh.w	r3, [sp, #22]
			strRecvMsg.strRemoteAddr.sin_port 			= strRecvReply.strRemoteAddr.u16Port;
  402bfa:	f8bd 600e 	ldrh.w	r6, [sp, #14]
  402bfe:	f8ad 6026 	strh.w	r6, [sp, #38]	; 0x26
			strRecvMsg.strRemoteAddr.sin_addr.s_addr 	= strRecvReply.strRemoteAddr.u32IPAddr;
  402c02:	9e04      	ldr	r6, [sp, #16]
  402c04:	960a      	str	r6, [sp, #40]	; 0x28

			if(u16SessionID == gastrSockets[sock].u16SessionID)
  402c06:	88d2      	ldrh	r2, [r2, #6]
  402c08:	b292      	uxth	r2, r2
  402c0a:	4291      	cmp	r1, r2
  402c0c:	d11b      	bne.n	402c46 <m2m_ip_cb+0x20e>
			{
				if((s16RecvStatus > 0) && (s16RecvStatus < u16BufferSize))
  402c0e:	f1be 0f00 	cmp.w	lr, #0
  402c12:	dd0a      	ble.n	402c2a <m2m_ip_cb+0x1f2>
  402c14:	45ae      	cmp	lr, r5
  402c16:	da08      	bge.n	402c2a <m2m_ip_cb+0x1f2>
					/* Read the Application data and deliver it to the application callback in
					the given application buffer. If the buffer is smaller than the received data,
					the data is passed to the application in chunks according to its buffer size.
					*/
					u16ReadSize = (uint16)s16RecvStatus;
					Socket_ReadSocketData(sock, &strRecvMsg, u8CallbackMsgID, u32Address, u16ReadSize);
  402c18:	fa1f f28e 	uxth.w	r2, lr
  402c1c:	9200      	str	r2, [sp, #0]
  402c1e:	4423      	add	r3, r4
  402c20:	463a      	mov	r2, r7
  402c22:	a907      	add	r1, sp, #28
  402c24:	4c32      	ldr	r4, [pc, #200]	; (402cf0 <m2m_ip_cb+0x2b8>)
  402c26:	47a0      	blx	r4
  402c28:	e055      	b.n	402cd6 <m2m_ip_cb+0x29e>
				}
				else
				{
					strRecvMsg.s16BufferSize	= s16RecvStatus;
  402c2a:	f8ad e020 	strh.w	lr, [sp, #32]
					strRecvMsg.pu8Buffer		= NULL;
  402c2e:	2300      	movs	r3, #0
  402c30:	9307      	str	r3, [sp, #28]
					if(gpfAppSocketCb)
  402c32:	4b2b      	ldr	r3, [pc, #172]	; (402ce0 <m2m_ip_cb+0x2a8>)
  402c34:	681b      	ldr	r3, [r3, #0]
  402c36:	2b00      	cmp	r3, #0
  402c38:	d04d      	beq.n	402cd6 <m2m_ip_cb+0x29e>
						gpfAppSocketCb(sock,u8CallbackMsgID, &strRecvMsg);
  402c3a:	4b29      	ldr	r3, [pc, #164]	; (402ce0 <m2m_ip_cb+0x2a8>)
  402c3c:	681b      	ldr	r3, [r3, #0]
  402c3e:	aa07      	add	r2, sp, #28
  402c40:	4639      	mov	r1, r7
  402c42:	4798      	blx	r3
  402c44:	e047      	b.n	402cd6 <m2m_ip_cb+0x29e>
				}
			}
			else
			{
				M2M_DBG("Discard recv callback %d %d \r\n",u16SessionID , gastrSockets[sock].u16SessionID);
				if(u16ReadSize < u16BufferSize)
  402c46:	2d10      	cmp	r5, #16
  402c48:	d945      	bls.n	402cd6 <m2m_ip_cb+0x29e>
					hif_receive(0, NULL, 0, 1);
  402c4a:	2301      	movs	r3, #1
  402c4c:	2200      	movs	r2, #0
  402c4e:	4611      	mov	r1, r2
  402c50:	4610      	mov	r0, r2
  402c52:	4c22      	ldr	r4, [pc, #136]	; (402cdc <m2m_ip_cb+0x2a4>)
  402c54:	47a0      	blx	r4
			if(gpfAppResolveCb)
				gpfAppResolveCb((uint8*)strDnsReply.acHostName, strDnsReply.u32HostIP);
		}
	}
	else if((u8OpCode == SOCKET_CMD_RECV) || (u8OpCode == SOCKET_CMD_RECVFROM) || (u8OpCode == SOCKET_CMD_SSL_RECV))
	{
  402c56:	e03e      	b.n	402cd6 <m2m_ip_cb+0x29e>
				if(u16ReadSize < u16BufferSize)
					hif_receive(0, NULL, 0, 1);
			}
		}
	}
	else if((u8OpCode == SOCKET_CMD_SEND) || (u8OpCode == SOCKET_CMD_SENDTO) || (u8OpCode == SOCKET_CMD_SSL_SEND))
  402c58:	f000 03fd 	and.w	r3, r0, #253	; 0xfd
  402c5c:	2b45      	cmp	r3, #69	; 0x45
  402c5e:	d001      	beq.n	402c64 <m2m_ip_cb+0x22c>
  402c60:	284c      	cmp	r0, #76	; 0x4c
  402c62:	d123      	bne.n	402cac <m2m_ip_cb+0x274>
		sint16			s16Rcvd;
		tstrSendReply	strReply;
		uint8			u8CallbackMsgID = SOCKET_MSG_SEND;

		if(u8OpCode == SOCKET_CMD_SENDTO)
			u8CallbackMsgID = SOCKET_MSG_SENDTO;
  402c64:	2847      	cmp	r0, #71	; 0x47
  402c66:	bf14      	ite	ne
  402c68:	2507      	movne	r5, #7
  402c6a:	2508      	moveq	r5, #8

		if(hif_receive(u32Address, (uint8*)&strReply, sizeof(tstrSendReply), 0) == M2M_SUCCESS)
  402c6c:	2300      	movs	r3, #0
  402c6e:	2208      	movs	r2, #8
  402c70:	a907      	add	r1, sp, #28
  402c72:	4620      	mov	r0, r4
  402c74:	4c19      	ldr	r4, [pc, #100]	; (402cdc <m2m_ip_cb+0x2a4>)
  402c76:	47a0      	blx	r4
  402c78:	2800      	cmp	r0, #0
  402c7a:	d12c      	bne.n	402cd6 <m2m_ip_cb+0x29e>
		{
			uint16 u16SessionID = 0;
			
			sock = strReply.sock;
  402c7c:	f99d 001c 	ldrsb.w	r0, [sp, #28]
			u16SessionID = strReply.u16SessionID;
  402c80:	f8bd 2020 	ldrh.w	r2, [sp, #32]
			M2M_DBG("send callback session ID = %d\r\n",u16SessionID);
			
			s16Rcvd = NM_BSP_B_L_16(strReply.s16SentBytes);
  402c84:	f8bd 301e 	ldrh.w	r3, [sp, #30]
  402c88:	f8ad 300c 	strh.w	r3, [sp, #12]

			if(u16SessionID == gastrSockets[sock].u16SessionID)
  402c8c:	4b15      	ldr	r3, [pc, #84]	; (402ce4 <m2m_ip_cb+0x2ac>)
  402c8e:	eb03 1300 	add.w	r3, r3, r0, lsl #4
  402c92:	88db      	ldrh	r3, [r3, #6]
  402c94:	b29b      	uxth	r3, r3
  402c96:	429a      	cmp	r2, r3
  402c98:	d11d      	bne.n	402cd6 <m2m_ip_cb+0x29e>
			{
				if(gpfAppSocketCb)
  402c9a:	4b11      	ldr	r3, [pc, #68]	; (402ce0 <m2m_ip_cb+0x2a8>)
  402c9c:	681b      	ldr	r3, [r3, #0]
  402c9e:	b1d3      	cbz	r3, 402cd6 <m2m_ip_cb+0x29e>
					gpfAppSocketCb(sock,u8CallbackMsgID, &s16Rcvd);
  402ca0:	4b0f      	ldr	r3, [pc, #60]	; (402ce0 <m2m_ip_cb+0x2a8>)
  402ca2:	681b      	ldr	r3, [r3, #0]
  402ca4:	aa03      	add	r2, sp, #12
  402ca6:	4629      	mov	r1, r5
  402ca8:	4798      	blx	r3
					hif_receive(0, NULL, 0, 1);
			}
		}
	}
	else if((u8OpCode == SOCKET_CMD_SEND) || (u8OpCode == SOCKET_CMD_SENDTO) || (u8OpCode == SOCKET_CMD_SSL_SEND))
	{
  402caa:	e014      	b.n	402cd6 <m2m_ip_cb+0x29e>
			{
				M2M_DBG("Discard send callback %d %d \r\n",u16SessionID , gastrSockets[sock].u16SessionID);
			}
		}
	}
	else if(u8OpCode == SOCKET_CMD_PING)
  402cac:	2852      	cmp	r0, #82	; 0x52
  402cae:	d112      	bne.n	402cd6 <m2m_ip_cb+0x29e>
	{
		tstrPingReply	strPingReply;
		if(hif_receive(u32Address, (uint8*)&strPingReply, sizeof(tstrPingReply), 1) == M2M_SUCCESS)
  402cb0:	2301      	movs	r3, #1
  402cb2:	2214      	movs	r2, #20
  402cb4:	a907      	add	r1, sp, #28
  402cb6:	4620      	mov	r0, r4
  402cb8:	4c08      	ldr	r4, [pc, #32]	; (402cdc <m2m_ip_cb+0x2a4>)
  402cba:	47a0      	blx	r4
  402cbc:	b958      	cbnz	r0, 402cd6 <m2m_ip_cb+0x29e>
		{
			gfpPingCb = (void (*)(uint32 , uint32 , uint8))strPingReply.u32CmdPrivate;
  402cbe:	4b0d      	ldr	r3, [pc, #52]	; (402cf4 <m2m_ip_cb+0x2bc>)
  402cc0:	9a08      	ldr	r2, [sp, #32]
  402cc2:	601a      	str	r2, [r3, #0]
			if(gfpPingCb != NULL)
  402cc4:	681b      	ldr	r3, [r3, #0]
  402cc6:	b133      	cbz	r3, 402cd6 <m2m_ip_cb+0x29e>
			{
				gfpPingCb(strPingReply.u32IPAddr, strPingReply.u32RTT, strPingReply.u8ErrorCode);
  402cc8:	4b0a      	ldr	r3, [pc, #40]	; (402cf4 <m2m_ip_cb+0x2bc>)
  402cca:	681b      	ldr	r3, [r3, #0]
  402ccc:	f89d 202c 	ldrb.w	r2, [sp, #44]	; 0x2c
  402cd0:	9909      	ldr	r1, [sp, #36]	; 0x24
  402cd2:	9807      	ldr	r0, [sp, #28]
  402cd4:	4798      	blx	r3
			}
		}
	}
}
  402cd6:	b019      	add	sp, #100	; 0x64
  402cd8:	bdf0      	pop	{r4, r5, r6, r7, pc}
  402cda:	bf00      	nop
  402cdc:	004010e9 	.word	0x004010e9
  402ce0:	20400ffc 	.word	0x20400ffc
  402ce4:	20400f4c 	.word	0x20400f4c
  402ce8:	204008da 	.word	0x204008da
  402cec:	20401004 	.word	0x20401004
  402cf0:	0040297d 	.word	0x0040297d
  402cf4:	20401000 	.word	0x20401000

00402cf8 <socketInit>:

Date
		4 June 2012
*********************************************************************/
void socketInit(void)
{
  402cf8:	b508      	push	{r3, lr}
	if(gbSocketInit==0)
  402cfa:	4b0a      	ldr	r3, [pc, #40]	; (402d24 <socketInit+0x2c>)
  402cfc:	781b      	ldrb	r3, [r3, #0]
  402cfe:	f013 0fff 	tst.w	r3, #255	; 0xff
  402d02:	d10e      	bne.n	402d22 <socketInit+0x2a>
	{
		m2m_memset((uint8*)gastrSockets, 0, MAX_SOCKET * sizeof(tstrSocket));
  402d04:	22b0      	movs	r2, #176	; 0xb0
  402d06:	2100      	movs	r1, #0
  402d08:	4807      	ldr	r0, [pc, #28]	; (402d28 <socketInit+0x30>)
  402d0a:	4b08      	ldr	r3, [pc, #32]	; (402d2c <socketInit+0x34>)
  402d0c:	4798      	blx	r3
		hif_register_cb(M2M_REQ_GROUP_IP,m2m_ip_cb);
  402d0e:	4908      	ldr	r1, [pc, #32]	; (402d30 <socketInit+0x38>)
  402d10:	2002      	movs	r0, #2
  402d12:	4b08      	ldr	r3, [pc, #32]	; (402d34 <socketInit+0x3c>)
  402d14:	4798      	blx	r3
		gbSocketInit=1;
  402d16:	2201      	movs	r2, #1
  402d18:	4b02      	ldr	r3, [pc, #8]	; (402d24 <socketInit+0x2c>)
  402d1a:	701a      	strb	r2, [r3, #0]
		gu16SessionID = 0;
  402d1c:	2200      	movs	r2, #0
  402d1e:	4b06      	ldr	r3, [pc, #24]	; (402d38 <socketInit+0x40>)
  402d20:	801a      	strh	r2, [r3, #0]
  402d22:	bd08      	pop	{r3, pc}
  402d24:	204008d9 	.word	0x204008d9
  402d28:	20400f4c 	.word	0x20400f4c
  402d2c:	00400a8d 	.word	0x00400a8d
  402d30:	00402a39 	.word	0x00402a39
  402d34:	004011f9 	.word	0x004011f9
  402d38:	204008da 	.word	0x204008da

00402d3c <registerSocketCallback>:
Date
		4 June 2012
*********************************************************************/
void registerSocketCallback(tpfAppSocketCb pfAppSocketCb, tpfAppResolveCb pfAppResolveCb)
{
	gpfAppSocketCb = pfAppSocketCb;
  402d3c:	4b02      	ldr	r3, [pc, #8]	; (402d48 <registerSocketCallback+0xc>)
  402d3e:	6018      	str	r0, [r3, #0]
	gpfAppResolveCb = pfAppResolveCb;
  402d40:	4b02      	ldr	r3, [pc, #8]	; (402d4c <registerSocketCallback+0x10>)
  402d42:	6019      	str	r1, [r3, #0]
  402d44:	4770      	bx	lr
  402d46:	bf00      	nop
  402d48:	20400ffc 	.word	0x20400ffc
  402d4c:	20401004 	.word	0x20401004

00402d50 <socket>:

Date
		4 June 2012
*********************************************************************/
SOCKET socket(uint16 u16Domain, uint8 u8Type, uint8 u8Flags)
{
  402d50:	b570      	push	{r4, r5, r6, lr}
  402d52:	b086      	sub	sp, #24
	SOCKET		sock = -1;
	uint8		u8Count,u8SocketCount = MAX_SOCKET;
	volatile tstrSocket	*pstrSock;
	
	/* The only supported family is the AF_INET for UDP and TCP transport layer protocols. */
	if(u16Domain == AF_INET)
  402d54:	2802      	cmp	r0, #2
  402d56:	d14b      	bne.n	402df0 <socket+0xa0>
	{
		if(u8Type == SOCK_STREAM)
  402d58:	2901      	cmp	r1, #1
  402d5a:	d04c      	beq.n	402df6 <socket+0xa6>
		{
			u8SocketCount = TCP_SOCK_MAX;
			u8Count = 0;
		}
		else if(u8Type == SOCK_DGRAM)
  402d5c:	2902      	cmp	r1, #2
  402d5e:	d04d      	beq.n	402dfc <socket+0xac>
			/*--- UDP SOCKET ---*/
			u8SocketCount = MAX_SOCKET;
			u8Count = TCP_SOCK_MAX;
		}
		else
			return sock;
  402d60:	f04f 34ff 	mov.w	r4, #4294967295
  402d64:	e058      	b.n	402e18 <socket+0xc8>

		for(;u8Count < u8SocketCount; u8Count ++)
		{
			pstrSock = &gastrSockets[u8Count];
  402d66:	4625      	mov	r5, r4
			if(pstrSock->bIsUsed == 0)
  402d68:	eb00 1304 	add.w	r3, r0, r4, lsl #4
  402d6c:	7a9b      	ldrb	r3, [r3, #10]
  402d6e:	f013 0fff 	tst.w	r3, #255	; 0xff
  402d72:	d136      	bne.n	402de2 <socket+0x92>
		else
			return sock;

		for(;u8Count < u8SocketCount; u8Count ++)
		{
			pstrSock = &gastrSockets[u8Count];
  402d74:	482a      	ldr	r0, [pc, #168]	; (402e20 <socket+0xd0>)
  402d76:	eb00 1004 	add.w	r0, r0, r4, lsl #4
  402d7a:	4616      	mov	r6, r2
			if(pstrSock->bIsUsed == 0)
			{
				m2m_memset((uint8*)pstrSock, 0, sizeof(tstrSocket));
  402d7c:	2210      	movs	r2, #16
  402d7e:	2100      	movs	r1, #0
  402d80:	4b28      	ldr	r3, [pc, #160]	; (402e24 <socket+0xd4>)
  402d82:	4798      	blx	r3

				pstrSock->bIsUsed = 1;
  402d84:	4b26      	ldr	r3, [pc, #152]	; (402e20 <socket+0xd0>)
  402d86:	eb03 1305 	add.w	r3, r3, r5, lsl #4
  402d8a:	2201      	movs	r2, #1
  402d8c:	729a      	strb	r2, [r3, #10]

				/* The session ID is used to distinguish different socket connections
					by comparing the assigned session ID to the one reported by the firmware*/
				++gu16SessionID;
  402d8e:	4a26      	ldr	r2, [pc, #152]	; (402e28 <socket+0xd8>)
  402d90:	8813      	ldrh	r3, [r2, #0]
  402d92:	3301      	adds	r3, #1
  402d94:	b29b      	uxth	r3, r3
  402d96:	8013      	strh	r3, [r2, #0]
				if(gu16SessionID == 0)
  402d98:	8813      	ldrh	r3, [r2, #0]
  402d9a:	b29b      	uxth	r3, r3
  402d9c:	b91b      	cbnz	r3, 402da6 <socket+0x56>
					++gu16SessionID;
  402d9e:	8813      	ldrh	r3, [r2, #0]
  402da0:	3301      	adds	r3, #1
  402da2:	b29b      	uxth	r3, r3
  402da4:	8013      	strh	r3, [r2, #0]
				
				pstrSock->u16SessionID = gu16SessionID;
  402da6:	4b20      	ldr	r3, [pc, #128]	; (402e28 <socket+0xd8>)
  402da8:	881a      	ldrh	r2, [r3, #0]
  402daa:	b292      	uxth	r2, r2
  402dac:	4b1c      	ldr	r3, [pc, #112]	; (402e20 <socket+0xd0>)
  402dae:	eb03 1305 	add.w	r3, r3, r5, lsl #4
  402db2:	80da      	strh	r2, [r3, #6]
				M2M_DBG("1 Socket %d session ID = %d\r\n",u8Count, gu16SessionID );
				sock = (SOCKET)u8Count;
  402db4:	b264      	sxtb	r4, r4

				if(u8Flags & SOCKET_FLAGS_SSL)
  402db6:	f016 0f01 	tst.w	r6, #1
  402dba:	d02d      	beq.n	402e18 <socket+0xc8>
				{
					tstrSSLSocketCreateCmd	strSSLCreate;
					strSSLCreate.sslSock = sock;
  402dbc:	aa06      	add	r2, sp, #24
  402dbe:	f802 4d04 	strb.w	r4, [r2, #-4]!
					pstrSock->u8SSLFlags = SSL_FLAGS_ACTIVE | SSL_FLAGS_NO_TX_COPY;
  402dc2:	4b17      	ldr	r3, [pc, #92]	; (402e20 <socket+0xd0>)
  402dc4:	eb03 1505 	add.w	r5, r3, r5, lsl #4
  402dc8:	2321      	movs	r3, #33	; 0x21
  402dca:	72eb      	strb	r3, [r5, #11]
					SOCKET_REQUEST(SOCKET_CMD_SSL_CREATE, (uint8*)&strSSLCreate, sizeof(tstrSSLSocketCreateCmd), 0, 0, 0);
  402dcc:	2300      	movs	r3, #0
  402dce:	9302      	str	r3, [sp, #8]
  402dd0:	9301      	str	r3, [sp, #4]
  402dd2:	9300      	str	r3, [sp, #0]
  402dd4:	2304      	movs	r3, #4
  402dd6:	2150      	movs	r1, #80	; 0x50
  402dd8:	2002      	movs	r0, #2
  402dda:	4d14      	ldr	r5, [pc, #80]	; (402e2c <socket+0xdc>)
  402ddc:	47a8      	blx	r5
  402dde:	e01b      	b.n	402e18 <socket+0xc8>
			return sock;

		for(;u8Count < u8SocketCount; u8Count ++)
		{
			pstrSock = &gastrSockets[u8Count];
			if(pstrSock->bIsUsed == 0)
  402de0:	480f      	ldr	r0, [pc, #60]	; (402e20 <socket+0xd0>)
			u8Count = TCP_SOCK_MAX;
		}
		else
			return sock;

		for(;u8Count < u8SocketCount; u8Count ++)
  402de2:	3401      	adds	r4, #1
  402de4:	b2e4      	uxtb	r4, r4
  402de6:	428c      	cmp	r4, r1
  402de8:	d3bd      	bcc.n	402d66 <socket+0x16>
Date
		4 June 2012
*********************************************************************/
SOCKET socket(uint16 u16Domain, uint8 u8Type, uint8 u8Flags)
{
	SOCKET		sock = -1;
  402dea:	f04f 34ff 	mov.w	r4, #4294967295
  402dee:	e013      	b.n	402e18 <socket+0xc8>
  402df0:	f04f 34ff 	mov.w	r4, #4294967295
  402df4:	e010      	b.n	402e18 <socket+0xc8>
	/* The only supported family is the AF_INET for UDP and TCP transport layer protocols. */
	if(u16Domain == AF_INET)
	{
		if(u8Type == SOCK_STREAM)
		{
			u8SocketCount = TCP_SOCK_MAX;
  402df6:	2107      	movs	r1, #7
			u8Count = 0;
  402df8:	2400      	movs	r4, #0
  402dfa:	e001      	b.n	402e00 <socket+0xb0>
		}
		else if(u8Type == SOCK_DGRAM)
		{
			/*--- UDP SOCKET ---*/
			u8SocketCount = MAX_SOCKET;
  402dfc:	210b      	movs	r1, #11
			u8Count = TCP_SOCK_MAX;
  402dfe:	2407      	movs	r4, #7
		else
			return sock;

		for(;u8Count < u8SocketCount; u8Count ++)
		{
			pstrSock = &gastrSockets[u8Count];
  402e00:	4625      	mov	r5, r4
			if(pstrSock->bIsUsed == 0)
  402e02:	4b07      	ldr	r3, [pc, #28]	; (402e20 <socket+0xd0>)
  402e04:	eb03 1304 	add.w	r3, r3, r4, lsl #4
  402e08:	7a9b      	ldrb	r3, [r3, #10]
  402e0a:	f013 0fff 	tst.w	r3, #255	; 0xff
  402e0e:	d1e7      	bne.n	402de0 <socket+0x90>
		else
			return sock;

		for(;u8Count < u8SocketCount; u8Count ++)
		{
			pstrSock = &gastrSockets[u8Count];
  402e10:	4803      	ldr	r0, [pc, #12]	; (402e20 <socket+0xd0>)
  402e12:	eb00 1004 	add.w	r0, r0, r4, lsl #4
  402e16:	e7b0      	b.n	402d7a <socket+0x2a>
				break;
			}
		}
	}
	return sock;
}
  402e18:	4620      	mov	r0, r4
  402e1a:	b006      	add	sp, #24
  402e1c:	bd70      	pop	{r4, r5, r6, pc}
  402e1e:	bf00      	nop
  402e20:	20400f4c 	.word	0x20400f4c
  402e24:	00400a8d 	.word	0x00400a8d
  402e28:	204008da 	.word	0x204008da
  402e2c:	00400bf1 	.word	0x00400bf1

00402e30 <bind>:
		5 June 2012
*********************************************************************/
sint8 bind(SOCKET sock, struct sockaddr *pstrAddr, uint8 u8AddrLen)
{
	sint8	s8Ret = SOCK_ERR_INVALID_ARG;
	if((pstrAddr != NULL) && (sock >= 0) && (gastrSockets[sock].bIsUsed == 1) && (u8AddrLen != 0))
  402e30:	2900      	cmp	r1, #0
  402e32:	d02e      	beq.n	402e92 <bind+0x62>

Date
		5 June 2012
*********************************************************************/
sint8 bind(SOCKET sock, struct sockaddr *pstrAddr, uint8 u8AddrLen)
{
  402e34:	b510      	push	{r4, lr}
  402e36:	b088      	sub	sp, #32
	sint8	s8Ret = SOCK_ERR_INVALID_ARG;
	if((pstrAddr != NULL) && (sock >= 0) && (gastrSockets[sock].bIsUsed == 1) && (u8AddrLen != 0))
  402e38:	2800      	cmp	r0, #0
  402e3a:	db23      	blt.n	402e84 <bind+0x54>
  402e3c:	4b16      	ldr	r3, [pc, #88]	; (402e98 <bind+0x68>)
  402e3e:	eb03 1300 	add.w	r3, r3, r0, lsl #4
  402e42:	7a9b      	ldrb	r3, [r3, #10]
  402e44:	b2db      	uxtb	r3, r3
  402e46:	b302      	cbz	r2, 402e8a <bind+0x5a>
  402e48:	2b01      	cmp	r3, #1
  402e4a:	d11e      	bne.n	402e8a <bind+0x5a>
  402e4c:	4604      	mov	r4, r0
	{
		tstrBindCmd			strBind;

		/* Build the bind request. */
		strBind.sock = sock;
  402e4e:	f88d 001c 	strb.w	r0, [sp, #28]
		m2m_memcpy((uint8 *)&strBind.strAddr, (uint8 *)pstrAddr, sizeof(tstrSockAddr));
  402e52:	2208      	movs	r2, #8
  402e54:	a805      	add	r0, sp, #20
  402e56:	4b11      	ldr	r3, [pc, #68]	; (402e9c <bind+0x6c>)
  402e58:	4798      	blx	r3

		strBind.strAddr.u16Family	= strBind.strAddr.u16Family;
		strBind.strAddr.u16Port		= strBind.strAddr.u16Port;
		strBind.strAddr.u32IPAddr	= strBind.strAddr.u32IPAddr;
		strBind.u16SessionID		= gastrSockets[sock].u16SessionID;
  402e5a:	480f      	ldr	r0, [pc, #60]	; (402e98 <bind+0x68>)
  402e5c:	eb00 1004 	add.w	r0, r0, r4, lsl #4
  402e60:	88c3      	ldrh	r3, [r0, #6]
  402e62:	f8ad 301e 	strh.w	r3, [sp, #30]
		
		/* Send the request. */
		s8Ret = SOCKET_REQUEST(SOCKET_CMD_BIND, (uint8*)&strBind,sizeof(tstrBindCmd) , NULL , 0, 0);
  402e66:	2300      	movs	r3, #0
  402e68:	9302      	str	r3, [sp, #8]
  402e6a:	9301      	str	r3, [sp, #4]
  402e6c:	9300      	str	r3, [sp, #0]
  402e6e:	230c      	movs	r3, #12
  402e70:	aa05      	add	r2, sp, #20
  402e72:	2141      	movs	r1, #65	; 0x41
  402e74:	2002      	movs	r0, #2
  402e76:	4c0a      	ldr	r4, [pc, #40]	; (402ea0 <bind+0x70>)
  402e78:	47a0      	blx	r4
		if(s8Ret != SOCK_ERR_NO_ERROR)
  402e7a:	2800      	cmp	r0, #0
		{
			s8Ret = SOCK_ERR_INVALID;
  402e7c:	bf18      	it	ne
  402e7e:	f06f 0008 	mvnne.w	r0, #8
  402e82:	e004      	b.n	402e8e <bind+0x5e>
Date
		5 June 2012
*********************************************************************/
sint8 bind(SOCKET sock, struct sockaddr *pstrAddr, uint8 u8AddrLen)
{
	sint8	s8Ret = SOCK_ERR_INVALID_ARG;
  402e84:	f06f 0005 	mvn.w	r0, #5
  402e88:	e001      	b.n	402e8e <bind+0x5e>
  402e8a:	f06f 0005 	mvn.w	r0, #5
		{
			s8Ret = SOCK_ERR_INVALID;
		}
	}
	return s8Ret;
}
  402e8e:	b008      	add	sp, #32
  402e90:	bd10      	pop	{r4, pc}
Date
		5 June 2012
*********************************************************************/
sint8 bind(SOCKET sock, struct sockaddr *pstrAddr, uint8 u8AddrLen)
{
	sint8	s8Ret = SOCK_ERR_INVALID_ARG;
  402e92:	f06f 0005 	mvn.w	r0, #5
		{
			s8Ret = SOCK_ERR_INVALID;
		}
	}
	return s8Ret;
}
  402e96:	4770      	bx	lr
  402e98:	20400f4c 	.word	0x20400f4c
  402e9c:	00400a79 	.word	0x00400a79
  402ea0:	00400bf1 	.word	0x00400bf1

00402ea4 <listen>:
*********************************************************************/
sint8 listen(SOCKET sock, uint8 backlog)
{
	sint8	s8Ret = SOCK_ERR_INVALID_ARG;
	
	if(sock >= 0 && (gastrSockets[sock].bIsUsed == 1))
  402ea4:	2800      	cmp	r0, #0
  402ea6:	db21      	blt.n	402eec <listen+0x48>
  402ea8:	4b14      	ldr	r3, [pc, #80]	; (402efc <listen+0x58>)
  402eaa:	eb03 1300 	add.w	r3, r3, r0, lsl #4
  402eae:	7a9b      	ldrb	r3, [r3, #10]
  402eb0:	b2db      	uxtb	r3, r3
  402eb2:	2b01      	cmp	r3, #1
  402eb4:	d11d      	bne.n	402ef2 <listen+0x4e>

Date
		5 June 2012
*********************************************************************/
sint8 listen(SOCKET sock, uint8 backlog)
{
  402eb6:	b510      	push	{r4, lr}
  402eb8:	b086      	sub	sp, #24
	
	if(sock >= 0 && (gastrSockets[sock].bIsUsed == 1))
	{
		tstrListenCmd		strListen;

		strListen.sock = sock;
  402eba:	f88d 0014 	strb.w	r0, [sp, #20]
		strListen.u8BackLog = backlog;
  402ebe:	f88d 1015 	strb.w	r1, [sp, #21]
		strListen.u16SessionID		= gastrSockets[sock].u16SessionID;
  402ec2:	4b0e      	ldr	r3, [pc, #56]	; (402efc <listen+0x58>)
  402ec4:	eb03 1000 	add.w	r0, r3, r0, lsl #4
  402ec8:	88c3      	ldrh	r3, [r0, #6]
  402eca:	f8ad 3016 	strh.w	r3, [sp, #22]

		s8Ret = SOCKET_REQUEST(SOCKET_CMD_LISTEN, (uint8*)&strListen, sizeof(tstrListenCmd), NULL, 0, 0);
  402ece:	2300      	movs	r3, #0
  402ed0:	9302      	str	r3, [sp, #8]
  402ed2:	9301      	str	r3, [sp, #4]
  402ed4:	9300      	str	r3, [sp, #0]
  402ed6:	2304      	movs	r3, #4
  402ed8:	aa05      	add	r2, sp, #20
  402eda:	2142      	movs	r1, #66	; 0x42
  402edc:	2002      	movs	r0, #2
  402ede:	4c08      	ldr	r4, [pc, #32]	; (402f00 <listen+0x5c>)
  402ee0:	47a0      	blx	r4
		if(s8Ret != SOCK_ERR_NO_ERROR)
  402ee2:	2800      	cmp	r0, #0
		{
			s8Ret = SOCK_ERR_INVALID;
  402ee4:	bf18      	it	ne
  402ee6:	f06f 0008 	mvnne.w	r0, #8
  402eea:	e005      	b.n	402ef8 <listen+0x54>
Date
		5 June 2012
*********************************************************************/
sint8 listen(SOCKET sock, uint8 backlog)
{
	sint8	s8Ret = SOCK_ERR_INVALID_ARG;
  402eec:	f06f 0005 	mvn.w	r0, #5
  402ef0:	4770      	bx	lr
  402ef2:	f06f 0005 	mvn.w	r0, #5
  402ef6:	4770      	bx	lr
		{
			s8Ret = SOCK_ERR_INVALID;
		}
	}
	return s8Ret;
}
  402ef8:	b006      	add	sp, #24
  402efa:	bd10      	pop	{r4, pc}
  402efc:	20400f4c 	.word	0x20400f4c
  402f00:	00400bf1 	.word	0x00400bf1

00402f04 <accept>:
*********************************************************************/
sint8 accept(SOCKET sock, struct sockaddr *addr, uint8 *addrlen)
{
	sint8	s8Ret = SOCK_ERR_INVALID_ARG;
	
	if(sock >= 0 && (gastrSockets[sock].bIsUsed == 1) )
  402f04:	2800      	cmp	r0, #0
  402f06:	db0a      	blt.n	402f1e <accept+0x1a>
  402f08:	4b06      	ldr	r3, [pc, #24]	; (402f24 <accept+0x20>)
  402f0a:	eb03 1000 	add.w	r0, r3, r0, lsl #4
  402f0e:	7a83      	ldrb	r3, [r0, #10]
  402f10:	b2db      	uxtb	r3, r3
	{
		s8Ret = SOCK_ERR_NO_ERROR;
  402f12:	2b01      	cmp	r3, #1
  402f14:	bf14      	ite	ne
  402f16:	f06f 0005 	mvnne.w	r0, #5
  402f1a:	2000      	moveq	r0, #0
  402f1c:	4770      	bx	lr
Date
		5 June 2012
*********************************************************************/
sint8 accept(SOCKET sock, struct sockaddr *addr, uint8 *addrlen)
{
	sint8	s8Ret = SOCK_ERR_INVALID_ARG;
  402f1e:	f06f 0005 	mvn.w	r0, #5
	if(sock >= 0 && (gastrSockets[sock].bIsUsed == 1) )
	{
		s8Ret = SOCK_ERR_NO_ERROR;
	}
	return s8Ret;
}
  402f22:	4770      	bx	lr
  402f24:	20400f4c 	.word	0x20400f4c

00402f28 <send>:

Date
		5 June 2012
*********************************************************************/
sint16 send(SOCKET sock, void *pvSendBuffer, uint16 u16SendLength, uint16 flags)
{
  402f28:	b530      	push	{r4, r5, lr}
  402f2a:	b089      	sub	sp, #36	; 0x24
	sint16	s16Ret = SOCK_ERR_INVALID_ARG;
	
	if((sock >= 0) && (pvSendBuffer != NULL) && (u16SendLength <= SOCKET_BUFFER_MAX_LENGTH) && (gastrSockets[sock].bIsUsed == 1))
  402f2c:	460c      	mov	r4, r1
  402f2e:	3100      	adds	r1, #0
  402f30:	bf18      	it	ne
  402f32:	2101      	movne	r1, #1
  402f34:	f5b2 6faf 	cmp.w	r2, #1400	; 0x578
  402f38:	bf88      	it	hi
  402f3a:	2100      	movhi	r1, #0
  402f3c:	2900      	cmp	r1, #0
  402f3e:	d036      	beq.n	402fae <send+0x86>
  402f40:	2800      	cmp	r0, #0
  402f42:	db34      	blt.n	402fae <send+0x86>
  402f44:	4b1d      	ldr	r3, [pc, #116]	; (402fbc <send+0x94>)
  402f46:	eb03 1300 	add.w	r3, r3, r0, lsl #4
  402f4a:	7a9b      	ldrb	r3, [r3, #10]
  402f4c:	b2db      	uxtb	r3, r3
  402f4e:	2b01      	cmp	r3, #1
  402f50:	d130      	bne.n	402fb4 <send+0x8c>
		uint8			u8Cmd;

		u8Cmd			= SOCKET_CMD_SEND;
		u16DataOffset	= TCP_TX_PACKET_OFFSET;

		strSend.sock			= sock;
  402f52:	f88d 0010 	strb.w	r0, [sp, #16]
		strSend.u16DataSize		= NM_BSP_B_L_16(u16SendLength);
  402f56:	f8ad 2012 	strh.w	r2, [sp, #18]
		strSend.u16SessionID	= gastrSockets[sock].u16SessionID;
  402f5a:	4b18      	ldr	r3, [pc, #96]	; (402fbc <send+0x94>)
  402f5c:	eb03 1300 	add.w	r3, r3, r0, lsl #4
  402f60:	88db      	ldrh	r3, [r3, #6]
  402f62:	f8ad 301c 	strh.w	r3, [sp, #28]

		if(sock >= TCP_SOCK_MAX)
		{
			u16DataOffset = UDP_TX_PACKET_OFFSET;
  402f66:	2807      	cmp	r0, #7
  402f68:	bfb4      	ite	lt
  402f6a:	2550      	movlt	r5, #80	; 0x50
  402f6c:	2544      	movge	r5, #68	; 0x44
		}
		if(gastrSockets[sock].u8SSLFlags & SSL_FLAGS_ACTIVE)
  402f6e:	4b13      	ldr	r3, [pc, #76]	; (402fbc <send+0x94>)
  402f70:	eb03 1300 	add.w	r3, r3, r0, lsl #4
  402f74:	7adb      	ldrb	r3, [r3, #11]
  402f76:	f013 0f01 	tst.w	r3, #1
  402f7a:	d006      	beq.n	402f8a <send+0x62>
		{
			u8Cmd			= SOCKET_CMD_SSL_SEND;
			u16DataOffset	= gastrSockets[sock].u16DataOffset;
  402f7c:	4b0f      	ldr	r3, [pc, #60]	; (402fbc <send+0x94>)
  402f7e:	eb03 1000 	add.w	r0, r3, r0, lsl #4
  402f82:	8905      	ldrh	r5, [r0, #8]
  402f84:	b2ad      	uxth	r5, r5
		{
			u16DataOffset = UDP_TX_PACKET_OFFSET;
		}
		if(gastrSockets[sock].u8SSLFlags & SSL_FLAGS_ACTIVE)
		{
			u8Cmd			= SOCKET_CMD_SSL_SEND;
  402f86:	214c      	movs	r1, #76	; 0x4c
  402f88:	e000      	b.n	402f8c <send+0x64>
	{
		uint16			u16DataOffset;
		tstrSendCmd		strSend;
		uint8			u8Cmd;

		u8Cmd			= SOCKET_CMD_SEND;
  402f8a:	2145      	movs	r1, #69	; 0x45
		{
			u8Cmd			= SOCKET_CMD_SSL_SEND;
			u16DataOffset	= gastrSockets[sock].u16DataOffset;
		}

		s16Ret =  SOCKET_REQUEST(u8Cmd|M2M_REQ_DATA_PKT, (uint8*)&strSend, sizeof(tstrSendCmd), pvSendBuffer, u16SendLength, u16DataOffset);
  402f8c:	9502      	str	r5, [sp, #8]
  402f8e:	9201      	str	r2, [sp, #4]
  402f90:	9400      	str	r4, [sp, #0]
  402f92:	2310      	movs	r3, #16
  402f94:	eb0d 0203 	add.w	r2, sp, r3
  402f98:	f041 0180 	orr.w	r1, r1, #128	; 0x80
  402f9c:	2002      	movs	r0, #2
  402f9e:	4c08      	ldr	r4, [pc, #32]	; (402fc0 <send+0x98>)
  402fa0:	47a0      	blx	r4
		if(s16Ret != SOCK_ERR_NO_ERROR)
  402fa2:	2800      	cmp	r0, #0
		{
			s16Ret = SOCK_ERR_BUFFER_FULL;
  402fa4:	bf0c      	ite	eq
  402fa6:	2000      	moveq	r0, #0
  402fa8:	f06f 000d 	mvnne.w	r0, #13
  402fac:	e004      	b.n	402fb8 <send+0x90>
Date
		5 June 2012
*********************************************************************/
sint16 send(SOCKET sock, void *pvSendBuffer, uint16 u16SendLength, uint16 flags)
{
	sint16	s16Ret = SOCK_ERR_INVALID_ARG;
  402fae:	f06f 0005 	mvn.w	r0, #5
  402fb2:	e001      	b.n	402fb8 <send+0x90>
  402fb4:	f06f 0005 	mvn.w	r0, #5
		{
			s16Ret = SOCK_ERR_BUFFER_FULL;
		}
	}
	return s16Ret;
}
  402fb8:	b009      	add	sp, #36	; 0x24
  402fba:	bd30      	pop	{r4, r5, pc}
  402fbc:	20400f4c 	.word	0x20400f4c
  402fc0:	00400bf1 	.word	0x00400bf1

00402fc4 <recv>:
*********************************************************************/
sint16 recv(SOCKET sock, void *pvRecvBuf, uint16 u16BufLen, uint32 u32Timeoutmsec)
{
	sint16	s16Ret = SOCK_ERR_INVALID_ARG;
	
	if((sock >= 0) && (pvRecvBuf != NULL) && (u16BufLen != 0) && (gastrSockets[sock].bIsUsed == 1))
  402fc4:	2900      	cmp	r1, #0
  402fc6:	bf18      	it	ne
  402fc8:	2a00      	cmpne	r2, #0
  402fca:	d045      	beq.n	403058 <recv+0x94>

Date
		5 June 2012
*********************************************************************/
sint16 recv(SOCKET sock, void *pvRecvBuf, uint16 u16BufLen, uint32 u32Timeoutmsec)
{
  402fcc:	b570      	push	{r4, r5, r6, lr}
  402fce:	b086      	sub	sp, #24
  402fd0:	460e      	mov	r6, r1
  402fd2:	4615      	mov	r5, r2
	sint16	s16Ret = SOCK_ERR_INVALID_ARG;
	
	if((sock >= 0) && (pvRecvBuf != NULL) && (u16BufLen != 0) && (gastrSockets[sock].bIsUsed == 1))
  402fd4:	2800      	cmp	r0, #0
  402fd6:	db36      	blt.n	403046 <recv+0x82>
  402fd8:	4a21      	ldr	r2, [pc, #132]	; (403060 <recv+0x9c>)
  402fda:	eb02 1200 	add.w	r2, r2, r0, lsl #4
  402fde:	7a92      	ldrb	r2, [r2, #10]
  402fe0:	b2d2      	uxtb	r2, r2
  402fe2:	2a01      	cmp	r2, #1
  402fe4:	d132      	bne.n	40304c <recv+0x88>
	{
		s16Ret = SOCK_ERR_NO_ERROR;
		gastrSockets[sock].pu8UserBuffer 		= (uint8*)pvRecvBuf;
  402fe6:	4c1e      	ldr	r4, [pc, #120]	; (403060 <recv+0x9c>)
  402fe8:	0101      	lsls	r1, r0, #4
  402fea:	1862      	adds	r2, r4, r1
  402fec:	5066      	str	r6, [r4, r1]
		gastrSockets[sock].u16UserBufferSize 	= u16BufLen;
  402fee:	8095      	strh	r5, [r2, #4]

		if(!gastrSockets[sock].bIsRecvPending)
  402ff0:	7b12      	ldrb	r2, [r2, #12]
  402ff2:	f012 0fff 	tst.w	r2, #255	; 0xff
  402ff6:	d12c      	bne.n	403052 <recv+0x8e>
		{
			tstrRecvCmd	strRecv;
			uint8		u8Cmd = SOCKET_CMD_RECV;

			gastrSockets[sock].bIsRecvPending = 1;
  402ff8:	eb04 1200 	add.w	r2, r4, r0, lsl #4
  402ffc:	2101      	movs	r1, #1
  402ffe:	7311      	strb	r1, [r2, #12]
			if(gastrSockets[sock].u8SSLFlags & SSL_FLAGS_ACTIVE)
  403000:	7ad2      	ldrb	r2, [r2, #11]
  403002:	400a      	ands	r2, r1
			{
				u8Cmd = SOCKET_CMD_SSL_RECV;
  403004:	2a00      	cmp	r2, #0
  403006:	bf0c      	ite	eq
  403008:	2146      	moveq	r1, #70	; 0x46
  40300a:	214d      	movne	r1, #77	; 0x4d
			}

			/* Check the timeout value. */
			if(u32Timeoutmsec == 0)
  40300c:	b91b      	cbnz	r3, 403016 <recv+0x52>
				strRecv.u32Timeoutmsec = 0xFFFFFFFF;
  40300e:	f04f 33ff 	mov.w	r3, #4294967295
  403012:	9304      	str	r3, [sp, #16]
  403014:	e000      	b.n	403018 <recv+0x54>
			else
				strRecv.u32Timeoutmsec = NM_BSP_B_L_32(u32Timeoutmsec);
  403016:	9304      	str	r3, [sp, #16]
			strRecv.sock = sock;
  403018:	f88d 0014 	strb.w	r0, [sp, #20]
			strRecv.u16SessionID		= gastrSockets[sock].u16SessionID;
  40301c:	4b10      	ldr	r3, [pc, #64]	; (403060 <recv+0x9c>)
  40301e:	eb03 1000 	add.w	r0, r3, r0, lsl #4
  403022:	88c3      	ldrh	r3, [r0, #6]
  403024:	f8ad 3016 	strh.w	r3, [sp, #22]
		
			s16Ret = SOCKET_REQUEST(u8Cmd, (uint8*)&strRecv, sizeof(tstrRecvCmd), NULL , 0, 0);
  403028:	2300      	movs	r3, #0
  40302a:	9302      	str	r3, [sp, #8]
  40302c:	9301      	str	r3, [sp, #4]
  40302e:	9300      	str	r3, [sp, #0]
  403030:	2308      	movs	r3, #8
  403032:	aa04      	add	r2, sp, #16
  403034:	2002      	movs	r0, #2
  403036:	4c0b      	ldr	r4, [pc, #44]	; (403064 <recv+0xa0>)
  403038:	47a0      	blx	r4
			if(s16Ret != SOCK_ERR_NO_ERROR)
  40303a:	2800      	cmp	r0, #0
			{
				s16Ret = SOCK_ERR_BUFFER_FULL;
  40303c:	bf0c      	ite	eq
  40303e:	2000      	moveq	r0, #0
  403040:	f06f 000d 	mvnne.w	r0, #13
  403044:	e006      	b.n	403054 <recv+0x90>
Date
		5 June 2012
*********************************************************************/
sint16 recv(SOCKET sock, void *pvRecvBuf, uint16 u16BufLen, uint32 u32Timeoutmsec)
{
	sint16	s16Ret = SOCK_ERR_INVALID_ARG;
  403046:	f06f 0005 	mvn.w	r0, #5
  40304a:	e003      	b.n	403054 <recv+0x90>
  40304c:	f06f 0005 	mvn.w	r0, #5
  403050:	e000      	b.n	403054 <recv+0x90>
	
	if((sock >= 0) && (pvRecvBuf != NULL) && (u16BufLen != 0) && (gastrSockets[sock].bIsUsed == 1))
	{
		s16Ret = SOCK_ERR_NO_ERROR;
  403052:	2000      	movs	r0, #0
				s16Ret = SOCK_ERR_BUFFER_FULL;
			}
		}
	}
	return s16Ret;
}
  403054:	b006      	add	sp, #24
  403056:	bd70      	pop	{r4, r5, r6, pc}
Date
		5 June 2012
*********************************************************************/
sint16 recv(SOCKET sock, void *pvRecvBuf, uint16 u16BufLen, uint32 u32Timeoutmsec)
{
	sint16	s16Ret = SOCK_ERR_INVALID_ARG;
  403058:	f06f 0005 	mvn.w	r0, #5
				s16Ret = SOCK_ERR_BUFFER_FULL;
			}
		}
	}
	return s16Ret;
}
  40305c:	4770      	bx	lr
  40305e:	bf00      	nop
  403060:	20400f4c 	.word	0x20400f4c
  403064:	00400bf1 	.word	0x00400bf1

00403068 <close>:

Date
		4 June 2012
*********************************************************************/
sint8 close(SOCKET sock)
{
  403068:	b530      	push	{r4, r5, lr}
  40306a:	b087      	sub	sp, #28
	sint8	s8Ret = SOCK_ERR_INVALID_ARG;
	if(sock >= 0 && (gastrSockets[sock].bIsUsed == 1))
  40306c:	2800      	cmp	r0, #0
  40306e:	db2e      	blt.n	4030ce <close+0x66>
  403070:	4b1b      	ldr	r3, [pc, #108]	; (4030e0 <close+0x78>)
  403072:	eb03 1300 	add.w	r3, r3, r0, lsl #4
  403076:	7a9b      	ldrb	r3, [r3, #10]
  403078:	b2db      	uxtb	r3, r3
  40307a:	2b01      	cmp	r3, #1
  40307c:	d12a      	bne.n	4030d4 <close+0x6c>
  40307e:	4604      	mov	r4, r0
	{
		uint8	u8Cmd = SOCKET_CMD_CLOSE;
		tstrCloseCmd strclose;
		strclose.sock = sock; 
  403080:	f88d 0014 	strb.w	r0, [sp, #20]
		strclose.u16SessionID		= gastrSockets[sock].u16SessionID;
  403084:	4b16      	ldr	r3, [pc, #88]	; (4030e0 <close+0x78>)
  403086:	eb03 1300 	add.w	r3, r3, r0, lsl #4
  40308a:	88da      	ldrh	r2, [r3, #6]
  40308c:	f8ad 2016 	strh.w	r2, [sp, #22]
		
		gastrSockets[sock].bIsUsed = 0;
  403090:	2200      	movs	r2, #0
  403092:	729a      	strb	r2, [r3, #10]
		gastrSockets[sock].u16SessionID =0;
  403094:	80da      	strh	r2, [r3, #6]
		
		if(gastrSockets[sock].u8SSLFlags & SSL_FLAGS_ACTIVE)
  403096:	7adb      	ldrb	r3, [r3, #11]
  403098:	f003 0301 	and.w	r3, r3, #1
		{
			u8Cmd = SOCKET_CMD_SSL_CLOSE;
  40309c:	4293      	cmp	r3, r2
		}
		s8Ret = SOCKET_REQUEST(u8Cmd, (uint8*)&strclose, sizeof(tstrCloseCmd), NULL,0, 0);
  40309e:	9202      	str	r2, [sp, #8]
  4030a0:	9201      	str	r2, [sp, #4]
  4030a2:	9200      	str	r2, [sp, #0]
  4030a4:	f04f 0304 	mov.w	r3, #4
  4030a8:	aa05      	add	r2, sp, #20
  4030aa:	bf0c      	ite	eq
  4030ac:	2149      	moveq	r1, #73	; 0x49
  4030ae:	214e      	movne	r1, #78	; 0x4e
  4030b0:	2002      	movs	r0, #2
  4030b2:	4d0c      	ldr	r5, [pc, #48]	; (4030e4 <close+0x7c>)
  4030b4:	47a8      	blx	r5
		if(s8Ret != SOCK_ERR_NO_ERROR)
  4030b6:	1e05      	subs	r5, r0, #0
		{
			s8Ret = SOCK_ERR_INVALID;
  4030b8:	bf18      	it	ne
  4030ba:	f06f 0508 	mvnne.w	r5, #8
		}
		m2m_memset((uint8*)&gastrSockets[sock], 0, sizeof(tstrSocket));
  4030be:	2210      	movs	r2, #16
  4030c0:	2100      	movs	r1, #0
  4030c2:	4807      	ldr	r0, [pc, #28]	; (4030e0 <close+0x78>)
  4030c4:	eb00 1004 	add.w	r0, r0, r4, lsl #4
  4030c8:	4b07      	ldr	r3, [pc, #28]	; (4030e8 <close+0x80>)
  4030ca:	4798      	blx	r3
  4030cc:	e004      	b.n	4030d8 <close+0x70>
Date
		4 June 2012
*********************************************************************/
sint8 close(SOCKET sock)
{
	sint8	s8Ret = SOCK_ERR_INVALID_ARG;
  4030ce:	f06f 0505 	mvn.w	r5, #5
  4030d2:	e001      	b.n	4030d8 <close+0x70>
  4030d4:	f06f 0505 	mvn.w	r5, #5
			s8Ret = SOCK_ERR_INVALID;
		}
		m2m_memset((uint8*)&gastrSockets[sock], 0, sizeof(tstrSocket));
	}
	return s8Ret;
}
  4030d8:	4628      	mov	r0, r5
  4030da:	b007      	add	sp, #28
  4030dc:	bd30      	pop	{r4, r5, pc}
  4030de:	bf00      	nop
  4030e0:	20400f4c 	.word	0x20400f4c
  4030e4:	00400bf1 	.word	0x00400bf1
  4030e8:	00400a8d 	.word	0x00400a8d

004030ec <spi_flash_enable>:
/**
 *	@fn		spi_flash_enable
 *	@brief	Enable spi flash operations
 */
sint8 spi_flash_enable(uint8 enable)
{
  4030ec:	b570      	push	{r4, r5, r6, lr}
  4030ee:	b082      	sub	sp, #8
  4030f0:	4605      	mov	r5, r0
	sint8 s8Ret = M2M_SUCCESS;
	if(REV(nmi_get_chipid()) >= REV_3A0) {		
  4030f2:	4b2b      	ldr	r3, [pc, #172]	; (4031a0 <spi_flash_enable+0xb4>)
  4030f4:	4798      	blx	r3
  4030f6:	f3c0 000b 	ubfx	r0, r0, #0, #12
  4030fa:	f5b0 7f68 	cmp.w	r0, #928	; 0x3a0
  4030fe:	d34a      	bcc.n	403196 <spi_flash_enable+0xaa>
		uint32 u32Val;
		
		/* Enable pinmux to SPI flash. */
		s8Ret = nm_read_reg_with_ret(0x1410, &u32Val);
  403100:	a901      	add	r1, sp, #4
  403102:	f241 4010 	movw	r0, #5136	; 0x1410
  403106:	4b27      	ldr	r3, [pc, #156]	; (4031a4 <spi_flash_enable+0xb8>)
  403108:	4798      	blx	r3
		if(s8Ret != M2M_SUCCESS) {
  40310a:	4604      	mov	r4, r0
  40310c:	2800      	cmp	r0, #0
  40310e:	d143      	bne.n	403198 <spi_flash_enable+0xac>
			goto ERR1;
		}
		/* GPIO15/16/17/18 */
		u32Val &= ~((0x7777ul) << 12);
		u32Val |= ((0x1111ul) << 12);
  403110:	4b25      	ldr	r3, [pc, #148]	; (4031a8 <spi_flash_enable+0xbc>)
  403112:	9a01      	ldr	r2, [sp, #4]
  403114:	4013      	ands	r3, r2
  403116:	4925      	ldr	r1, [pc, #148]	; (4031ac <spi_flash_enable+0xc0>)
  403118:	4319      	orrs	r1, r3
  40311a:	9101      	str	r1, [sp, #4]
		nm_write_reg(0x1410, u32Val);
  40311c:	f241 4010 	movw	r0, #5136	; 0x1410
  403120:	4b23      	ldr	r3, [pc, #140]	; (4031b0 <spi_flash_enable+0xc4>)
  403122:	4798      	blx	r3
		if(enable) {
  403124:	b1b5      	cbz	r5, 403154 <spi_flash_enable+0x68>
	volatile unsigned long tmp;
	unsigned char* cmd = (unsigned char*) &tmp;

	cmd[0] = 0xab;

	nm_write_reg(SPI_FLASH_DATA_CNT, 0);
  403126:	2100      	movs	r1, #0
  403128:	4822      	ldr	r0, [pc, #136]	; (4031b4 <spi_flash_enable+0xc8>)
  40312a:	4d21      	ldr	r5, [pc, #132]	; (4031b0 <spi_flash_enable+0xc4>)
  40312c:	47a8      	blx	r5
	nm_write_reg(SPI_FLASH_BUF1, cmd[0]);
  40312e:	21ab      	movs	r1, #171	; 0xab
  403130:	4821      	ldr	r0, [pc, #132]	; (4031b8 <spi_flash_enable+0xcc>)
  403132:	47a8      	blx	r5
	nm_write_reg(SPI_FLASH_BUF_DIR, 0x1);
  403134:	2101      	movs	r1, #1
  403136:	4821      	ldr	r0, [pc, #132]	; (4031bc <spi_flash_enable+0xd0>)
  403138:	47a8      	blx	r5
	nm_write_reg(SPI_FLASH_DMA_ADDR, 0);
  40313a:	2100      	movs	r1, #0
  40313c:	4820      	ldr	r0, [pc, #128]	; (4031c0 <spi_flash_enable+0xd4>)
  40313e:	47a8      	blx	r5
	nm_write_reg(SPI_FLASH_CMD_CNT,  1 | (1 << 7));
  403140:	2181      	movs	r1, #129	; 0x81
  403142:	4820      	ldr	r0, [pc, #128]	; (4031c4 <spi_flash_enable+0xd8>)
  403144:	47a8      	blx	r5
	while(nm_read_reg(SPI_FLASH_TR_DONE) != 1);
  403146:	4e20      	ldr	r6, [pc, #128]	; (4031c8 <spi_flash_enable+0xdc>)
  403148:	4d20      	ldr	r5, [pc, #128]	; (4031cc <spi_flash_enable+0xe0>)
  40314a:	4630      	mov	r0, r6
  40314c:	47a8      	blx	r5
  40314e:	2801      	cmp	r0, #1
  403150:	d1fb      	bne.n	40314a <spi_flash_enable+0x5e>
  403152:	e015      	b.n	403180 <spi_flash_enable+0x94>
	volatile unsigned long tmp;
	unsigned char* cmd = (unsigned char*) &tmp;

	cmd[0] = 0xb9;

	nm_write_reg(SPI_FLASH_DATA_CNT, 0);
  403154:	2100      	movs	r1, #0
  403156:	4817      	ldr	r0, [pc, #92]	; (4031b4 <spi_flash_enable+0xc8>)
  403158:	4d15      	ldr	r5, [pc, #84]	; (4031b0 <spi_flash_enable+0xc4>)
  40315a:	47a8      	blx	r5
	nm_write_reg(SPI_FLASH_BUF1, cmd[0]);
  40315c:	21b9      	movs	r1, #185	; 0xb9
  40315e:	4816      	ldr	r0, [pc, #88]	; (4031b8 <spi_flash_enable+0xcc>)
  403160:	47a8      	blx	r5
	nm_write_reg(SPI_FLASH_BUF_DIR, 0x1);
  403162:	2101      	movs	r1, #1
  403164:	4815      	ldr	r0, [pc, #84]	; (4031bc <spi_flash_enable+0xd0>)
  403166:	47a8      	blx	r5
	nm_write_reg(SPI_FLASH_DMA_ADDR, 0);
  403168:	2100      	movs	r1, #0
  40316a:	4815      	ldr	r0, [pc, #84]	; (4031c0 <spi_flash_enable+0xd4>)
  40316c:	47a8      	blx	r5
	nm_write_reg(SPI_FLASH_CMD_CNT, 1 | (1 << 7));
  40316e:	2181      	movs	r1, #129	; 0x81
  403170:	4814      	ldr	r0, [pc, #80]	; (4031c4 <spi_flash_enable+0xd8>)
  403172:	47a8      	blx	r5
	while(nm_read_reg(SPI_FLASH_TR_DONE) != 1);
  403174:	4e14      	ldr	r6, [pc, #80]	; (4031c8 <spi_flash_enable+0xdc>)
  403176:	4d15      	ldr	r5, [pc, #84]	; (4031cc <spi_flash_enable+0xe0>)
  403178:	4630      	mov	r0, r6
  40317a:	47a8      	blx	r5
  40317c:	2801      	cmp	r0, #1
  40317e:	d1fb      	bne.n	403178 <spi_flash_enable+0x8c>
		} else {
			spi_flash_enter_low_power_mode();
		}
		/* Disable pinmux to SPI flash to minimize leakage. */
		u32Val &= ~((0x7777ul) << 12);
		u32Val |= ((0x0010ul) << 12);
  403180:	4909      	ldr	r1, [pc, #36]	; (4031a8 <spi_flash_enable+0xbc>)
  403182:	9b01      	ldr	r3, [sp, #4]
  403184:	4019      	ands	r1, r3
  403186:	f441 3180 	orr.w	r1, r1, #65536	; 0x10000
  40318a:	9101      	str	r1, [sp, #4]
		nm_write_reg(0x1410, u32Val);
  40318c:	f241 4010 	movw	r0, #5136	; 0x1410
  403190:	4b07      	ldr	r3, [pc, #28]	; (4031b0 <spi_flash_enable+0xc4>)
  403192:	4798      	blx	r3
  403194:	e000      	b.n	403198 <spi_flash_enable+0xac>
 *	@fn		spi_flash_enable
 *	@brief	Enable spi flash operations
 */
sint8 spi_flash_enable(uint8 enable)
{
	sint8 s8Ret = M2M_SUCCESS;
  403196:	2400      	movs	r4, #0
		u32Val |= ((0x0010ul) << 12);
		nm_write_reg(0x1410, u32Val);
	}
ERR1:
	return s8Ret;
}
  403198:	4620      	mov	r0, r4
  40319a:	b002      	add	sp, #8
  40319c:	bd70      	pop	{r4, r5, r6, pc}
  40319e:	bf00      	nop
  4031a0:	00401a9d 	.word	0x00401a9d
  4031a4:	00401d95 	.word	0x00401d95
  4031a8:	f8888fff 	.word	0xf8888fff
  4031ac:	01111000 	.word	0x01111000
  4031b0:	00401da1 	.word	0x00401da1
  4031b4:	00010208 	.word	0x00010208
  4031b8:	0001020c 	.word	0x0001020c
  4031bc:	00010214 	.word	0x00010214
  4031c0:	0001021c 	.word	0x0001021c
  4031c4:	00010204 	.word	0x00010204
  4031c8:	00010218 	.word	0x00010218
  4031cc:	00401d89 	.word	0x00401d89

004031d0 <sysclk_init>:
	pmc_disable_udpck();
}
#endif // CONFIG_USBCLK_SOURCE

void sysclk_init(void)
{
  4031d0:	b510      	push	{r4, lr}
	struct pll_config pllcfg;

	/* Set flash wait state to max in case the below clock switching. */
	system_init_flash(CHIP_FREQ_CPU_MAX);
  4031d2:	4810      	ldr	r0, [pc, #64]	; (403214 <sysclk_init+0x44>)
  4031d4:	4b10      	ldr	r3, [pc, #64]	; (403218 <sysclk_init+0x48>)
  4031d6:	4798      	blx	r3
		pmc_switch_mainck_to_fastrc(CKGR_MOR_MOSCRCF_12_MHz);
		break;


	case OSC_MAINCK_XTAL:
		pmc_switch_mainck_to_xtal(PMC_OSC_XTAL,
  4031d8:	213e      	movs	r1, #62	; 0x3e
  4031da:	2000      	movs	r0, #0
  4031dc:	4b0f      	ldr	r3, [pc, #60]	; (40321c <sysclk_init+0x4c>)
  4031de:	4798      	blx	r3
	case OSC_MAINCK_4M_RC:
	case OSC_MAINCK_8M_RC:
	case OSC_MAINCK_12M_RC:
	case OSC_MAINCK_XTAL:
	case OSC_MAINCK_BYPASS:
		return pmc_osc_is_ready_mainck();
  4031e0:	4c0f      	ldr	r4, [pc, #60]	; (403220 <sysclk_init+0x50>)
  4031e2:	47a0      	blx	r4
 *
 * \param id A number identifying the oscillator to wait for.
 */
static inline void osc_wait_ready(uint8_t id)
{
	while (!osc_is_ready(id)) {
  4031e4:	2800      	cmp	r0, #0
  4031e6:	d0fc      	beq.n	4031e2 <sysclk_init+0x12>
static inline void pll_enable(const struct pll_config *p_cfg, uint32_t ul_pll_id)
{
	Assert(ul_pll_id < NR_PLLS);

	if (ul_pll_id == PLLA_ID) {
		pmc_disable_pllack(); // Always stop PLL first!
  4031e8:	4b0e      	ldr	r3, [pc, #56]	; (403224 <sysclk_init+0x54>)
  4031ea:	4798      	blx	r3
		PMC->CKGR_PLLAR = CKGR_PLLAR_ONE | p_cfg->ctrl;
  4031ec:	4a0e      	ldr	r2, [pc, #56]	; (403228 <sysclk_init+0x58>)
  4031ee:	4b0f      	ldr	r3, [pc, #60]	; (40322c <sysclk_init+0x5c>)
  4031f0:	629a      	str	r2, [r3, #40]	; 0x28
static inline uint32_t pll_is_locked(uint32_t ul_pll_id)
{
	Assert(ul_pll_id < NR_PLLS);

	if (ul_pll_id == PLLA_ID) {
	return pmc_is_locked_pllack();
  4031f2:	4c0f      	ldr	r4, [pc, #60]	; (403230 <sysclk_init+0x60>)
  4031f4:	47a0      	blx	r4
 */
static inline int pll_wait_for_lock(unsigned int pll_id)
{
	Assert(pll_id < NR_PLLS);

	while (!pll_is_locked(pll_id)) {
  4031f6:	2800      	cmp	r0, #0
  4031f8:	d0fc      	beq.n	4031f4 <sysclk_init+0x24>
	else if (CONFIG_SYSCLK_SOURCE == SYSCLK_SRC_PLLACK) {
		pll_enable_source(CONFIG_PLL0_SOURCE);
		pll_config_defaults(&pllcfg, 0);
		pll_enable(&pllcfg, 0);
		pll_wait_for_lock(0);
		pmc_mck_set_division(CONFIG_SYSCLK_DIV);
  4031fa:	2002      	movs	r0, #2
  4031fc:	4b0d      	ldr	r3, [pc, #52]	; (403234 <sysclk_init+0x64>)
  4031fe:	4798      	blx	r3
		pmc_switch_mck_to_pllack(CONFIG_SYSCLK_PRES);
  403200:	2000      	movs	r0, #0
  403202:	4b0d      	ldr	r3, [pc, #52]	; (403238 <sysclk_init+0x68>)
  403204:	4798      	blx	r3
		pll_wait_for_lock(1);
		pmc_mck_set_division(CONFIG_SYSCLK_DIV);
		pmc_switch_mck_to_upllck(CONFIG_SYSCLK_PRES);
	}
	/* Update the SystemFrequency variable */
	SystemCoreClockUpdate();
  403206:	4b0d      	ldr	r3, [pc, #52]	; (40323c <sysclk_init+0x6c>)
  403208:	4798      	blx	r3

	/* Set a flash wait state depending on the new cpu frequency */
	system_init_flash(sysclk_get_cpu_hz());
  40320a:	4802      	ldr	r0, [pc, #8]	; (403214 <sysclk_init+0x44>)
  40320c:	4b02      	ldr	r3, [pc, #8]	; (403218 <sysclk_init+0x48>)
  40320e:	4798      	blx	r3
  403210:	bd10      	pop	{r4, pc}
  403212:	bf00      	nop
  403214:	11e1a300 	.word	0x11e1a300
  403218:	00403e85 	.word	0x00403e85
  40321c:	00403911 	.word	0x00403911
  403220:	00403965 	.word	0x00403965
  403224:	00403975 	.word	0x00403975
  403228:	20183f01 	.word	0x20183f01
  40322c:	400e0600 	.word	0x400e0600
  403230:	00403985 	.word	0x00403985
  403234:	0040386d 	.word	0x0040386d
  403238:	004038a9 	.word	0x004038a9
  40323c:	00403d75 	.word	0x00403d75

00403240 <_read>:
int __attribute__((weak))
_read (int file, char * ptr, int len)
{
	int nChars = 0;

	if (file != 0) {
  403240:	b990      	cbnz	r0, 403268 <_read+0x28>
int __attribute__((weak))
_read (int file, char * ptr, int len); // Remove GCC compiler warning

int __attribute__((weak))
_read (int file, char * ptr, int len)
{
  403242:	e92d 41f0 	stmdb	sp!, {r4, r5, r6, r7, r8, lr}
  403246:	460c      	mov	r4, r1
  403248:	4690      	mov	r8, r2

	if (file != 0) {
		return -1;
	}

	for (; len > 0; --len) {
  40324a:	2a00      	cmp	r2, #0
  40324c:	dd0f      	ble.n	40326e <_read+0x2e>
  40324e:	188f      	adds	r7, r1, r2
		ptr_get(stdio_base, ptr);
  403250:	4e08      	ldr	r6, [pc, #32]	; (403274 <_read+0x34>)
  403252:	4d09      	ldr	r5, [pc, #36]	; (403278 <_read+0x38>)
  403254:	6830      	ldr	r0, [r6, #0]
  403256:	4621      	mov	r1, r4
  403258:	682b      	ldr	r3, [r5, #0]
  40325a:	4798      	blx	r3
		ptr++;
  40325c:	3401      	adds	r4, #1

	if (file != 0) {
		return -1;
	}

	for (; len > 0; --len) {
  40325e:	42a7      	cmp	r7, r4
  403260:	d1f8      	bne.n	403254 <_read+0x14>
		ptr_get(stdio_base, ptr);
		ptr++;
		nChars++;
  403262:	4640      	mov	r0, r8
  403264:	e8bd 81f0 	ldmia.w	sp!, {r4, r5, r6, r7, r8, pc}
_read (int file, char * ptr, int len)
{
	int nChars = 0;

	if (file != 0) {
		return -1;
  403268:	f04f 30ff 	mov.w	r0, #4294967295
		ptr_get(stdio_base, ptr);
		ptr++;
		nChars++;
	}
	return nChars;
}
  40326c:	4770      	bx	lr

	if (file != 0) {
		return -1;
	}

	for (; len > 0; --len) {
  40326e:	2000      	movs	r0, #0
		ptr_get(stdio_base, ptr);
		ptr++;
		nChars++;
	}
	return nChars;
}
  403270:	e8bd 81f0 	ldmia.w	sp!, {r4, r5, r6, r7, r8, pc}
  403274:	20401010 	.word	0x20401010
  403278:	20401008 	.word	0x20401008

0040327c <_write>:
int __attribute__((weak))
_write (int file, const char *ptr, int len)
{
	int nChars = 0;

	if ((file != 1) && (file != 2) && (file!=3)) {
  40327c:	3801      	subs	r0, #1
  40327e:	2802      	cmp	r0, #2
  403280:	d815      	bhi.n	4032ae <_write+0x32>
int __attribute__((weak))
_write (int file, const char *ptr, int len);

int __attribute__((weak))
_write (int file, const char *ptr, int len)
{
  403282:	e92d 41f0 	stmdb	sp!, {r4, r5, r6, r7, r8, lr}
  403286:	460e      	mov	r6, r1
  403288:	4614      	mov	r4, r2

	if ((file != 1) && (file != 2) && (file!=3)) {
		return -1;
	}

	for (; len != 0; --len) {
  40328a:	b19a      	cbz	r2, 4032b4 <_write+0x38>
  40328c:	460d      	mov	r5, r1
		if (ptr_put(stdio_base, *ptr++) < 0) {
  40328e:	f8df 8038 	ldr.w	r8, [pc, #56]	; 4032c8 <_write+0x4c>
  403292:	4f0c      	ldr	r7, [pc, #48]	; (4032c4 <_write+0x48>)
  403294:	f8d8 0000 	ldr.w	r0, [r8]
  403298:	f815 1b01 	ldrb.w	r1, [r5], #1
  40329c:	683b      	ldr	r3, [r7, #0]
  40329e:	4798      	blx	r3
  4032a0:	2800      	cmp	r0, #0
  4032a2:	db0a      	blt.n	4032ba <_write+0x3e>
  4032a4:	1ba8      	subs	r0, r5, r6

	if ((file != 1) && (file != 2) && (file!=3)) {
		return -1;
	}

	for (; len != 0; --len) {
  4032a6:	3c01      	subs	r4, #1
  4032a8:	d1f4      	bne.n	403294 <_write+0x18>
  4032aa:	e8bd 81f0 	ldmia.w	sp!, {r4, r5, r6, r7, r8, pc}
_write (int file, const char *ptr, int len)
{
	int nChars = 0;

	if ((file != 1) && (file != 2) && (file!=3)) {
		return -1;
  4032ae:	f04f 30ff 	mov.w	r0, #4294967295
			return -1;
		}
		++nChars;
	}
	return nChars;
}
  4032b2:	4770      	bx	lr

	if ((file != 1) && (file != 2) && (file!=3)) {
		return -1;
	}

	for (; len != 0; --len) {
  4032b4:	2000      	movs	r0, #0
  4032b6:	e8bd 81f0 	ldmia.w	sp!, {r4, r5, r6, r7, r8, pc}
		if (ptr_put(stdio_base, *ptr++) < 0) {
			return -1;
  4032ba:	f04f 30ff 	mov.w	r0, #4294967295
		}
		++nChars;
	}
	return nChars;
}
  4032be:	e8bd 81f0 	ldmia.w	sp!, {r4, r5, r6, r7, r8, pc}
  4032c2:	bf00      	nop
  4032c4:	2040100c 	.word	0x2040100c
  4032c8:	20401010 	.word	0x20401010

004032cc <board_init>:
	__ISB();
}
#endif

void board_init(void)
{
  4032cc:	b5f8      	push	{r3, r4, r5, r6, r7, lr}
#ifndef CONF_BOARD_KEEP_WATCHDOG_AT_INIT
	/* Disable the watchdog */
	WDT->WDT_MR = WDT_MR_WDDIS;
  4032ce:	f44f 4200 	mov.w	r2, #32768	; 0x8000
  4032d2:	4b57      	ldr	r3, [pc, #348]	; (403430 <board_init+0x164>)
  4032d4:	605a      	str	r2, [r3, #4]
    This function acts as a special kind of Data Memory Barrier.
    It completes when all explicit memory accesses before this instruction complete.
 */
__attribute__( ( always_inline ) ) __STATIC_INLINE void __DSB(void)
{
  __ASM volatile ("dsb");
  4032d6:	f3bf 8f4f 	dsb	sy
    so that all instructions following the ISB are fetched from cache or
    memory, after the instruction has been completed.
 */
__attribute__( ( always_inline ) ) __STATIC_INLINE void __ISB(void)
{
  __ASM volatile ("isb");
  4032da:	f3bf 8f6f 	isb	sy
__STATIC_INLINE void SCB_EnableICache(void)
{
  #if (__ICACHE_PRESENT == 1)
    __DSB();
    __ISB();
    SCB->ICIALLU = 0;                       // invalidate I-Cache
  4032de:	4b55      	ldr	r3, [pc, #340]	; (403434 <board_init+0x168>)
  4032e0:	2200      	movs	r2, #0
  4032e2:	f8c3 2250 	str.w	r2, [r3, #592]	; 0x250
    SCB->CCR |=  SCB_CCR_IC_Msk;            // enable I-Cache
  4032e6:	695a      	ldr	r2, [r3, #20]
  4032e8:	f442 3200 	orr.w	r2, r2, #131072	; 0x20000
  4032ec:	615a      	str	r2, [r3, #20]
    This function acts as a special kind of Data Memory Barrier.
    It completes when all explicit memory accesses before this instruction complete.
 */
__attribute__( ( always_inline ) ) __STATIC_INLINE void __DSB(void)
{
  __ASM volatile ("dsb");
  4032ee:	f3bf 8f4f 	dsb	sy
    so that all instructions following the ISB are fetched from cache or
    memory, after the instruction has been completed.
 */
__attribute__( ( always_inline ) ) __STATIC_INLINE void __ISB(void)
{
  __ASM volatile ("isb");
  4032f2:	f3bf 8f6f 	isb	sy
{
  #if (__DCACHE_PRESENT == 1)
    uint32_t ccsidr, sshift, wshift, sw;
    uint32_t sets, ways;

    ccsidr  = SCB->CCSIDR;
  4032f6:	f8d3 6080 	ldr.w	r6, [r3, #128]	; 0x80
    sets    = CCSIDR_SETS(ccsidr);
  4032fa:	f3c6 354e 	ubfx	r5, r6, #13, #15
    sshift  = CCSIDR_LSSHIFT(ccsidr) + 4;
  4032fe:	f006 0707 	and.w	r7, r6, #7
  403302:	3704      	adds	r7, #4
    ways    = CCSIDR_WAYS(ccsidr);
  403304:	f3c6 06c9 	ubfx	r6, r6, #3, #10
 */
__attribute__( ( always_inline ) ) __STATIC_INLINE uint8_t __CLZ(uint32_t value)
{
  uint32_t result;

  __ASM volatile ("clz %0, %1" : "=r" (result) : "r" (value) );
  403308:	fab6 f086 	clz	r0, r6
    wshift  = __CLZ(ways) & 0x1f;
  40330c:	f000 001f 	and.w	r0, r0, #31
    This function acts as a special kind of Data Memory Barrier.
    It completes when all explicit memory accesses before this instruction complete.
 */
__attribute__( ( always_inline ) ) __STATIC_INLINE void __DSB(void)
{
  __ASM volatile ("dsb");
  403310:	f3bf 8f4f 	dsb	sy

    do {                                    // invalidate D-Cache
         int32_t tmpways = ways;
         do {
              sw = ((tmpways << wshift) | (sets << sshift));
              SCB->DCISW = sw;
  403314:	461c      	mov	r4, r3
    wshift  = __CLZ(ways) & 0x1f;

    __DSB();

    do {                                    // invalidate D-Cache
         int32_t tmpways = ways;
  403316:	4633      	mov	r3, r6
         do {
              sw = ((tmpways << wshift) | (sets << sshift));
  403318:	fa05 f107 	lsl.w	r1, r5, r7
  40331c:	fa03 f200 	lsl.w	r2, r3, r0
  403320:	430a      	orrs	r2, r1
              SCB->DCISW = sw;
  403322:	f8c4 2260 	str.w	r2, [r4, #608]	; 0x260
            } while(tmpways--);
  403326:	3b01      	subs	r3, #1
  403328:	f1b3 3fff 	cmp.w	r3, #4294967295
  40332c:	d1f6      	bne.n	40331c <board_init+0x50>
        } while(sets--);
  40332e:	3d01      	subs	r5, #1
  403330:	f1b5 3fff 	cmp.w	r5, #4294967295
  403334:	d1ef      	bne.n	403316 <board_init+0x4a>
  403336:	f3bf 8f4f 	dsb	sy
    __DSB();

    SCB->CCR |=  SCB_CCR_DC_Msk;            // enable D-Cache
  40333a:	4b3e      	ldr	r3, [pc, #248]	; (403434 <board_init+0x168>)
  40333c:	695a      	ldr	r2, [r3, #20]
  40333e:	f442 3280 	orr.w	r2, r2, #65536	; 0x10000
  403342:	615a      	str	r2, [r3, #20]
  403344:	f3bf 8f4f 	dsb	sy
    so that all instructions following the ISB are fetched from cache or
    memory, after the instruction has been completed.
 */
__attribute__( ( always_inline ) ) __STATIC_INLINE void __ISB(void)
{
  __ASM volatile ("isb");
  403348:	f3bf 8f6f 	isb	sy
		*dst++ = *src++;
	}
#endif
#else
	/* TCM Configuration */
	EFC->EEFC_FCR = (EEFC_FCR_FKEY_PASSWD | EEFC_FCR_FCMD_CGPB 
  40334c:	4a3a      	ldr	r2, [pc, #232]	; (403438 <board_init+0x16c>)
  40334e:	493b      	ldr	r1, [pc, #236]	; (40343c <board_init+0x170>)
  403350:	6051      	str	r1, [r2, #4]
					| EEFC_FCR_FARG(8));
	EFC->EEFC_FCR = (EEFC_FCR_FKEY_PASSWD | EEFC_FCR_FCMD_CGPB 
  403352:	f5a1 7180 	sub.w	r1, r1, #256	; 0x100
  403356:	6051      	str	r1, [r2, #4]
    This function acts as a special kind of Data Memory Barrier.
    It completes when all explicit memory accesses before this instruction complete.
 */
__attribute__( ( always_inline ) ) __STATIC_INLINE void __DSB(void)
{
  __ASM volatile ("dsb");
  403358:	f3bf 8f4f 	dsb	sy
    so that all instructions following the ISB are fetched from cache or
    memory, after the instruction has been completed.
 */
__attribute__( ( always_inline ) ) __STATIC_INLINE void __ISB(void)
{
  __ASM volatile ("isb");
  40335c:	f3bf 8f6f 	isb	sy
static inline void tcm_disable(void) 
{

	__DSB();
	__ISB();
	SCB->ITCMCR &= ~(uint32_t)(1UL);
  403360:	f8d3 2290 	ldr.w	r2, [r3, #656]	; 0x290
  403364:	f022 0201 	bic.w	r2, r2, #1
  403368:	f8c3 2290 	str.w	r2, [r3, #656]	; 0x290
	SCB->DTCMCR &= ~(uint32_t)SCB_DTCMCR_EN_Msk;
  40336c:	f8d3 2294 	ldr.w	r2, [r3, #660]	; 0x294
  403370:	f022 0201 	bic.w	r2, r2, #1
  403374:	f8c3 2294 	str.w	r2, [r3, #660]	; 0x294
    This function acts as a special kind of Data Memory Barrier.
    It completes when all explicit memory accesses before this instruction complete.
 */
__attribute__( ( always_inline ) ) __STATIC_INLINE void __DSB(void)
{
  __ASM volatile ("dsb");
  403378:	f3bf 8f4f 	dsb	sy
    so that all instructions following the ISB are fetched from cache or
    memory, after the instruction has been completed.
 */
__attribute__( ( always_inline ) ) __STATIC_INLINE void __ISB(void)
{
  __ASM volatile ("isb");
  40337c:	f3bf 8f6f 	isb	sy
  403380:	200a      	movs	r0, #10
  403382:	4c2f      	ldr	r4, [pc, #188]	; (403440 <board_init+0x174>)
  403384:	47a0      	blx	r4
  403386:	200b      	movs	r0, #11
  403388:	47a0      	blx	r4
  40338a:	200c      	movs	r0, #12
  40338c:	47a0      	blx	r4
  40338e:	2010      	movs	r0, #16
  403390:	47a0      	blx	r4
  403392:	2011      	movs	r0, #17
  403394:	47a0      	blx	r4
		enum ioport_direction dir)
{
	Pio *base = arch_ioport_pin_to_base(pin);

	if (dir == IOPORT_DIR_OUTPUT) {
		base->PIO_OER = arch_ioport_pin_to_mask(pin);
  403396:	4b2b      	ldr	r3, [pc, #172]	; (403444 <board_init+0x178>)
  403398:	f44f 7280 	mov.w	r2, #256	; 0x100
  40339c:	611a      	str	r2, [r3, #16]
	} else if (dir == IOPORT_DIR_INPUT) {
		base->PIO_ODR = arch_ioport_pin_to_mask(pin);
	}

	base->PIO_OWER = arch_ioport_pin_to_mask(pin);
  40339e:	f8c3 20a0 	str.w	r2, [r3, #160]	; 0xa0
		bool level)
{
	Pio *base = arch_ioport_pin_to_base(pin);

	if (level) {
		base->PIO_SODR = arch_ioport_pin_to_mask(pin);
  4033a2:	631a      	str	r2, [r3, #48]	; 0x30
	Pio *base = arch_ioport_pin_to_base(pin);

	if (dir == IOPORT_DIR_OUTPUT) {
		base->PIO_OER = arch_ioport_pin_to_mask(pin);
	} else if (dir == IOPORT_DIR_INPUT) {
		base->PIO_ODR = arch_ioport_pin_to_mask(pin);
  4033a4:	f5a3 6380 	sub.w	r3, r3, #1024	; 0x400
  4033a8:	f44f 6200 	mov.w	r2, #2048	; 0x800
  4033ac:	615a      	str	r2, [r3, #20]
	}

	base->PIO_OWER = arch_ioport_pin_to_mask(pin);
  4033ae:	f8c3 20a0 	str.w	r2, [r3, #160]	; 0xa0
		ioport_port_mask_t mask, ioport_mode_t mode)
{
	Pio *base = arch_ioport_port_to_base(port);

	if (mode & IOPORT_MODE_PULLUP) {
		base->PIO_PUER = mask;
  4033b2:	665a      	str	r2, [r3, #100]	; 0x64

#if defined(IOPORT_MODE_PULLDOWN)
	if (mode & IOPORT_MODE_PULLDOWN) {
		base->PIO_PPDER = mask;
	} else {
		base->PIO_PPDDR = mask;
  4033b4:	f8c3 2090 	str.w	r2, [r3, #144]	; 0x90
#endif

	if (mode & IOPORT_MODE_OPEN_DRAIN) {
		base->PIO_MDER = mask;
	} else {
		base->PIO_MDDR = mask;
  4033b8:	655a      	str	r2, [r3, #84]	; 0x54
	}

	if (mode & (IOPORT_MODE_GLITCH_FILTER | IOPORT_MODE_DEBOUNCE)) {
		base->PIO_IFER = mask;
  4033ba:	621a      	str	r2, [r3, #32]

	if (mode & IOPORT_MODE_DEBOUNCE) {
#if SAM3U || SAM3XA
		base->PIO_DIFSR = mask;
#else
		base->PIO_IFSCER = mask;
  4033bc:	f8c3 2084 	str.w	r2, [r3, #132]	; 0x84
	}
#else
	if (mode & IOPORT_MODE_MUX_BIT0) {
		base->PIO_ABCDSR[0] |= mask;
	} else {
		base->PIO_ABCDSR[0] &= ~mask;
  4033c0:	6f19      	ldr	r1, [r3, #112]	; 0x70
  4033c2:	f421 6100 	bic.w	r1, r1, #2048	; 0x800
  4033c6:	6719      	str	r1, [r3, #112]	; 0x70
	}

	if (mode & IOPORT_MODE_MUX_BIT1) {
		base->PIO_ABCDSR[1] |= mask;
	} else {
		base->PIO_ABCDSR[1] &= ~mask;
  4033c8:	6f59      	ldr	r1, [r3, #116]	; 0x74
  4033ca:	f421 6100 	bic.w	r1, r1, #2048	; 0x800
  4033ce:	6759      	str	r1, [r3, #116]	; 0x74
	case IOPORT_SENSE_FALLING:
		base->PIO_ESR = mask;
		base->PIO_FELLSR = mask;
		break;
	case IOPORT_SENSE_RISING:
		base->PIO_ESR = mask;
  4033d0:	f8c3 20c0 	str.w	r2, [r3, #192]	; 0xc0
		base->PIO_REHLSR = mask;
  4033d4:	f8c3 20d4 	str.w	r2, [r3, #212]	; 0xd4
		break;
	default:
		base->PIO_AIMDR = mask;
		return;
	}
	base->PIO_AIMER = mask;
  4033d8:	f8c3 20b0 	str.w	r2, [r3, #176]	; 0xb0
	Pio *base = arch_ioport_port_to_base(port);

	if (mode & IOPORT_MODE_PULLUP) {
		base->PIO_PUER = mask;
	} else {
		base->PIO_PUDR = mask;
  4033dc:	f44f 1200 	mov.w	r2, #2097152	; 0x200000
  4033e0:	661a      	str	r2, [r3, #96]	; 0x60

#if defined(IOPORT_MODE_PULLDOWN)
	if (mode & IOPORT_MODE_PULLDOWN) {
		base->PIO_PPDER = mask;
	} else {
		base->PIO_PPDDR = mask;
  4033e2:	f8c3 2090 	str.w	r2, [r3, #144]	; 0x90
#endif

	if (mode & IOPORT_MODE_OPEN_DRAIN) {
		base->PIO_MDER = mask;
	} else {
		base->PIO_MDDR = mask;
  4033e6:	655a      	str	r2, [r3, #84]	; 0x54
	}

	if (mode & (IOPORT_MODE_GLITCH_FILTER | IOPORT_MODE_DEBOUNCE)) {
		base->PIO_IFER = mask;
	} else {
		base->PIO_IFDR = mask;
  4033e8:	625a      	str	r2, [r3, #36]	; 0x24
#endif
	} else {
#if SAM3U || SAM3XA
		base->PIO_SCIFSR = mask;
#else
		base->PIO_IFSCDR = mask;
  4033ea:	f8c3 2080 	str.w	r2, [r3, #128]	; 0x80
	}
#else
	if (mode & IOPORT_MODE_MUX_BIT0) {
		base->PIO_ABCDSR[0] |= mask;
	} else {
		base->PIO_ABCDSR[0] &= ~mask;
  4033ee:	6f19      	ldr	r1, [r3, #112]	; 0x70
  4033f0:	f421 1100 	bic.w	r1, r1, #2097152	; 0x200000
  4033f4:	6719      	str	r1, [r3, #112]	; 0x70
	}

	if (mode & IOPORT_MODE_MUX_BIT1) {
		base->PIO_ABCDSR[1] |= mask;
	} else {
		base->PIO_ABCDSR[1] &= ~mask;
  4033f6:	6f59      	ldr	r1, [r3, #116]	; 0x74
  4033f8:	f421 1100 	bic.w	r1, r1, #2097152	; 0x200000
  4033fc:	6759      	str	r1, [r3, #116]	; 0x74
}

__always_inline static void arch_ioport_disable_port(ioport_port_t port,
		ioport_port_mask_t mask)
{
	arch_ioport_port_to_base(port)->PIO_PDR = mask;
  4033fe:	605a      	str	r2, [r3, #4]
			GPIO_PUSH_BUTTON_1_SENSE);

#ifdef CONF_BOARD_UART_CONSOLE
	/* Configure UART pins */
	ioport_set_pin_peripheral_mode(USART1_RXD_GPIO, USART1_RXD_FLAGS);
	MATRIX->CCFG_SYSIO |= CCFG_SYSIO_SYSIO4;
  403400:	4a11      	ldr	r2, [pc, #68]	; (403448 <board_init+0x17c>)
  403402:	f8d2 3114 	ldr.w	r3, [r2, #276]	; 0x114
  403406:	f043 0310 	orr.w	r3, r3, #16
  40340a:	f8c2 3114 	str.w	r3, [r2, #276]	; 0x114
	Pio *base = arch_ioport_port_to_base(port);

	if (mode & IOPORT_MODE_PULLUP) {
		base->PIO_PUER = mask;
	} else {
		base->PIO_PUDR = mask;
  40340e:	4b0f      	ldr	r3, [pc, #60]	; (40344c <board_init+0x180>)
  403410:	2210      	movs	r2, #16
  403412:	661a      	str	r2, [r3, #96]	; 0x60

#if defined(IOPORT_MODE_PULLDOWN)
	if (mode & IOPORT_MODE_PULLDOWN) {
		base->PIO_PPDER = mask;
	} else {
		base->PIO_PPDDR = mask;
  403414:	f8c3 2090 	str.w	r2, [r3, #144]	; 0x90
#endif

	if (mode & IOPORT_MODE_OPEN_DRAIN) {
		base->PIO_MDER = mask;
	} else {
		base->PIO_MDDR = mask;
  403418:	655a      	str	r2, [r3, #84]	; 0x54
	}

	if (mode & (IOPORT_MODE_GLITCH_FILTER | IOPORT_MODE_DEBOUNCE)) {
		base->PIO_IFER = mask;
	} else {
		base->PIO_IFDR = mask;
  40341a:	625a      	str	r2, [r3, #36]	; 0x24
#endif
	} else {
#if SAM3U || SAM3XA
		base->PIO_SCIFSR = mask;
#else
		base->PIO_IFSCDR = mask;
  40341c:	f8c3 2080 	str.w	r2, [r3, #128]	; 0x80
	} else {
		base->PIO_ABSR &= ~mask;
	}
#else
	if (mode & IOPORT_MODE_MUX_BIT0) {
		base->PIO_ABCDSR[0] |= mask;
  403420:	6f19      	ldr	r1, [r3, #112]	; 0x70
  403422:	4311      	orrs	r1, r2
  403424:	6719      	str	r1, [r3, #112]	; 0x70
	} else {
		base->PIO_ABCDSR[0] &= ~mask;
	}

	if (mode & IOPORT_MODE_MUX_BIT1) {
		base->PIO_ABCDSR[1] |= mask;
  403426:	6f59      	ldr	r1, [r3, #116]	; 0x74
  403428:	4311      	orrs	r1, r2
  40342a:	6759      	str	r1, [r3, #116]	; 0x74
}

__always_inline static void arch_ioport_disable_port(ioport_port_t port,
		ioport_port_mask_t mask)
{
	arch_ioport_port_to_base(port)->PIO_PDR = mask;
  40342c:	605a      	str	r2, [r3, #4]
  40342e:	bdf8      	pop	{r3, r4, r5, r6, r7, pc}
  403430:	400e1850 	.word	0x400e1850
  403434:	e000ed00 	.word	0xe000ed00
  403438:	400e0c00 	.word	0x400e0c00
  40343c:	5a00080c 	.word	0x5a00080c
  403440:	00403995 	.word	0x00403995
  403444:	400e1200 	.word	0x400e1200
  403448:	40088000 	.word	0x40088000
  40344c:	400e1000 	.word	0x400e1000

00403450 <pio_pull_up>:
 */
void pio_pull_up(Pio *p_pio, const uint32_t ul_mask,
		const uint32_t ul_pull_up_enable)
{
	/* Enable the pull-up(s) if necessary */
	if (ul_pull_up_enable) {
  403450:	b10a      	cbz	r2, 403456 <pio_pull_up+0x6>
		p_pio->PIO_PUER = ul_mask;
  403452:	6641      	str	r1, [r0, #100]	; 0x64
  403454:	4770      	bx	lr
	} else {
		p_pio->PIO_PUDR = ul_mask;
  403456:	6601      	str	r1, [r0, #96]	; 0x60
  403458:	4770      	bx	lr
  40345a:	bf00      	nop

0040345c <pio_set_peripheral>:
		const uint32_t ul_mask)
{
	uint32_t ul_sr;

	/* Disable interrupts on the pin(s) */
	p_pio->PIO_IDR = ul_mask;
  40345c:	6442      	str	r2, [r0, #68]	; 0x44

#if (SAM3S || SAM3N || SAM4S || SAM4E || SAM4N || SAM4C || SAMG || SAM4CP || SAM4CM || SAMV71 || SAMV70 || SAME70 || SAMS70)
	switch (ul_type) {
  40345e:	f1b1 5fc0 	cmp.w	r1, #402653184	; 0x18000000
  403462:	d02f      	beq.n	4034c4 <pio_set_peripheral+0x68>
  403464:	d807      	bhi.n	403476 <pio_set_peripheral+0x1a>
  403466:	f1b1 6f00 	cmp.w	r1, #134217728	; 0x8000000
  40346a:	d014      	beq.n	403496 <pio_set_peripheral+0x3a>
  40346c:	f1b1 5f80 	cmp.w	r1, #268435456	; 0x10000000
  403470:	d01e      	beq.n	4034b0 <pio_set_peripheral+0x54>
  403472:	b939      	cbnz	r1, 403484 <pio_set_peripheral+0x28>
  403474:	4770      	bx	lr
  403476:	f1b1 5f20 	cmp.w	r1, #671088640	; 0x28000000
  40347a:	d037      	beq.n	4034ec <pio_set_peripheral+0x90>
  40347c:	d804      	bhi.n	403488 <pio_set_peripheral+0x2c>
  40347e:	f1b1 5f00 	cmp.w	r1, #536870912	; 0x20000000
  403482:	d029      	beq.n	4034d8 <pio_set_peripheral+0x7c>
#else
#error "Unsupported device"
#endif

	/* Remove the pins from under the control of PIO */
	p_pio->PIO_PDR = ul_mask;
  403484:	6042      	str	r2, [r0, #4]
  403486:	4770      	bx	lr

	/* Disable interrupts on the pin(s) */
	p_pio->PIO_IDR = ul_mask;

#if (SAM3S || SAM3N || SAM4S || SAM4E || SAM4N || SAM4C || SAMG || SAM4CP || SAM4CM || SAMV71 || SAMV70 || SAME70 || SAMS70)
	switch (ul_type) {
  403488:	f1b1 5f40 	cmp.w	r1, #805306368	; 0x30000000
  40348c:	d02e      	beq.n	4034ec <pio_set_peripheral+0x90>
  40348e:	f1b1 5f60 	cmp.w	r1, #939524096	; 0x38000000
  403492:	d02b      	beq.n	4034ec <pio_set_peripheral+0x90>
  403494:	e7f6      	b.n	403484 <pio_set_peripheral+0x28>
 * \param ul_type PIO type.
 * \param ul_mask Bitmask of one or more pin(s) to configure.
 */
void pio_set_peripheral(Pio *p_pio, const pio_type_t ul_type,
		const uint32_t ul_mask)
{
  403496:	b410      	push	{r4}
	p_pio->PIO_IDR = ul_mask;

#if (SAM3S || SAM3N || SAM4S || SAM4E || SAM4N || SAM4C || SAMG || SAM4CP || SAM4CM || SAMV71 || SAMV70 || SAME70 || SAMS70)
	switch (ul_type) {
	case PIO_PERIPH_A:
		ul_sr = p_pio->PIO_ABCDSR[0];
  403498:	6f04      	ldr	r4, [r0, #112]	; 0x70
		p_pio->PIO_ABCDSR[0] &= (~ul_mask & ul_sr);
  40349a:	6f01      	ldr	r1, [r0, #112]	; 0x70
  40349c:	43d3      	mvns	r3, r2
  40349e:	4021      	ands	r1, r4
  4034a0:	4019      	ands	r1, r3
  4034a2:	6701      	str	r1, [r0, #112]	; 0x70

		ul_sr = p_pio->PIO_ABCDSR[1];
  4034a4:	6f44      	ldr	r4, [r0, #116]	; 0x74
		p_pio->PIO_ABCDSR[1] &= (~ul_mask & ul_sr);
  4034a6:	6f41      	ldr	r1, [r0, #116]	; 0x74
  4034a8:	4021      	ands	r1, r4
  4034aa:	400b      	ands	r3, r1
  4034ac:	6743      	str	r3, [r0, #116]	; 0x74
		break;
  4034ae:	e01a      	b.n	4034e6 <pio_set_peripheral+0x8a>
	case PIO_PERIPH_B:
		ul_sr = p_pio->PIO_ABCDSR[0];
  4034b0:	6f03      	ldr	r3, [r0, #112]	; 0x70
		p_pio->PIO_ABCDSR[0] = (ul_mask | ul_sr);
  4034b2:	4313      	orrs	r3, r2
  4034b4:	6703      	str	r3, [r0, #112]	; 0x70

		ul_sr = p_pio->PIO_ABCDSR[1];
  4034b6:	6f41      	ldr	r1, [r0, #116]	; 0x74
		p_pio->PIO_ABCDSR[1] &= (~ul_mask & ul_sr);
  4034b8:	6f43      	ldr	r3, [r0, #116]	; 0x74
  4034ba:	400b      	ands	r3, r1
  4034bc:	ea23 0302 	bic.w	r3, r3, r2
  4034c0:	6743      	str	r3, [r0, #116]	; 0x74
		break;
  4034c2:	e7df      	b.n	403484 <pio_set_peripheral+0x28>
#if (!SAMG)
	case PIO_PERIPH_C:
		ul_sr = p_pio->PIO_ABCDSR[0];
  4034c4:	6f01      	ldr	r1, [r0, #112]	; 0x70
		p_pio->PIO_ABCDSR[0] &= (~ul_mask & ul_sr);
  4034c6:	6f03      	ldr	r3, [r0, #112]	; 0x70
  4034c8:	400b      	ands	r3, r1
  4034ca:	ea23 0302 	bic.w	r3, r3, r2
  4034ce:	6703      	str	r3, [r0, #112]	; 0x70

		ul_sr = p_pio->PIO_ABCDSR[1];
  4034d0:	6f43      	ldr	r3, [r0, #116]	; 0x74
		p_pio->PIO_ABCDSR[1] = (ul_mask | ul_sr);
  4034d2:	4313      	orrs	r3, r2
  4034d4:	6743      	str	r3, [r0, #116]	; 0x74
		break;
  4034d6:	e7d5      	b.n	403484 <pio_set_peripheral+0x28>
	case PIO_PERIPH_D:
		ul_sr = p_pio->PIO_ABCDSR[0];
  4034d8:	6f03      	ldr	r3, [r0, #112]	; 0x70
		p_pio->PIO_ABCDSR[0] = (ul_mask | ul_sr);
  4034da:	4313      	orrs	r3, r2
  4034dc:	6703      	str	r3, [r0, #112]	; 0x70

		ul_sr = p_pio->PIO_ABCDSR[1];
  4034de:	6f43      	ldr	r3, [r0, #116]	; 0x74
		p_pio->PIO_ABCDSR[1] = (ul_mask | ul_sr);
  4034e0:	4313      	orrs	r3, r2
  4034e2:	6743      	str	r3, [r0, #116]	; 0x74
		break;
  4034e4:	e7ce      	b.n	403484 <pio_set_peripheral+0x28>
#else
#error "Unsupported device"
#endif

	/* Remove the pins from under the control of PIO */
	p_pio->PIO_PDR = ul_mask;
  4034e6:	6042      	str	r2, [r0, #4]
}
  4034e8:	f85d 4b04 	ldr.w	r4, [sp], #4
  4034ec:	4770      	bx	lr
  4034ee:	bf00      	nop

004034f0 <pio_set_input>:
 * \param p_pio Pointer to a PIO instance.
 * \param ul_mask Interrupt sources bit map.
 */
void pio_disable_interrupt(Pio *p_pio, const uint32_t ul_mask)
{
	p_pio->PIO_IDR = ul_mask;
  4034f0:	6441      	str	r1, [r0, #68]	; 0x44
 */
void pio_pull_up(Pio *p_pio, const uint32_t ul_mask,
		const uint32_t ul_pull_up_enable)
{
	/* Enable the pull-up(s) if necessary */
	if (ul_pull_up_enable) {
  4034f2:	f012 0f01 	tst.w	r2, #1
  4034f6:	d001      	beq.n	4034fc <pio_set_input+0xc>
		p_pio->PIO_PUER = ul_mask;
  4034f8:	6641      	str	r1, [r0, #100]	; 0x64
  4034fa:	e000      	b.n	4034fe <pio_set_input+0xe>
	} else {
		p_pio->PIO_PUDR = ul_mask;
  4034fc:	6601      	str	r1, [r0, #96]	; 0x60
{
	pio_disable_interrupt(p_pio, ul_mask);
	pio_pull_up(p_pio, ul_mask, ul_attribute & PIO_PULLUP);

	/* Enable Input Filter if necessary */
	if (ul_attribute & (PIO_DEGLITCH | PIO_DEBOUNCE)) {
  4034fe:	f012 0f0a 	tst.w	r2, #10
  403502:	d001      	beq.n	403508 <pio_set_input+0x18>
		p_pio->PIO_IFER = ul_mask;
  403504:	6201      	str	r1, [r0, #32]
  403506:	e000      	b.n	40350a <pio_set_input+0x1a>
	} else {
		p_pio->PIO_IFDR = ul_mask;
  403508:	6241      	str	r1, [r0, #36]	; 0x24
	}

#if (SAM3S || SAM3N || SAM4S || SAM4E || SAM4N || SAM4C || SAMG || SAM4CP || SAM4CM || SAMV71 || SAMV70 || SAME70 || SAMS70)
	/* Enable de-glitch or de-bounce if necessary */
	if (ul_attribute & PIO_DEGLITCH) {
  40350a:	f012 0f02 	tst.w	r2, #2
  40350e:	d002      	beq.n	403516 <pio_set_input+0x26>
		p_pio->PIO_IFSCDR = ul_mask;
  403510:	f8c0 1080 	str.w	r1, [r0, #128]	; 0x80
  403514:	e004      	b.n	403520 <pio_set_input+0x30>
	} else {
		if (ul_attribute & PIO_DEBOUNCE) {
  403516:	f012 0f08 	tst.w	r2, #8
  40351a:	d001      	beq.n	403520 <pio_set_input+0x30>
			p_pio->PIO_IFSCER = ul_mask;
  40351c:	f8c0 1084 	str.w	r1, [r0, #132]	; 0x84
#else
#error "Unsupported device"
#endif

	/* Configure pin as input */
	p_pio->PIO_ODR = ul_mask;
  403520:	6141      	str	r1, [r0, #20]
	p_pio->PIO_PER = ul_mask;
  403522:	6001      	str	r1, [r0, #0]
  403524:	4770      	bx	lr
  403526:	bf00      	nop

00403528 <pio_set_output>:
 */
void pio_set_output(Pio *p_pio, const uint32_t ul_mask,
		const uint32_t ul_default_level,
		const uint32_t ul_multidrive_enable,
		const uint32_t ul_pull_up_enable)
{
  403528:	b410      	push	{r4}
 * \param p_pio Pointer to a PIO instance.
 * \param ul_mask Interrupt sources bit map.
 */
void pio_disable_interrupt(Pio *p_pio, const uint32_t ul_mask)
{
	p_pio->PIO_IDR = ul_mask;
  40352a:	6441      	str	r1, [r0, #68]	; 0x44
 */
void pio_pull_up(Pio *p_pio, const uint32_t ul_mask,
		const uint32_t ul_pull_up_enable)
{
	/* Enable the pull-up(s) if necessary */
	if (ul_pull_up_enable) {
  40352c:	9c01      	ldr	r4, [sp, #4]
  40352e:	b10c      	cbz	r4, 403534 <pio_set_output+0xc>
		p_pio->PIO_PUER = ul_mask;
  403530:	6641      	str	r1, [r0, #100]	; 0x64
  403532:	e000      	b.n	403536 <pio_set_output+0xe>
	} else {
		p_pio->PIO_PUDR = ul_mask;
  403534:	6601      	str	r1, [r0, #96]	; 0x60
{
	pio_disable_interrupt(p_pio, ul_mask);
	pio_pull_up(p_pio, ul_mask, ul_pull_up_enable);

	/* Enable multi-drive if necessary */
	if (ul_multidrive_enable) {
  403536:	b10b      	cbz	r3, 40353c <pio_set_output+0x14>
		p_pio->PIO_MDER = ul_mask;
  403538:	6501      	str	r1, [r0, #80]	; 0x50
  40353a:	e000      	b.n	40353e <pio_set_output+0x16>
	} else {
		p_pio->PIO_MDDR = ul_mask;
  40353c:	6541      	str	r1, [r0, #84]	; 0x54
	}

	/* Set default value */
	if (ul_default_level) {
  40353e:	b10a      	cbz	r2, 403544 <pio_set_output+0x1c>
		p_pio->PIO_SODR = ul_mask;
  403540:	6301      	str	r1, [r0, #48]	; 0x30
  403542:	e000      	b.n	403546 <pio_set_output+0x1e>
	} else {
		p_pio->PIO_CODR = ul_mask;
  403544:	6341      	str	r1, [r0, #52]	; 0x34
	}

	/* Configure pin(s) as output(s) */
	p_pio->PIO_OER = ul_mask;
  403546:	6101      	str	r1, [r0, #16]
	p_pio->PIO_PER = ul_mask;
  403548:	6001      	str	r1, [r0, #0]
}
  40354a:	f85d 4b04 	ldr.w	r4, [sp], #4
  40354e:	4770      	bx	lr

00403550 <pio_configure_interrupt>:
 */
void pio_configure_interrupt(Pio *p_pio, const uint32_t ul_mask,
		const uint32_t ul_attr)
{
	/* Configure additional interrupt mode registers. */
	if (ul_attr & PIO_IT_AIME) {
  403550:	f012 0f10 	tst.w	r2, #16
  403554:	d012      	beq.n	40357c <pio_configure_interrupt+0x2c>
		/* Enable additional interrupt mode. */
		p_pio->PIO_AIMER = ul_mask;
  403556:	f8c0 10b0 	str.w	r1, [r0, #176]	; 0xb0

		/* If bit field of the selected pin is 1, set as
		   Rising Edge/High level detection event. */
		if (ul_attr & PIO_IT_RE_OR_HL) {
  40355a:	f012 0f20 	tst.w	r2, #32
  40355e:	d002      	beq.n	403566 <pio_configure_interrupt+0x16>
			/* Rising Edge or High Level */
			p_pio->PIO_REHLSR = ul_mask;
  403560:	f8c0 10d4 	str.w	r1, [r0, #212]	; 0xd4
  403564:	e001      	b.n	40356a <pio_configure_interrupt+0x1a>
		} else {
			/* Falling Edge or Low Level */
			p_pio->PIO_FELLSR = ul_mask;
  403566:	f8c0 10d0 	str.w	r1, [r0, #208]	; 0xd0
		}

		/* If bit field of the selected pin is 1, set as
		   edge detection source. */
		if (ul_attr & PIO_IT_EDGE) {
  40356a:	f012 0f40 	tst.w	r2, #64	; 0x40
  40356e:	d002      	beq.n	403576 <pio_configure_interrupt+0x26>
			/* Edge select */
			p_pio->PIO_ESR = ul_mask;
  403570:	f8c0 10c0 	str.w	r1, [r0, #192]	; 0xc0
  403574:	4770      	bx	lr
		} else {
			/* Level select */
			p_pio->PIO_LSR = ul_mask;
  403576:	f8c0 10c4 	str.w	r1, [r0, #196]	; 0xc4
  40357a:	4770      	bx	lr
		}
	} else {
		/* Disable additional interrupt mode. */
		p_pio->PIO_AIMDR = ul_mask;
  40357c:	f8c0 10b4 	str.w	r1, [r0, #180]	; 0xb4
  403580:	4770      	bx	lr
  403582:	bf00      	nop

00403584 <pio_enable_interrupt>:
 * \param p_pio Pointer to a PIO instance.
 * \param ul_mask Interrupt sources bit map.
 */
void pio_enable_interrupt(Pio *p_pio, const uint32_t ul_mask)
{
	p_pio->PIO_IER = ul_mask;
  403584:	6401      	str	r1, [r0, #64]	; 0x40
  403586:	4770      	bx	lr

00403588 <pio_disable_interrupt>:
 * \param p_pio Pointer to a PIO instance.
 * \param ul_mask Interrupt sources bit map.
 */
void pio_disable_interrupt(Pio *p_pio, const uint32_t ul_mask)
{
	p_pio->PIO_IDR = ul_mask;
  403588:	6441      	str	r1, [r0, #68]	; 0x44
  40358a:	4770      	bx	lr

0040358c <pio_get_interrupt_status>:
 *
 * \return The interrupt status value.
 */
uint32_t pio_get_interrupt_status(const Pio *p_pio)
{
	return p_pio->PIO_ISR;
  40358c:	6cc0      	ldr	r0, [r0, #76]	; 0x4c
}
  40358e:	4770      	bx	lr

00403590 <pio_get_interrupt_mask>:
 *
 * \return The interrupt mask value.
 */
uint32_t pio_get_interrupt_mask(const Pio *p_pio)
{
	return p_pio->PIO_IMR;
  403590:	6c80      	ldr	r0, [r0, #72]	; 0x48
}
  403592:	4770      	bx	lr

00403594 <pio_configure_pin>:
 * \param ul_flags Pins attributes.
 *
 * \return Whether the pin(s) have been configured properly.
 */
uint32_t pio_configure_pin(uint32_t ul_pin, const uint32_t ul_flags)
{
  403594:	b570      	push	{r4, r5, r6, lr}
  403596:	b082      	sub	sp, #8
  403598:	460d      	mov	r5, r1
		p_pio = PIOC;
	} else {
		p_pio = (Pio *)((uint32_t)PIOA + (PIO_DELTA * (ul_pin >> 5)));
	}
#else
	p_pio = (Pio *)((uint32_t)PIOA + (PIO_DELTA * (ul_pin >> 5)));
  40359a:	4c47      	ldr	r4, [pc, #284]	; (4036b8 <pio_configure_pin+0x124>)
  40359c:	eb04 1450 	add.w	r4, r4, r0, lsr #5
  4035a0:	0264      	lsls	r4, r4, #9
uint32_t pio_configure_pin(uint32_t ul_pin, const uint32_t ul_flags)
{
	Pio *p_pio = pio_get_pin_group(ul_pin);

	/* Configure pins */
	switch (ul_flags & PIO_TYPE_Msk) {
  4035a2:	f001 43f0 	and.w	r3, r1, #2013265920	; 0x78000000
  4035a6:	f1b3 5f00 	cmp.w	r3, #536870912	; 0x20000000
  4035aa:	d04d      	beq.n	403648 <pio_configure_pin+0xb4>
  4035ac:	d809      	bhi.n	4035c2 <pio_configure_pin+0x2e>
  4035ae:	f1b3 5f80 	cmp.w	r3, #268435456	; 0x10000000
  4035b2:	d023      	beq.n	4035fc <pio_configure_pin+0x68>
  4035b4:	f1b3 5fc0 	cmp.w	r3, #402653184	; 0x18000000
  4035b8:	d033      	beq.n	403622 <pio_configure_pin+0x8e>
  4035ba:	f1b3 6f00 	cmp.w	r3, #134217728	; 0x8000000
  4035be:	d177      	bne.n	4036b0 <pio_configure_pin+0x11c>
  4035c0:	e009      	b.n	4035d6 <pio_configure_pin+0x42>
  4035c2:	f1b3 5f40 	cmp.w	r3, #805306368	; 0x30000000
  4035c6:	d05d      	beq.n	403684 <pio_configure_pin+0xf0>
  4035c8:	f1b3 5f60 	cmp.w	r3, #939524096	; 0x38000000
  4035cc:	d05a      	beq.n	403684 <pio_configure_pin+0xf0>
  4035ce:	f1b3 5f20 	cmp.w	r3, #671088640	; 0x28000000
  4035d2:	d04c      	beq.n	40366e <pio_configure_pin+0xda>
  4035d4:	e06c      	b.n	4036b0 <pio_configure_pin+0x11c>
	case PIO_TYPE_PIO_PERIPH_A:
		pio_set_peripheral(p_pio, PIO_PERIPH_A, (1 << (ul_pin & 0x1F)));
  4035d6:	f000 001f 	and.w	r0, r0, #31
  4035da:	2601      	movs	r6, #1
  4035dc:	4086      	lsls	r6, r0
  4035de:	4632      	mov	r2, r6
  4035e0:	f04f 6100 	mov.w	r1, #134217728	; 0x8000000
  4035e4:	4620      	mov	r0, r4
  4035e6:	4b35      	ldr	r3, [pc, #212]	; (4036bc <pio_configure_pin+0x128>)
  4035e8:	4798      	blx	r3
 */
void pio_pull_up(Pio *p_pio, const uint32_t ul_mask,
		const uint32_t ul_pull_up_enable)
{
	/* Enable the pull-up(s) if necessary */
	if (ul_pull_up_enable) {
  4035ea:	f015 0f01 	tst.w	r5, #1
  4035ee:	d002      	beq.n	4035f6 <pio_configure_pin+0x62>
		p_pio->PIO_PUER = ul_mask;
  4035f0:	6666      	str	r6, [r4, #100]	; 0x64

	default:
		return 0;
	}

	return 1;
  4035f2:	2001      	movs	r0, #1
  4035f4:	e05d      	b.n	4036b2 <pio_configure_pin+0x11e>
{
	/* Enable the pull-up(s) if necessary */
	if (ul_pull_up_enable) {
		p_pio->PIO_PUER = ul_mask;
	} else {
		p_pio->PIO_PUDR = ul_mask;
  4035f6:	6626      	str	r6, [r4, #96]	; 0x60

	default:
		return 0;
	}

	return 1;
  4035f8:	2001      	movs	r0, #1
  4035fa:	e05a      	b.n	4036b2 <pio_configure_pin+0x11e>
		pio_set_peripheral(p_pio, PIO_PERIPH_A, (1 << (ul_pin & 0x1F)));
		pio_pull_up(p_pio, (1 << (ul_pin & 0x1F)),
				(ul_flags & PIO_PULLUP));
		break;
	case PIO_TYPE_PIO_PERIPH_B:
		pio_set_peripheral(p_pio, PIO_PERIPH_B, (1 << (ul_pin & 0x1F)));
  4035fc:	f000 001f 	and.w	r0, r0, #31
  403600:	2601      	movs	r6, #1
  403602:	4086      	lsls	r6, r0
  403604:	4632      	mov	r2, r6
  403606:	f04f 5180 	mov.w	r1, #268435456	; 0x10000000
  40360a:	4620      	mov	r0, r4
  40360c:	4b2b      	ldr	r3, [pc, #172]	; (4036bc <pio_configure_pin+0x128>)
  40360e:	4798      	blx	r3
 */
void pio_pull_up(Pio *p_pio, const uint32_t ul_mask,
		const uint32_t ul_pull_up_enable)
{
	/* Enable the pull-up(s) if necessary */
	if (ul_pull_up_enable) {
  403610:	f015 0f01 	tst.w	r5, #1
  403614:	d002      	beq.n	40361c <pio_configure_pin+0x88>
		p_pio->PIO_PUER = ul_mask;
  403616:	6666      	str	r6, [r4, #100]	; 0x64

	default:
		return 0;
	}

	return 1;
  403618:	2001      	movs	r0, #1
  40361a:	e04a      	b.n	4036b2 <pio_configure_pin+0x11e>
{
	/* Enable the pull-up(s) if necessary */
	if (ul_pull_up_enable) {
		p_pio->PIO_PUER = ul_mask;
	} else {
		p_pio->PIO_PUDR = ul_mask;
  40361c:	6626      	str	r6, [r4, #96]	; 0x60

	default:
		return 0;
	}

	return 1;
  40361e:	2001      	movs	r0, #1
  403620:	e047      	b.n	4036b2 <pio_configure_pin+0x11e>
		pio_pull_up(p_pio, (1 << (ul_pin & 0x1F)),
				(ul_flags & PIO_PULLUP));
		break;
#if (SAM3S || SAM3N || SAM4S || SAM4E || SAM4N || SAM4C || SAM4CP || SAM4CM || SAMV71 || SAMV70 || SAME70 || SAMS70)
	case PIO_TYPE_PIO_PERIPH_C:
		pio_set_peripheral(p_pio, PIO_PERIPH_C, (1 << (ul_pin & 0x1F)));
  403622:	f000 001f 	and.w	r0, r0, #31
  403626:	2601      	movs	r6, #1
  403628:	4086      	lsls	r6, r0
  40362a:	4632      	mov	r2, r6
  40362c:	f04f 51c0 	mov.w	r1, #402653184	; 0x18000000
  403630:	4620      	mov	r0, r4
  403632:	4b22      	ldr	r3, [pc, #136]	; (4036bc <pio_configure_pin+0x128>)
  403634:	4798      	blx	r3
 */
void pio_pull_up(Pio *p_pio, const uint32_t ul_mask,
		const uint32_t ul_pull_up_enable)
{
	/* Enable the pull-up(s) if necessary */
	if (ul_pull_up_enable) {
  403636:	f015 0f01 	tst.w	r5, #1
  40363a:	d002      	beq.n	403642 <pio_configure_pin+0xae>
		p_pio->PIO_PUER = ul_mask;
  40363c:	6666      	str	r6, [r4, #100]	; 0x64

	default:
		return 0;
	}

	return 1;
  40363e:	2001      	movs	r0, #1
  403640:	e037      	b.n	4036b2 <pio_configure_pin+0x11e>
{
	/* Enable the pull-up(s) if necessary */
	if (ul_pull_up_enable) {
		p_pio->PIO_PUER = ul_mask;
	} else {
		p_pio->PIO_PUDR = ul_mask;
  403642:	6626      	str	r6, [r4, #96]	; 0x60

	default:
		return 0;
	}

	return 1;
  403644:	2001      	movs	r0, #1
  403646:	e034      	b.n	4036b2 <pio_configure_pin+0x11e>
		pio_set_peripheral(p_pio, PIO_PERIPH_C, (1 << (ul_pin & 0x1F)));
		pio_pull_up(p_pio, (1 << (ul_pin & 0x1F)),
				(ul_flags & PIO_PULLUP));
		break;
	case PIO_TYPE_PIO_PERIPH_D:
		pio_set_peripheral(p_pio, PIO_PERIPH_D, (1 << (ul_pin & 0x1F)));
  403648:	f000 001f 	and.w	r0, r0, #31
  40364c:	2601      	movs	r6, #1
  40364e:	4086      	lsls	r6, r0
  403650:	4632      	mov	r2, r6
  403652:	f04f 5100 	mov.w	r1, #536870912	; 0x20000000
  403656:	4620      	mov	r0, r4
  403658:	4b18      	ldr	r3, [pc, #96]	; (4036bc <pio_configure_pin+0x128>)
  40365a:	4798      	blx	r3
 */
void pio_pull_up(Pio *p_pio, const uint32_t ul_mask,
		const uint32_t ul_pull_up_enable)
{
	/* Enable the pull-up(s) if necessary */
	if (ul_pull_up_enable) {
  40365c:	f015 0f01 	tst.w	r5, #1
  403660:	d002      	beq.n	403668 <pio_configure_pin+0xd4>
		p_pio->PIO_PUER = ul_mask;
  403662:	6666      	str	r6, [r4, #100]	; 0x64

	default:
		return 0;
	}

	return 1;
  403664:	2001      	movs	r0, #1
  403666:	e024      	b.n	4036b2 <pio_configure_pin+0x11e>
{
	/* Enable the pull-up(s) if necessary */
	if (ul_pull_up_enable) {
		p_pio->PIO_PUER = ul_mask;
	} else {
		p_pio->PIO_PUDR = ul_mask;
  403668:	6626      	str	r6, [r4, #96]	; 0x60

	default:
		return 0;
	}

	return 1;
  40366a:	2001      	movs	r0, #1
  40366c:	e021      	b.n	4036b2 <pio_configure_pin+0x11e>
				(ul_flags & PIO_PULLUP));
		break;
#endif

	case PIO_TYPE_PIO_INPUT:
		pio_set_input(p_pio, (1 << (ul_pin & 0x1F)), ul_flags);
  40366e:	f000 011f 	and.w	r1, r0, #31
  403672:	2601      	movs	r6, #1
  403674:	462a      	mov	r2, r5
  403676:	fa06 f101 	lsl.w	r1, r6, r1
  40367a:	4620      	mov	r0, r4
  40367c:	4b10      	ldr	r3, [pc, #64]	; (4036c0 <pio_configure_pin+0x12c>)
  40367e:	4798      	blx	r3

	default:
		return 0;
	}

	return 1;
  403680:	4630      	mov	r0, r6
		break;
#endif

	case PIO_TYPE_PIO_INPUT:
		pio_set_input(p_pio, (1 << (ul_pin & 0x1F)), ul_flags);
		break;
  403682:	e016      	b.n	4036b2 <pio_configure_pin+0x11e>

	case PIO_TYPE_PIO_OUTPUT_0:
	case PIO_TYPE_PIO_OUTPUT_1:
		pio_set_output(p_pio, (1 << (ul_pin & 0x1F)),
  403684:	f005 5260 	and.w	r2, r5, #939524096	; 0x38000000
  403688:	f000 011f 	and.w	r1, r0, #31
  40368c:	2601      	movs	r6, #1
  40368e:	ea05 0306 	and.w	r3, r5, r6
  403692:	9300      	str	r3, [sp, #0]
  403694:	f3c5 0380 	ubfx	r3, r5, #2, #1
  403698:	f1b2 5f60 	cmp.w	r2, #939524096	; 0x38000000
  40369c:	bf14      	ite	ne
  40369e:	2200      	movne	r2, #0
  4036a0:	2201      	moveq	r2, #1
  4036a2:	fa06 f101 	lsl.w	r1, r6, r1
  4036a6:	4620      	mov	r0, r4
  4036a8:	4c06      	ldr	r4, [pc, #24]	; (4036c4 <pio_configure_pin+0x130>)
  4036aa:	47a0      	blx	r4

	default:
		return 0;
	}

	return 1;
  4036ac:	4630      	mov	r0, r6
		pio_set_output(p_pio, (1 << (ul_pin & 0x1F)),
				((ul_flags & PIO_TYPE_PIO_OUTPUT_1)
				== PIO_TYPE_PIO_OUTPUT_1) ? 1 : 0,
				(ul_flags & PIO_OPENDRAIN) ? 1 : 0,
				(ul_flags & PIO_PULLUP) ? 1 : 0);
		break;
  4036ae:	e000      	b.n	4036b2 <pio_configure_pin+0x11e>

	default:
		return 0;
  4036b0:	2000      	movs	r0, #0
	}

	return 1;
}
  4036b2:	b002      	add	sp, #8
  4036b4:	bd70      	pop	{r4, r5, r6, pc}
  4036b6:	bf00      	nop
  4036b8:	00200707 	.word	0x00200707
  4036bc:	0040345d 	.word	0x0040345d
  4036c0:	004034f1 	.word	0x004034f1
  4036c4:	00403529 	.word	0x00403529

004036c8 <pio_handler_process>:
 *
 * \param p_pio PIO controller base address.
 * \param ul_id PIO controller ID.
 */
void pio_handler_process(Pio *p_pio, uint32_t ul_id)
{
  4036c8:	e92d 41f0 	stmdb	sp!, {r4, r5, r6, r7, r8, lr}
  4036cc:	4604      	mov	r4, r0
  4036ce:	4688      	mov	r8, r1
	uint32_t status;
	uint32_t i;

	/* Read PIO controller status */
	status = pio_get_interrupt_status(p_pio);
  4036d0:	4b0e      	ldr	r3, [pc, #56]	; (40370c <pio_handler_process+0x44>)
  4036d2:	4798      	blx	r3
  4036d4:	4605      	mov	r5, r0
	status &= pio_get_interrupt_mask(p_pio);
  4036d6:	4620      	mov	r0, r4
  4036d8:	4b0d      	ldr	r3, [pc, #52]	; (403710 <pio_handler_process+0x48>)
  4036da:	4798      	blx	r3

	/* Check pending events */
	if (status != 0) {
  4036dc:	4005      	ands	r5, r0
  4036de:	d013      	beq.n	403708 <pio_handler_process+0x40>
  4036e0:	4c0c      	ldr	r4, [pc, #48]	; (403714 <pio_handler_process+0x4c>)
  4036e2:	f104 0660 	add.w	r6, r4, #96	; 0x60
		/* Find triggering source */
		i = 0;
		while (status != 0) {
			/* Source is configured on the same controller */
			if (gs_interrupt_sources[i].id == ul_id) {
  4036e6:	6823      	ldr	r3, [r4, #0]
  4036e8:	4543      	cmp	r3, r8
  4036ea:	d108      	bne.n	4036fe <pio_handler_process+0x36>
				/* Source has PIOs whose statuses have changed */
				if ((status & gs_interrupt_sources[i].mask) != 0) {
  4036ec:	6861      	ldr	r1, [r4, #4]
  4036ee:	4229      	tst	r1, r5
  4036f0:	d005      	beq.n	4036fe <pio_handler_process+0x36>
					gs_interrupt_sources[i].handler(gs_interrupt_sources[i].id,
  4036f2:	68e3      	ldr	r3, [r4, #12]
  4036f4:	4640      	mov	r0, r8
  4036f6:	4798      	blx	r3
							gs_interrupt_sources[i].mask);
					status &= ~(gs_interrupt_sources[i].mask);
  4036f8:	6863      	ldr	r3, [r4, #4]
  4036fa:	ea25 0503 	bic.w	r5, r5, r3
				}
			}
			i++;
			if (i >= MAX_INTERRUPT_SOURCES) {
  4036fe:	42b4      	cmp	r4, r6
  403700:	d002      	beq.n	403708 <pio_handler_process+0x40>
  403702:	3410      	adds	r4, #16

	/* Check pending events */
	if (status != 0) {
		/* Find triggering source */
		i = 0;
		while (status != 0) {
  403704:	2d00      	cmp	r5, #0
  403706:	d1ee      	bne.n	4036e6 <pio_handler_process+0x1e>
  403708:	e8bd 81f0 	ldmia.w	sp!, {r4, r5, r6, r7, r8, pc}
  40370c:	0040358d 	.word	0x0040358d
  403710:	00403591 	.word	0x00403591
  403714:	204008e0 	.word	0x204008e0

00403718 <pio_handler_set>:
 *
 * \return 0 if successful, 1 if the maximum number of sources has been defined.
 */
uint32_t pio_handler_set(Pio *p_pio, uint32_t ul_id, uint32_t ul_mask,
		uint32_t ul_attr, void (*p_handler) (uint32_t, uint32_t))
{
  403718:	b5f8      	push	{r3, r4, r5, r6, r7, lr}
    uint8_t i;
	struct s_interrupt_source *pSource;

	if (gs_ul_nb_sources >= MAX_INTERRUPT_SOURCES)
  40371a:	4c17      	ldr	r4, [pc, #92]	; (403778 <pio_handler_set+0x60>)
  40371c:	6826      	ldr	r6, [r4, #0]
  40371e:	2e06      	cmp	r6, #6
  403720:	d828      	bhi.n	403774 <pio_handler_set+0x5c>
  403722:	f04f 0c00 	mov.w	ip, #0
  403726:	4664      	mov	r4, ip
		return 1;

    /* Check interrupt for this pin, if already defined, redefine it. */
	for (i = 0; i <= gs_ul_nb_sources; i++) {
		pSource = &(gs_interrupt_sources[i]);
		if (pSource->id == ul_id && pSource->mask == ul_mask) {
  403728:	4f14      	ldr	r7, [pc, #80]	; (40377c <pio_handler_set+0x64>)
	if (gs_ul_nb_sources >= MAX_INTERRUPT_SOURCES)
		return 1;

    /* Check interrupt for this pin, if already defined, redefine it. */
	for (i = 0; i <= gs_ul_nb_sources; i++) {
		pSource = &(gs_interrupt_sources[i]);
  40372a:	46a6      	mov	lr, r4
		if (pSource->id == ul_id && pSource->mask == ul_mask) {
  40372c:	0125      	lsls	r5, r4, #4
  40372e:	597d      	ldr	r5, [r7, r5]
  403730:	428d      	cmp	r5, r1
  403732:	d104      	bne.n	40373e <pio_handler_set+0x26>
  403734:	eb07 1504 	add.w	r5, r7, r4, lsl #4
  403738:	686d      	ldr	r5, [r5, #4]
  40373a:	4295      	cmp	r5, r2
  40373c:	d004      	beq.n	403748 <pio_handler_set+0x30>

	if (gs_ul_nb_sources >= MAX_INTERRUPT_SOURCES)
		return 1;

    /* Check interrupt for this pin, if already defined, redefine it. */
	for (i = 0; i <= gs_ul_nb_sources; i++) {
  40373e:	3401      	adds	r4, #1
  403740:	b2e4      	uxtb	r4, r4
  403742:	46a4      	mov	ip, r4
  403744:	42a6      	cmp	r6, r4
  403746:	d2f0      	bcs.n	40372a <pio_handler_set+0x12>
			break;
		}
	}

	/* Define new source */
	pSource->id = ul_id;
  403748:	4d0c      	ldr	r5, [pc, #48]	; (40377c <pio_handler_set+0x64>)
  40374a:	ea4f 1e0e 	mov.w	lr, lr, lsl #4
  40374e:	eb05 040e 	add.w	r4, r5, lr
  403752:	f845 100e 	str.w	r1, [r5, lr]
	pSource->mask = ul_mask;
  403756:	6062      	str	r2, [r4, #4]
	pSource->attr = ul_attr;
  403758:	60a3      	str	r3, [r4, #8]
	pSource->handler = p_handler;
  40375a:	9906      	ldr	r1, [sp, #24]
  40375c:	60e1      	str	r1, [r4, #12]
	if (i == gs_ul_nb_sources + 1) {
  40375e:	3601      	adds	r6, #1
  403760:	4566      	cmp	r6, ip
  403762:	d101      	bne.n	403768 <pio_handler_set+0x50>
		gs_ul_nb_sources++;
  403764:	4904      	ldr	r1, [pc, #16]	; (403778 <pio_handler_set+0x60>)
  403766:	600e      	str	r6, [r1, #0]
  403768:	4611      	mov	r1, r2
	}

	/* Configure interrupt mode */
	pio_configure_interrupt(p_pio, ul_mask, ul_attr);
  40376a:	461a      	mov	r2, r3
  40376c:	4b04      	ldr	r3, [pc, #16]	; (403780 <pio_handler_set+0x68>)
  40376e:	4798      	blx	r3

	return 0;
  403770:	2000      	movs	r0, #0
  403772:	bdf8      	pop	{r3, r4, r5, r6, r7, pc}
{
    uint8_t i;
	struct s_interrupt_source *pSource;

	if (gs_ul_nb_sources >= MAX_INTERRUPT_SOURCES)
		return 1;
  403774:	2001      	movs	r0, #1

	/* Configure interrupt mode */
	pio_configure_interrupt(p_pio, ul_mask, ul_attr);

	return 0;
}
  403776:	bdf8      	pop	{r3, r4, r5, r6, r7, pc}
  403778:	204008dc 	.word	0x204008dc
  40377c:	204008e0 	.word	0x204008e0
  403780:	00403551 	.word	0x00403551

00403784 <PIOA_Handler>:
/**
 * \brief Parallel IO Controller A interrupt handler.
 * Redefined PIOA interrupt handler for NVIC interrupt table.
 */
void PIOA_Handler(void)
{
  403784:	b508      	push	{r3, lr}
	pio_handler_process(PIOA, ID_PIOA);
  403786:	210a      	movs	r1, #10
  403788:	4801      	ldr	r0, [pc, #4]	; (403790 <PIOA_Handler+0xc>)
  40378a:	4b02      	ldr	r3, [pc, #8]	; (403794 <PIOA_Handler+0x10>)
  40378c:	4798      	blx	r3
  40378e:	bd08      	pop	{r3, pc}
  403790:	400e0e00 	.word	0x400e0e00
  403794:	004036c9 	.word	0x004036c9

00403798 <PIOB_Handler>:
/**
 * \brief Parallel IO Controller B interrupt handler
 * Redefined PIOB interrupt handler for NVIC interrupt table.
 */
void PIOB_Handler(void)
{
  403798:	b508      	push	{r3, lr}
    pio_handler_process(PIOB, ID_PIOB);
  40379a:	210b      	movs	r1, #11
  40379c:	4801      	ldr	r0, [pc, #4]	; (4037a4 <PIOB_Handler+0xc>)
  40379e:	4b02      	ldr	r3, [pc, #8]	; (4037a8 <PIOB_Handler+0x10>)
  4037a0:	4798      	blx	r3
  4037a2:	bd08      	pop	{r3, pc}
  4037a4:	400e1000 	.word	0x400e1000
  4037a8:	004036c9 	.word	0x004036c9

004037ac <PIOC_Handler>:
/**
 * \brief Parallel IO Controller C interrupt handler.
 * Redefined PIOC interrupt handler for NVIC interrupt table.
 */
void PIOC_Handler(void)
{
  4037ac:	b508      	push	{r3, lr}
	pio_handler_process(PIOC, ID_PIOC);
  4037ae:	210c      	movs	r1, #12
  4037b0:	4801      	ldr	r0, [pc, #4]	; (4037b8 <PIOC_Handler+0xc>)
  4037b2:	4b02      	ldr	r3, [pc, #8]	; (4037bc <PIOC_Handler+0x10>)
  4037b4:	4798      	blx	r3
  4037b6:	bd08      	pop	{r3, pc}
  4037b8:	400e1200 	.word	0x400e1200
  4037bc:	004036c9 	.word	0x004036c9

004037c0 <PIOD_Handler>:
/**
 * \brief Parallel IO Controller D interrupt handler.
 * Redefined PIOD interrupt handler for NVIC interrupt table.
 */
void PIOD_Handler(void)
{
  4037c0:	b508      	push	{r3, lr}
	pio_handler_process(PIOD, ID_PIOD);
  4037c2:	2110      	movs	r1, #16
  4037c4:	4801      	ldr	r0, [pc, #4]	; (4037cc <PIOD_Handler+0xc>)
  4037c6:	4b02      	ldr	r3, [pc, #8]	; (4037d0 <PIOD_Handler+0x10>)
  4037c8:	4798      	blx	r3
  4037ca:	bd08      	pop	{r3, pc}
  4037cc:	400e1400 	.word	0x400e1400
  4037d0:	004036c9 	.word	0x004036c9

004037d4 <PIOE_Handler>:
/**
 * \brief Parallel IO Controller E interrupt handler.
 * Redefined PIOE interrupt handler for NVIC interrupt table.
 */
void PIOE_Handler(void)
{
  4037d4:	b508      	push	{r3, lr}
	pio_handler_process(PIOE, ID_PIOE);
  4037d6:	2111      	movs	r1, #17
  4037d8:	4801      	ldr	r0, [pc, #4]	; (4037e0 <PIOE_Handler+0xc>)
  4037da:	4b02      	ldr	r3, [pc, #8]	; (4037e4 <PIOE_Handler+0x10>)
  4037dc:	4798      	blx	r3
  4037de:	bd08      	pop	{r3, pc}
  4037e0:	400e1600 	.word	0x400e1600
  4037e4:	004036c9 	.word	0x004036c9

004037e8 <pio_handler_set_priority>:
 * \param p_pio PIO controller base address.
 * \param ul_irqn NVIC line number.
 * \param ul_priority PIO controller interrupts priority.
 */
void pio_handler_set_priority(Pio *p_pio, IRQn_Type ul_irqn, uint32_t ul_priority)
{
  4037e8:	b5f8      	push	{r3, r4, r5, r6, r7, lr}
  4037ea:	4606      	mov	r6, r0
  4037ec:	460d      	mov	r5, r1
  4037ee:	4614      	mov	r4, r2
	uint32_t bitmask = 0;

	bitmask = pio_get_interrupt_mask(p_pio);
  4037f0:	4b17      	ldr	r3, [pc, #92]	; (403850 <pio_handler_set_priority+0x68>)
  4037f2:	4798      	blx	r3
  4037f4:	4607      	mov	r7, r0
	pio_disable_interrupt(p_pio, 0xFFFFFFFF);
  4037f6:	f04f 31ff 	mov.w	r1, #4294967295
  4037fa:	4630      	mov	r0, r6
  4037fc:	4b15      	ldr	r3, [pc, #84]	; (403854 <pio_handler_set_priority+0x6c>)
  4037fe:	4798      	blx	r3
	pio_get_interrupt_status(p_pio);
  403800:	4630      	mov	r0, r6
  403802:	4b15      	ldr	r3, [pc, #84]	; (403858 <pio_handler_set_priority+0x70>)
  403804:	4798      	blx	r3

    \param [in]      IRQn  External interrupt number. Value cannot be negative.
 */
__STATIC_INLINE void NVIC_DisableIRQ(IRQn_Type IRQn)
{
  NVIC->ICER[((uint32_t)(IRQn) >> 5)] = (1 << ((uint32_t)(IRQn) & 0x1F)); /* disable interrupt */
  403806:	fa5f fe85 	uxtb.w	lr, r5
  40380a:	f00e 031f 	and.w	r3, lr, #31
  40380e:	2201      	movs	r2, #1
  403810:	fa02 f303 	lsl.w	r3, r2, r3
  403814:	0968      	lsrs	r0, r5, #5
  403816:	4911      	ldr	r1, [pc, #68]	; (40385c <pio_handler_set_priority+0x74>)
  403818:	eb01 0280 	add.w	r2, r1, r0, lsl #2
  40381c:	f8c2 3080 	str.w	r3, [r2, #128]	; 0x80

    \param [in]      IRQn  External interrupt number. Value cannot be negative.
 */
__STATIC_INLINE void NVIC_ClearPendingIRQ(IRQn_Type IRQn)
{
  NVIC->ICPR[((uint32_t)(IRQn) >> 5)] = (1 << ((uint32_t)(IRQn) & 0x1F)); /* Clear pending interrupt */
  403820:	f8c2 3180 	str.w	r3, [r2, #384]	; 0x180
    \param [in]      IRQn  Interrupt number.
    \param [in]  priority  Priority to set.
 */
__STATIC_INLINE void NVIC_SetPriority(IRQn_Type IRQn, uint32_t priority)
{
  if(IRQn < 0) {
  403824:	2d00      	cmp	r5, #0
  403826:	da07      	bge.n	403838 <pio_handler_set_priority+0x50>
    SCB->SHPR[((uint32_t)(IRQn) & 0xF)-4] = ((priority << (8 - __NVIC_PRIO_BITS)) & 0xff); } /* set Priority for Cortex-M  System Interrupts */
  403828:	f00e 0e0f 	and.w	lr, lr, #15
  40382c:	0164      	lsls	r4, r4, #5
  40382e:	b2e4      	uxtb	r4, r4
  403830:	4a0b      	ldr	r2, [pc, #44]	; (403860 <pio_handler_set_priority+0x78>)
  403832:	f802 400e 	strb.w	r4, [r2, lr]
  403836:	e003      	b.n	403840 <pio_handler_set_priority+0x58>
  else {
    NVIC->IP[(uint32_t)(IRQn)]            = ((priority << (8 - __NVIC_PRIO_BITS)) & 0xff); } /* set Priority for device specific Interrupts  */
  403838:	0164      	lsls	r4, r4, #5
  40383a:	b2e4      	uxtb	r4, r4
  40383c:	4a09      	ldr	r2, [pc, #36]	; (403864 <pio_handler_set_priority+0x7c>)
  40383e:	5554      	strb	r4, [r2, r5]
    \param [in]      IRQn  External interrupt number. Value cannot be negative.
 */
__STATIC_INLINE void NVIC_EnableIRQ(IRQn_Type IRQn)
{
/*  NVIC->ISER[((uint32_t)(IRQn) >> 5)] = (1 << ((uint32_t)(IRQn) & 0x1F));  enable interrupt */
  NVIC->ISER[(uint32_t)((int32_t)IRQn) >> 5] = (uint32_t)(1 << ((uint32_t)((int32_t)IRQn) & (uint32_t)0x1F)); /* enable interrupt */
  403840:	f841 3020 	str.w	r3, [r1, r0, lsl #2]
	NVIC_DisableIRQ(ul_irqn);
	NVIC_ClearPendingIRQ(ul_irqn);
	NVIC_SetPriority(ul_irqn, ul_priority);
	NVIC_EnableIRQ(ul_irqn);
	pio_enable_interrupt(p_pio, bitmask);
  403844:	4639      	mov	r1, r7
  403846:	4630      	mov	r0, r6
  403848:	4b07      	ldr	r3, [pc, #28]	; (403868 <pio_handler_set_priority+0x80>)
  40384a:	4798      	blx	r3
  40384c:	bdf8      	pop	{r3, r4, r5, r6, r7, pc}
  40384e:	bf00      	nop
  403850:	00403591 	.word	0x00403591
  403854:	00403589 	.word	0x00403589
  403858:	0040358d 	.word	0x0040358d
  40385c:	e000e100 	.word	0xe000e100
  403860:	e000ed14 	.word	0xe000ed14
  403864:	e000e400 	.word	0xe000e400
  403868:	00403585 	.word	0x00403585

0040386c <pmc_mck_set_division>:
 *
 * \param ul_div Division value.
 */
void pmc_mck_set_division(uint32_t ul_div)
{
	switch (ul_div) {
  40386c:	2803      	cmp	r0, #3
  40386e:	d007      	beq.n	403880 <pmc_mck_set_division+0x14>
  403870:	2804      	cmp	r0, #4
  403872:	d008      	beq.n	403886 <pmc_mck_set_division+0x1a>
		case 1:
			ul_div = PMC_MCKR_MDIV_EQ_PCK;
  403874:	2802      	cmp	r0, #2
  403876:	bf0c      	ite	eq
  403878:	f44f 7280 	moveq.w	r2, #256	; 0x100
  40387c:	2200      	movne	r2, #0
  40387e:	e004      	b.n	40388a <pmc_mck_set_division+0x1e>
			break;
		case 2:
			ul_div = PMC_MCKR_MDIV_PCK_DIV2;
			break;
		case 3:
			ul_div = PMC_MCKR_MDIV_PCK_DIV3;
  403880:	f44f 7240 	mov.w	r2, #768	; 0x300
			break;
  403884:	e001      	b.n	40388a <pmc_mck_set_division+0x1e>
		case 4:
			ul_div = PMC_MCKR_MDIV_PCK_DIV4;
  403886:	f44f 7200 	mov.w	r2, #512	; 0x200
		default:
			ul_div = PMC_MCKR_MDIV_EQ_PCK;
			break;
	}
	PMC->PMC_MCKR =
			(PMC->PMC_MCKR & (~PMC_MCKR_MDIV_Msk)) | ul_div;
  40388a:	4906      	ldr	r1, [pc, #24]	; (4038a4 <pmc_mck_set_division+0x38>)
  40388c:	6b0b      	ldr	r3, [r1, #48]	; 0x30
  40388e:	f423 7340 	bic.w	r3, r3, #768	; 0x300
  403892:	4313      	orrs	r3, r2
			break;
		default:
			ul_div = PMC_MCKR_MDIV_EQ_PCK;
			break;
	}
	PMC->PMC_MCKR =
  403894:	630b      	str	r3, [r1, #48]	; 0x30
			(PMC->PMC_MCKR & (~PMC_MCKR_MDIV_Msk)) | ul_div;
	while (!(PMC->PMC_SR & PMC_SR_MCKRDY));
  403896:	460a      	mov	r2, r1
  403898:	6e93      	ldr	r3, [r2, #104]	; 0x68
  40389a:	f013 0f08 	tst.w	r3, #8
  40389e:	d0fb      	beq.n	403898 <pmc_mck_set_division+0x2c>
}
  4038a0:	4770      	bx	lr
  4038a2:	bf00      	nop
  4038a4:	400e0600 	.word	0x400e0600

004038a8 <pmc_switch_mck_to_pllack>:
 */
uint32_t pmc_switch_mck_to_pllack(uint32_t ul_pres)
{
	uint32_t ul_timeout;

	PMC->PMC_MCKR = (PMC->PMC_MCKR & (~PMC_MCKR_PRES_Msk)) | ul_pres;
  4038a8:	4a18      	ldr	r2, [pc, #96]	; (40390c <pmc_switch_mck_to_pllack+0x64>)
  4038aa:	6b13      	ldr	r3, [r2, #48]	; 0x30
  4038ac:	f023 0370 	bic.w	r3, r3, #112	; 0x70
  4038b0:	4318      	orrs	r0, r3
  4038b2:	6310      	str	r0, [r2, #48]	; 0x30
	for (ul_timeout = PMC_TIMEOUT; !(PMC->PMC_SR & PMC_SR_MCKRDY);
  4038b4:	6e93      	ldr	r3, [r2, #104]	; 0x68
  4038b6:	f013 0f08 	tst.w	r3, #8
  4038ba:	d003      	beq.n	4038c4 <pmc_switch_mck_to_pllack+0x1c>
  4038bc:	e009      	b.n	4038d2 <pmc_switch_mck_to_pllack+0x2a>
			--ul_timeout) {
		if (ul_timeout == 0) {
  4038be:	3b01      	subs	r3, #1
  4038c0:	d103      	bne.n	4038ca <pmc_switch_mck_to_pllack+0x22>
  4038c2:	e01e      	b.n	403902 <pmc_switch_mck_to_pllack+0x5a>
uint32_t pmc_switch_mck_to_pllack(uint32_t ul_pres)
{
	uint32_t ul_timeout;

	PMC->PMC_MCKR = (PMC->PMC_MCKR & (~PMC_MCKR_PRES_Msk)) | ul_pres;
	for (ul_timeout = PMC_TIMEOUT; !(PMC->PMC_SR & PMC_SR_MCKRDY);
  4038c4:	f44f 5380 	mov.w	r3, #4096	; 0x1000
  4038c8:	4910      	ldr	r1, [pc, #64]	; (40390c <pmc_switch_mck_to_pllack+0x64>)
  4038ca:	6e8a      	ldr	r2, [r1, #104]	; 0x68
  4038cc:	f012 0f08 	tst.w	r2, #8
  4038d0:	d0f5      	beq.n	4038be <pmc_switch_mck_to_pllack+0x16>
		if (ul_timeout == 0) {
			return 1;
		}
	}

	PMC->PMC_MCKR = (PMC->PMC_MCKR & (~PMC_MCKR_CSS_Msk)) |
  4038d2:	4a0e      	ldr	r2, [pc, #56]	; (40390c <pmc_switch_mck_to_pllack+0x64>)
  4038d4:	6b13      	ldr	r3, [r2, #48]	; 0x30
  4038d6:	f023 0303 	bic.w	r3, r3, #3
  4038da:	f043 0302 	orr.w	r3, r3, #2
  4038de:	6313      	str	r3, [r2, #48]	; 0x30
			PMC_MCKR_CSS_PLLA_CLK;

	for (ul_timeout = PMC_TIMEOUT; !(PMC->PMC_SR & PMC_SR_MCKRDY);
  4038e0:	6e90      	ldr	r0, [r2, #104]	; 0x68
  4038e2:	f010 0008 	ands.w	r0, r0, #8
  4038e6:	d004      	beq.n	4038f2 <pmc_switch_mck_to_pllack+0x4a>
		if (ul_timeout == 0) {
			return 1;
		}
	}

	return 0;
  4038e8:	2000      	movs	r0, #0
  4038ea:	4770      	bx	lr
	PMC->PMC_MCKR = (PMC->PMC_MCKR & (~PMC_MCKR_CSS_Msk)) |
			PMC_MCKR_CSS_PLLA_CLK;

	for (ul_timeout = PMC_TIMEOUT; !(PMC->PMC_SR & PMC_SR_MCKRDY);
			--ul_timeout) {
		if (ul_timeout == 0) {
  4038ec:	3b01      	subs	r3, #1
  4038ee:	d103      	bne.n	4038f8 <pmc_switch_mck_to_pllack+0x50>
  4038f0:	e009      	b.n	403906 <pmc_switch_mck_to_pllack+0x5e>
	}

	PMC->PMC_MCKR = (PMC->PMC_MCKR & (~PMC_MCKR_CSS_Msk)) |
			PMC_MCKR_CSS_PLLA_CLK;

	for (ul_timeout = PMC_TIMEOUT; !(PMC->PMC_SR & PMC_SR_MCKRDY);
  4038f2:	f44f 5380 	mov.w	r3, #4096	; 0x1000
  4038f6:	4905      	ldr	r1, [pc, #20]	; (40390c <pmc_switch_mck_to_pllack+0x64>)
  4038f8:	6e8a      	ldr	r2, [r1, #104]	; 0x68
  4038fa:	f012 0f08 	tst.w	r2, #8
  4038fe:	d0f5      	beq.n	4038ec <pmc_switch_mck_to_pllack+0x44>
  403900:	4770      	bx	lr

	PMC->PMC_MCKR = (PMC->PMC_MCKR & (~PMC_MCKR_PRES_Msk)) | ul_pres;
	for (ul_timeout = PMC_TIMEOUT; !(PMC->PMC_SR & PMC_SR_MCKRDY);
			--ul_timeout) {
		if (ul_timeout == 0) {
			return 1;
  403902:	2001      	movs	r0, #1
  403904:	4770      	bx	lr
			PMC_MCKR_CSS_PLLA_CLK;

	for (ul_timeout = PMC_TIMEOUT; !(PMC->PMC_SR & PMC_SR_MCKRDY);
			--ul_timeout) {
		if (ul_timeout == 0) {
			return 1;
  403906:	2001      	movs	r0, #1
		}
	}

	return 0;
}
  403908:	4770      	bx	lr
  40390a:	bf00      	nop
  40390c:	400e0600 	.word	0x400e0600

00403910 <pmc_switch_mainck_to_xtal>:
 */
void pmc_switch_mainck_to_xtal(uint32_t ul_bypass,
		uint32_t ul_xtal_startup_time)
{
	/* Enable Main Xtal oscillator */
	if (ul_bypass) {
  403910:	b138      	cbz	r0, 403922 <pmc_switch_mainck_to_xtal+0x12>
		PMC->CKGR_MOR = (PMC->CKGR_MOR & ~CKGR_MOR_MOSCXTEN) |
  403912:	490e      	ldr	r1, [pc, #56]	; (40394c <pmc_switch_mainck_to_xtal+0x3c>)
  403914:	6a0b      	ldr	r3, [r1, #32]
				CKGR_MOR_KEY_PASSWD | CKGR_MOR_MOSCXTBY |
  403916:	4a0e      	ldr	r2, [pc, #56]	; (403950 <pmc_switch_mainck_to_xtal+0x40>)
  403918:	401a      	ands	r2, r3
  40391a:	4b0e      	ldr	r3, [pc, #56]	; (403954 <pmc_switch_mainck_to_xtal+0x44>)
  40391c:	4313      	orrs	r3, r2
void pmc_switch_mainck_to_xtal(uint32_t ul_bypass,
		uint32_t ul_xtal_startup_time)
{
	/* Enable Main Xtal oscillator */
	if (ul_bypass) {
		PMC->CKGR_MOR = (PMC->CKGR_MOR & ~CKGR_MOR_MOSCXTEN) |
  40391e:	620b      	str	r3, [r1, #32]
  403920:	4770      	bx	lr
				CKGR_MOR_KEY_PASSWD | CKGR_MOR_MOSCXTBY |
				CKGR_MOR_MOSCSEL;
	} else {
		PMC->CKGR_MOR = (PMC->CKGR_MOR & ~CKGR_MOR_MOSCXTBY) |
  403922:	480a      	ldr	r0, [pc, #40]	; (40394c <pmc_switch_mainck_to_xtal+0x3c>)
  403924:	6a03      	ldr	r3, [r0, #32]
				CKGR_MOR_KEY_PASSWD | CKGR_MOR_MOSCXTEN |
  403926:	0209      	lsls	r1, r1, #8
  403928:	b289      	uxth	r1, r1
  40392a:	4a0b      	ldr	r2, [pc, #44]	; (403958 <pmc_switch_mainck_to_xtal+0x48>)
  40392c:	401a      	ands	r2, r3
  40392e:	4b0b      	ldr	r3, [pc, #44]	; (40395c <pmc_switch_mainck_to_xtal+0x4c>)
  403930:	4313      	orrs	r3, r2
  403932:	4319      	orrs	r1, r3
	if (ul_bypass) {
		PMC->CKGR_MOR = (PMC->CKGR_MOR & ~CKGR_MOR_MOSCXTEN) |
				CKGR_MOR_KEY_PASSWD | CKGR_MOR_MOSCXTBY |
				CKGR_MOR_MOSCSEL;
	} else {
		PMC->CKGR_MOR = (PMC->CKGR_MOR & ~CKGR_MOR_MOSCXTBY) |
  403934:	6201      	str	r1, [r0, #32]
				CKGR_MOR_KEY_PASSWD | CKGR_MOR_MOSCXTEN |
				CKGR_MOR_MOSCXTST(ul_xtal_startup_time);
		/* Wait the Xtal to stabilize */
		while (!(PMC->PMC_SR & PMC_SR_MOSCXTS));
  403936:	4602      	mov	r2, r0
  403938:	6e93      	ldr	r3, [r2, #104]	; 0x68
  40393a:	f013 0f01 	tst.w	r3, #1
  40393e:	d0fb      	beq.n	403938 <pmc_switch_mainck_to_xtal+0x28>

		PMC->CKGR_MOR |= CKGR_MOR_KEY_PASSWD | CKGR_MOR_MOSCSEL;
  403940:	4a02      	ldr	r2, [pc, #8]	; (40394c <pmc_switch_mainck_to_xtal+0x3c>)
  403942:	6a11      	ldr	r1, [r2, #32]
  403944:	4b06      	ldr	r3, [pc, #24]	; (403960 <pmc_switch_mainck_to_xtal+0x50>)
  403946:	430b      	orrs	r3, r1
  403948:	6213      	str	r3, [r2, #32]
  40394a:	4770      	bx	lr
  40394c:	400e0600 	.word	0x400e0600
  403950:	fec8fffc 	.word	0xfec8fffc
  403954:	01370002 	.word	0x01370002
  403958:	ffc8fffc 	.word	0xffc8fffc
  40395c:	00370001 	.word	0x00370001
  403960:	01370000 	.word	0x01370000

00403964 <pmc_osc_is_ready_mainck>:
 * \retval 1 Xtal is ready.
 * \retval 0 Xtal is not ready.
 */
uint32_t pmc_osc_is_ready_mainck(void)
{
	return PMC->PMC_SR & PMC_SR_MOSCSELS;
  403964:	4b02      	ldr	r3, [pc, #8]	; (403970 <pmc_osc_is_ready_mainck+0xc>)
  403966:	6e98      	ldr	r0, [r3, #104]	; 0x68
}
  403968:	f400 3080 	and.w	r0, r0, #65536	; 0x10000
  40396c:	4770      	bx	lr
  40396e:	bf00      	nop
  403970:	400e0600 	.word	0x400e0600

00403974 <pmc_disable_pllack>:
void pmc_disable_pllack(void)
{
#if (SAM4C || SAM4CM || SAM4CP || SAMG)
	PMC->CKGR_PLLAR = CKGR_PLLAR_MULA(0);
#else
	PMC->CKGR_PLLAR = CKGR_PLLAR_ONE | CKGR_PLLAR_MULA(0);
  403974:	f04f 5200 	mov.w	r2, #536870912	; 0x20000000
  403978:	4b01      	ldr	r3, [pc, #4]	; (403980 <pmc_disable_pllack+0xc>)
  40397a:	629a      	str	r2, [r3, #40]	; 0x28
  40397c:	4770      	bx	lr
  40397e:	bf00      	nop
  403980:	400e0600 	.word	0x400e0600

00403984 <pmc_is_locked_pllack>:
 * \retval 0 Not locked.
 * \retval 1 Locked.
 */
uint32_t pmc_is_locked_pllack(void)
{
	return (PMC->PMC_SR & PMC_SR_LOCKA);
  403984:	4b02      	ldr	r3, [pc, #8]	; (403990 <pmc_is_locked_pllack+0xc>)
  403986:	6e98      	ldr	r0, [r3, #104]	; 0x68
}
  403988:	f000 0002 	and.w	r0, r0, #2
  40398c:	4770      	bx	lr
  40398e:	bf00      	nop
  403990:	400e0600 	.word	0x400e0600

00403994 <pmc_enable_periph_clk>:
 * \retval 0 Success.
 * \retval 1 Invalid parameter.
 */
uint32_t pmc_enable_periph_clk(uint32_t ul_id)
{
	if (ul_id > MAX_PERIPH_ID) {
  403994:	283f      	cmp	r0, #63	; 0x3f
  403996:	d81e      	bhi.n	4039d6 <pmc_enable_periph_clk+0x42>
		return 1;
	}

	if (ul_id < 32) {
  403998:	281f      	cmp	r0, #31
  40399a:	d80c      	bhi.n	4039b6 <pmc_enable_periph_clk+0x22>
		if ((PMC->PMC_PCSR0 & (1u << ul_id)) != (1u << ul_id)) {
  40399c:	4b11      	ldr	r3, [pc, #68]	; (4039e4 <pmc_enable_periph_clk+0x50>)
  40399e:	699a      	ldr	r2, [r3, #24]
  4039a0:	2301      	movs	r3, #1
  4039a2:	4083      	lsls	r3, r0
  4039a4:	4393      	bics	r3, r2
  4039a6:	d018      	beq.n	4039da <pmc_enable_periph_clk+0x46>
			PMC->PMC_PCER0 = 1 << ul_id;
  4039a8:	2301      	movs	r3, #1
  4039aa:	fa03 f000 	lsl.w	r0, r3, r0
  4039ae:	4b0d      	ldr	r3, [pc, #52]	; (4039e4 <pmc_enable_periph_clk+0x50>)
  4039b0:	6118      	str	r0, [r3, #16]
			PMC->PMC_PCER1 = 1 << ul_id;
		}
#endif
	}

	return 0;
  4039b2:	2000      	movs	r0, #0
  4039b4:	4770      	bx	lr
		if ((PMC->PMC_PCSR0 & (1u << ul_id)) != (1u << ul_id)) {
			PMC->PMC_PCER0 = 1 << ul_id;
		}
#if (SAM3S || SAM3XA || SAM4S || SAM4E || SAM4C || SAM4CM || SAM4CP || SAMG55 || SAMV71 || SAMV70 || SAME70 || SAMS70)
	} else {
		ul_id -= 32;
  4039b6:	3820      	subs	r0, #32
		if ((PMC->PMC_PCSR1 & (1u << ul_id)) != (1u << ul_id)) {
  4039b8:	4b0a      	ldr	r3, [pc, #40]	; (4039e4 <pmc_enable_periph_clk+0x50>)
  4039ba:	f8d3 2108 	ldr.w	r2, [r3, #264]	; 0x108
  4039be:	2301      	movs	r3, #1
  4039c0:	4083      	lsls	r3, r0
  4039c2:	4393      	bics	r3, r2
  4039c4:	d00b      	beq.n	4039de <pmc_enable_periph_clk+0x4a>
			PMC->PMC_PCER1 = 1 << ul_id;
  4039c6:	2301      	movs	r3, #1
  4039c8:	fa03 f000 	lsl.w	r0, r3, r0
  4039cc:	4b05      	ldr	r3, [pc, #20]	; (4039e4 <pmc_enable_periph_clk+0x50>)
  4039ce:	f8c3 0100 	str.w	r0, [r3, #256]	; 0x100
		}
#endif
	}

	return 0;
  4039d2:	2000      	movs	r0, #0
  4039d4:	4770      	bx	lr
 * \retval 1 Invalid parameter.
 */
uint32_t pmc_enable_periph_clk(uint32_t ul_id)
{
	if (ul_id > MAX_PERIPH_ID) {
		return 1;
  4039d6:	2001      	movs	r0, #1
  4039d8:	4770      	bx	lr
			PMC->PMC_PCER1 = 1 << ul_id;
		}
#endif
	}

	return 0;
  4039da:	2000      	movs	r0, #0
  4039dc:	4770      	bx	lr
  4039de:	2000      	movs	r0, #0
}
  4039e0:	4770      	bx	lr
  4039e2:	bf00      	nop
  4039e4:	400e0600 	.word	0x400e0600

004039e8 <spi_enable_clock>:
 * \brief Enable SPI clock.
 *
 * \param p_spi Pointer to an SPI instance.
 */
void spi_enable_clock(Spi *p_spi)
{
  4039e8:	b508      	push	{r3, lr}
#if (SAM4S || SAM3S || SAM3N || SAM3U || SAM4E || SAM4N || SAMG51|| SAMG53|| SAMG54)
	UNUSED(p_spi);
	sysclk_enable_peripheral_clock(ID_SPI);
#elif (SAM3XA || SAM4C || SAM4CP || SAM4CM || SAMV71 || SAMV70 || SAME70 || SAMS70)
	if (p_spi == SPI0) {
  4039ea:	4b07      	ldr	r3, [pc, #28]	; (403a08 <spi_enable_clock+0x20>)
  4039ec:	4298      	cmp	r0, r3
  4039ee:	d103      	bne.n	4039f8 <spi_enable_clock+0x10>
  4039f0:	2015      	movs	r0, #21
  4039f2:	4b06      	ldr	r3, [pc, #24]	; (403a0c <spi_enable_clock+0x24>)
  4039f4:	4798      	blx	r3
  4039f6:	bd08      	pop	{r3, pc}
		sysclk_enable_peripheral_clock(ID_SPI0);
	}
	#ifdef SPI1
	else if (p_spi == SPI1) {
  4039f8:	4b05      	ldr	r3, [pc, #20]	; (403a10 <spi_enable_clock+0x28>)
  4039fa:	4298      	cmp	r0, r3
  4039fc:	d102      	bne.n	403a04 <spi_enable_clock+0x1c>
  4039fe:	202a      	movs	r0, #42	; 0x2a
  403a00:	4b02      	ldr	r3, [pc, #8]	; (403a0c <spi_enable_clock+0x24>)
  403a02:	4798      	blx	r3
  403a04:	bd08      	pop	{r3, pc}
  403a06:	bf00      	nop
  403a08:	40008000 	.word	0x40008000
  403a0c:	00403995 	.word	0x00403995
  403a10:	40058000 	.word	0x40058000

00403a14 <spi_set_peripheral_chip_select_value>:
 *                 \ref spi_enable_peripheral_select_decode,
 *                 \ref spi_disable_peripheral_select_decode.
 */
void spi_set_peripheral_chip_select_value(Spi *p_spi, uint32_t ul_value)
{
	p_spi->SPI_MR &= (~SPI_MR_PCS_Msk);
  403a14:	6843      	ldr	r3, [r0, #4]
  403a16:	f423 2370 	bic.w	r3, r3, #983040	; 0xf0000
  403a1a:	6043      	str	r3, [r0, #4]
	p_spi->SPI_MR |= SPI_MR_PCS(ul_value);
  403a1c:	6843      	ldr	r3, [r0, #4]
  403a1e:	0409      	lsls	r1, r1, #16
  403a20:	f401 2170 	and.w	r1, r1, #983040	; 0xf0000
  403a24:	430b      	orrs	r3, r1
  403a26:	6043      	str	r3, [r0, #4]
  403a28:	4770      	bx	lr
  403a2a:	bf00      	nop

00403a2c <spi_read>:
 *
 * \retval SPI_OK on Success.
 * \retval SPI_ERROR_TIMEOUT on Time-out.
 */
spi_status_t spi_read(Spi *p_spi, uint16_t *us_data, uint8_t *p_pcs)
{
  403a2c:	b410      	push	{r4}
	uint32_t timeout = SPI_TIMEOUT;
	static uint32_t reg_value;

	while (!(p_spi->SPI_SR & SPI_SR_RDRF)) {
  403a2e:	f643 2399 	movw	r3, #15001	; 0x3a99
  403a32:	e001      	b.n	403a38 <spi_read+0xc>
		if (!timeout--) {
  403a34:	3b01      	subs	r3, #1
  403a36:	d00e      	beq.n	403a56 <spi_read+0x2a>
spi_status_t spi_read(Spi *p_spi, uint16_t *us_data, uint8_t *p_pcs)
{
	uint32_t timeout = SPI_TIMEOUT;
	static uint32_t reg_value;

	while (!(p_spi->SPI_SR & SPI_SR_RDRF)) {
  403a38:	6904      	ldr	r4, [r0, #16]
  403a3a:	f014 0f01 	tst.w	r4, #1
  403a3e:	d0f9      	beq.n	403a34 <spi_read+0x8>
		if (!timeout--) {
			return SPI_ERROR_TIMEOUT;
		}
	}

	reg_value = p_spi->SPI_RDR;
  403a40:	6883      	ldr	r3, [r0, #8]
 *
 * \return 1 for Variable mode, 0 for fixed mode.
 */
static inline uint32_t spi_get_peripheral_select_mode(Spi *p_spi)
{
	if (p_spi->SPI_MR & SPI_MR_PS) {
  403a42:	6840      	ldr	r0, [r0, #4]
	if (spi_get_peripheral_select_mode(p_spi)) {
  403a44:	f010 0f02 	tst.w	r0, #2
  403a48:	d002      	beq.n	403a50 <spi_read+0x24>
		*p_pcs = (uint8_t) ((reg_value & SPI_RDR_PCS_Msk) >> SPI_RDR_PCS_Pos);
  403a4a:	f3c3 4003 	ubfx	r0, r3, #16, #4
  403a4e:	7010      	strb	r0, [r2, #0]
	}
	*us_data = (uint16_t) (reg_value & SPI_RDR_RD_Msk);
  403a50:	800b      	strh	r3, [r1, #0]

	return SPI_OK;
  403a52:	2000      	movs	r0, #0
  403a54:	e000      	b.n	403a58 <spi_read+0x2c>
	uint32_t timeout = SPI_TIMEOUT;
	static uint32_t reg_value;

	while (!(p_spi->SPI_SR & SPI_SR_RDRF)) {
		if (!timeout--) {
			return SPI_ERROR_TIMEOUT;
  403a56:	2001      	movs	r0, #1
		*p_pcs = (uint8_t) ((reg_value & SPI_RDR_PCS_Msk) >> SPI_RDR_PCS_Pos);
	}
	*us_data = (uint16_t) (reg_value & SPI_RDR_RD_Msk);

	return SPI_OK;
}
  403a58:	f85d 4b04 	ldr.w	r4, [sp], #4
  403a5c:	4770      	bx	lr
  403a5e:	bf00      	nop

00403a60 <spi_write>:
 * \retval SPI_OK on Success.
 * \retval SPI_ERROR_TIMEOUT on Time-out.
 */
spi_status_t spi_write(Spi *p_spi, uint16_t us_data,
		uint8_t uc_pcs, uint8_t uc_last)
{
  403a60:	b430      	push	{r4, r5}
	uint32_t timeout = SPI_TIMEOUT;
	uint32_t value;

	while (!(p_spi->SPI_SR & SPI_SR_TDRE)) {
  403a62:	f643 2499 	movw	r4, #15001	; 0x3a99
  403a66:	e001      	b.n	403a6c <spi_write+0xc>
		if (!timeout--) {
  403a68:	3c01      	subs	r4, #1
  403a6a:	d011      	beq.n	403a90 <spi_write+0x30>
		uint8_t uc_pcs, uint8_t uc_last)
{
	uint32_t timeout = SPI_TIMEOUT;
	uint32_t value;

	while (!(p_spi->SPI_SR & SPI_SR_TDRE)) {
  403a6c:	6905      	ldr	r5, [r0, #16]
  403a6e:	f015 0f02 	tst.w	r5, #2
  403a72:	d0f9      	beq.n	403a68 <spi_write+0x8>
  403a74:	6844      	ldr	r4, [r0, #4]
		if (!timeout--) {
			return SPI_ERROR_TIMEOUT;
		}
	}

	if (spi_get_peripheral_select_mode(p_spi)) {
  403a76:	f014 0f02 	tst.w	r4, #2
  403a7a:	d006      	beq.n	403a8a <spi_write+0x2a>
		value = SPI_TDR_TD(us_data) | SPI_TDR_PCS(uc_pcs);
  403a7c:	0412      	lsls	r2, r2, #16
  403a7e:	f402 2270 	and.w	r2, r2, #983040	; 0xf0000
  403a82:	4311      	orrs	r1, r2
		if (uc_last) {
  403a84:	b10b      	cbz	r3, 403a8a <spi_write+0x2a>
			value |= SPI_TDR_LASTXFER;
  403a86:	f041 7180 	orr.w	r1, r1, #16777216	; 0x1000000
		}
	} else {
		value = SPI_TDR_TD(us_data);
	}

	p_spi->SPI_TDR = value;
  403a8a:	60c1      	str	r1, [r0, #12]

	return SPI_OK;
  403a8c:	2000      	movs	r0, #0
  403a8e:	e000      	b.n	403a92 <spi_write+0x32>
	uint32_t timeout = SPI_TIMEOUT;
	uint32_t value;

	while (!(p_spi->SPI_SR & SPI_SR_TDRE)) {
		if (!timeout--) {
			return SPI_ERROR_TIMEOUT;
  403a90:	2001      	movs	r0, #1
	}

	p_spi->SPI_TDR = value;

	return SPI_OK;
}
  403a92:	bc30      	pop	{r4, r5}
  403a94:	4770      	bx	lr
  403a96:	bf00      	nop

00403a98 <spi_set_clock_polarity>:
 * \param ul_polarity Default clock state is logical one(high)/zero(low).
 */
void spi_set_clock_polarity(Spi *p_spi, uint32_t ul_pcs_ch,
		uint32_t ul_polarity)
{
	if (ul_polarity) {
  403a98:	b132      	cbz	r2, 403aa8 <spi_set_clock_polarity+0x10>
  403a9a:	eb00 0081 	add.w	r0, r0, r1, lsl #2
		p_spi->SPI_CSR[ul_pcs_ch] |= SPI_CSR_CPOL;
  403a9e:	6b03      	ldr	r3, [r0, #48]	; 0x30
  403aa0:	f043 0301 	orr.w	r3, r3, #1
  403aa4:	6303      	str	r3, [r0, #48]	; 0x30
  403aa6:	4770      	bx	lr
  403aa8:	eb00 0081 	add.w	r0, r0, r1, lsl #2
	} else {
		p_spi->SPI_CSR[ul_pcs_ch] &= (~SPI_CSR_CPOL);
  403aac:	6b03      	ldr	r3, [r0, #48]	; 0x30
  403aae:	f023 0301 	bic.w	r3, r3, #1
  403ab2:	6303      	str	r3, [r0, #48]	; 0x30
  403ab4:	4770      	bx	lr
  403ab6:	bf00      	nop

00403ab8 <spi_set_clock_phase>:
 *  \param ul_pcs_ch Peripheral Chip Select channel (0~3).
 *  \param ul_phase Data capture on the rising/falling edge of clock.
 */
void spi_set_clock_phase(Spi *p_spi, uint32_t ul_pcs_ch, uint32_t ul_phase)
{
	if (ul_phase) {
  403ab8:	b132      	cbz	r2, 403ac8 <spi_set_clock_phase+0x10>
  403aba:	eb00 0081 	add.w	r0, r0, r1, lsl #2
		p_spi->SPI_CSR[ul_pcs_ch] |= SPI_CSR_NCPHA;
  403abe:	6b03      	ldr	r3, [r0, #48]	; 0x30
  403ac0:	f043 0302 	orr.w	r3, r3, #2
  403ac4:	6303      	str	r3, [r0, #48]	; 0x30
  403ac6:	4770      	bx	lr
  403ac8:	eb00 0081 	add.w	r0, r0, r1, lsl #2
	} else {
		p_spi->SPI_CSR[ul_pcs_ch] &= (~SPI_CSR_NCPHA);
  403acc:	6b03      	ldr	r3, [r0, #48]	; 0x30
  403ace:	f023 0302 	bic.w	r3, r3, #2
  403ad2:	6303      	str	r3, [r0, #48]	; 0x30
  403ad4:	4770      	bx	lr
  403ad6:	bf00      	nop

00403ad8 <spi_set_bits_per_transfer>:
 * \param ul_bits Number of bits (8~16), use the pattern defined
 *        in the device header file.
 */
void spi_set_bits_per_transfer(Spi *p_spi, uint32_t ul_pcs_ch,
		uint32_t ul_bits)
{
  403ad8:	eb00 0181 	add.w	r1, r0, r1, lsl #2
	p_spi->SPI_CSR[ul_pcs_ch] &= (~SPI_CSR_BITS_Msk);
  403adc:	6b0b      	ldr	r3, [r1, #48]	; 0x30
  403ade:	f023 03f0 	bic.w	r3, r3, #240	; 0xf0
  403ae2:	630b      	str	r3, [r1, #48]	; 0x30
	p_spi->SPI_CSR[ul_pcs_ch] |= ul_bits;
  403ae4:	6b0b      	ldr	r3, [r1, #48]	; 0x30
  403ae6:	431a      	orrs	r2, r3
  403ae8:	630a      	str	r2, [r1, #48]	; 0x30
  403aea:	4770      	bx	lr

00403aec <spi_calc_baudrate_div>:
 *   \retval > 0  Success.
 *   \retval < 0  Error.
 */
int16_t spi_calc_baudrate_div(const uint32_t baudrate, uint32_t mck)
{
	int baud_div = div_ceil(mck, baudrate);
  403aec:	1e43      	subs	r3, r0, #1
  403aee:	4419      	add	r1, r3
  403af0:	fbb1 f0f0 	udiv	r0, r1, r0

	/* The value of baud_div is from 1 to 255 in the SCBR field. */
	if (baud_div <= 0 || baud_div > 255) {
  403af4:	1e43      	subs	r3, r0, #1
  403af6:	2bfe      	cmp	r3, #254	; 0xfe
		return -1;
	}

	return baud_div;
  403af8:	bf94      	ite	ls
  403afa:	b200      	sxthls	r0, r0
{
	int baud_div = div_ceil(mck, baudrate);

	/* The value of baud_div is from 1 to 255 in the SCBR field. */
	if (baud_div <= 0 || baud_div > 255) {
		return -1;
  403afc:	f04f 30ff 	movhi.w	r0, #4294967295
	}

	return baud_div;
}
  403b00:	4770      	bx	lr
  403b02:	bf00      	nop

00403b04 <spi_set_baudrate_div>:
 */
int16_t spi_set_baudrate_div(Spi *p_spi, uint32_t ul_pcs_ch,
		uint8_t uc_baudrate_divider)
{
    /* Programming the SCBR field to 0 is forbidden */
    if (!uc_baudrate_divider)
  403b04:	b16a      	cbz	r2, 403b22 <spi_set_baudrate_div+0x1e>
 * \retval is 0 Success.
 * \retval is -1 Error.
 */
int16_t spi_set_baudrate_div(Spi *p_spi, uint32_t ul_pcs_ch,
		uint8_t uc_baudrate_divider)
{
  403b06:	b410      	push	{r4}
  403b08:	4614      	mov	r4, r2
  403b0a:	eb00 0181 	add.w	r1, r0, r1, lsl #2
    /* Programming the SCBR field to 0 is forbidden */
    if (!uc_baudrate_divider)
        return -1;

	p_spi->SPI_CSR[ul_pcs_ch] &= (~SPI_CSR_SCBR_Msk);
  403b0e:	6b0b      	ldr	r3, [r1, #48]	; 0x30
  403b10:	f423 437f 	bic.w	r3, r3, #65280	; 0xff00
  403b14:	630b      	str	r3, [r1, #48]	; 0x30
	p_spi->SPI_CSR[ul_pcs_ch] |= SPI_CSR_SCBR(uc_baudrate_divider);
  403b16:	6b0a      	ldr	r2, [r1, #48]	; 0x30
  403b18:	ea42 2204 	orr.w	r2, r2, r4, lsl #8
  403b1c:	630a      	str	r2, [r1, #48]	; 0x30
    return 0;
  403b1e:	2000      	movs	r0, #0
  403b20:	e002      	b.n	403b28 <spi_set_baudrate_div+0x24>
int16_t spi_set_baudrate_div(Spi *p_spi, uint32_t ul_pcs_ch,
		uint8_t uc_baudrate_divider)
{
    /* Programming the SCBR field to 0 is forbidden */
    if (!uc_baudrate_divider)
        return -1;
  403b22:	f04f 30ff 	mov.w	r0, #4294967295
  403b26:	4770      	bx	lr

	p_spi->SPI_CSR[ul_pcs_ch] &= (~SPI_CSR_SCBR_Msk);
	p_spi->SPI_CSR[ul_pcs_ch] |= SPI_CSR_SCBR(uc_baudrate_divider);
    return 0;
}
  403b28:	f85d 4b04 	ldr.w	r4, [sp], #4
  403b2c:	4770      	bx	lr
  403b2e:	bf00      	nop

00403b30 <spi_set_transfer_delay>:
 * \param uc_dlybs Delay before SPCK (in number of MCK clocks).
 * \param uc_dlybct Delay between consecutive transfers (in number of MCK clocks).
 */
void spi_set_transfer_delay(Spi *p_spi, uint32_t ul_pcs_ch,
		uint8_t uc_dlybs, uint8_t uc_dlybct)
{
  403b30:	b410      	push	{r4}
  403b32:	eb00 0181 	add.w	r1, r0, r1, lsl #2
	p_spi->SPI_CSR[ul_pcs_ch] &= ~(SPI_CSR_DLYBS_Msk | SPI_CSR_DLYBCT_Msk);
  403b36:	6b08      	ldr	r0, [r1, #48]	; 0x30
  403b38:	b280      	uxth	r0, r0
  403b3a:	6308      	str	r0, [r1, #48]	; 0x30
	p_spi->SPI_CSR[ul_pcs_ch] |= SPI_CSR_DLYBS(uc_dlybs)
  403b3c:	6b0c      	ldr	r4, [r1, #48]	; 0x30
  403b3e:	ea44 6303 	orr.w	r3, r4, r3, lsl #24
  403b42:	ea43 4202 	orr.w	r2, r3, r2, lsl #16
  403b46:	630a      	str	r2, [r1, #48]	; 0x30
			| SPI_CSR_DLYBCT(uc_dlybct);
}
  403b48:	f85d 4b04 	ldr.w	r4, [sp], #4
  403b4c:	4770      	bx	lr
  403b4e:	bf00      	nop

00403b50 <uart_write>:
 * \retval 1 I/O Failure, UART is not ready.
 */
uint32_t uart_write(Uart *p_uart, const uint8_t uc_data)
{
	/* Check if the transmitter is ready */
	if (!(p_uart->UART_SR & UART_SR_TXRDY))
  403b50:	6943      	ldr	r3, [r0, #20]
  403b52:	f013 0f02 	tst.w	r3, #2
  403b56:	d002      	beq.n	403b5e <uart_write+0xe>
		return 1;

	/* Send character */
	p_uart->UART_THR = uc_data;
  403b58:	61c1      	str	r1, [r0, #28]
	return 0;
  403b5a:	2000      	movs	r0, #0
  403b5c:	4770      	bx	lr
 */
uint32_t uart_write(Uart *p_uart, const uint8_t uc_data)
{
	/* Check if the transmitter is ready */
	if (!(p_uart->UART_SR & UART_SR_TXRDY))
		return 1;
  403b5e:	2001      	movs	r0, #1

	/* Send character */
	p_uart->UART_THR = uc_data;
	return 0;
}
  403b60:	4770      	bx	lr
  403b62:	bf00      	nop

00403b64 <uart_read>:
 * \retval 1 I/O Failure, UART is not ready.
 */
uint32_t uart_read(Uart *p_uart, uint8_t *puc_data)
{
	/* Check if the receiver is ready */
	if ((p_uart->UART_SR & UART_SR_RXRDY) == 0)
  403b64:	6943      	ldr	r3, [r0, #20]
  403b66:	f013 0f01 	tst.w	r3, #1
  403b6a:	d003      	beq.n	403b74 <uart_read+0x10>
		return 1;

	/* Read character */
	*puc_data = (uint8_t) p_uart->UART_RHR;
  403b6c:	6983      	ldr	r3, [r0, #24]
  403b6e:	700b      	strb	r3, [r1, #0]
	return 0;
  403b70:	2000      	movs	r0, #0
  403b72:	4770      	bx	lr
 */
uint32_t uart_read(Uart *p_uart, uint8_t *puc_data)
{
	/* Check if the receiver is ready */
	if ((p_uart->UART_SR & UART_SR_RXRDY) == 0)
		return 1;
  403b74:	2001      	movs	r0, #1

	/* Read character */
	*puc_data = (uint8_t) p_uart->UART_RHR;
	return 0;
}
  403b76:	4770      	bx	lr

00403b78 <usart_set_async_baudrate>:
 * \retval 1 Baud rate set point is out of range for the given input clock
 * frequency.
 */
uint32_t usart_set_async_baudrate(Usart *p_usart,
		uint32_t baudrate, uint32_t ul_mck)
{
  403b78:	b410      	push	{r4}
	uint32_t cd_fp;
	uint32_t cd;
	uint32_t fp;

	/* Calculate the receiver sampling divide of baudrate clock. */
	if (ul_mck >= HIGH_FRQ_SAMPLE_DIV * baudrate) {
  403b7a:	010c      	lsls	r4, r1, #4
  403b7c:	4294      	cmp	r4, r2
  403b7e:	d90f      	bls.n	403ba0 <usart_set_async_baudrate+0x28>
  403b80:	e01a      	b.n	403bb8 <usart_set_async_baudrate+0x40>
		return 1;
	}

	/* Configure the OVER bit in MR register. */
	if (over == 8) {
		p_usart->US_MR |= US_MR_OVER;
  403b82:	6841      	ldr	r1, [r0, #4]
  403b84:	f441 2100 	orr.w	r1, r1, #524288	; 0x80000
  403b88:	6041      	str	r1, [r0, #4]
	}

	/* Configure the baudrate generate register. */
	p_usart->US_BRGR = (cd << US_BRGR_CD_Pos) | (fp << US_BRGR_FP_Pos);
  403b8a:	0412      	lsls	r2, r2, #16
  403b8c:	f402 22e0 	and.w	r2, r2, #458752	; 0x70000
  403b90:	431a      	orrs	r2, r3
  403b92:	6202      	str	r2, [r0, #32]

	return 0;
  403b94:	2000      	movs	r0, #0
  403b96:	e01c      	b.n	403bd2 <usart_set_async_baudrate+0x5a>
	/* Calculate clock divider according to the fraction calculated formula. */
	cd_fp = (8 * ul_mck + (over * baudrate) / 2) / (over * baudrate);
	cd = cd_fp >> 3;
	fp = cd_fp & 0x07;
	if (cd < MIN_CD_VALUE || cd > MAX_CD_VALUE) {
		return 1;
  403b98:	2001      	movs	r0, #1
  403b9a:	e01a      	b.n	403bd2 <usart_set_async_baudrate+0x5a>
  403b9c:	2001      	movs	r0, #1
  403b9e:	e018      	b.n	403bd2 <usart_set_async_baudrate+0x5a>
	} else {
		over = LOW_FRQ_SAMPLE_DIV;
	}

	/* Calculate clock divider according to the fraction calculated formula. */
	cd_fp = (8 * ul_mck + (over * baudrate) / 2) / (over * baudrate);
  403ba0:	0863      	lsrs	r3, r4, #1
  403ba2:	eb03 02c2 	add.w	r2, r3, r2, lsl #3
  403ba6:	fbb2 f2f4 	udiv	r2, r2, r4
	cd = cd_fp >> 3;
  403baa:	08d3      	lsrs	r3, r2, #3
	fp = cd_fp & 0x07;
	if (cd < MIN_CD_VALUE || cd > MAX_CD_VALUE) {
  403bac:	1e5c      	subs	r4, r3, #1
  403bae:	f64f 71fe 	movw	r1, #65534	; 0xfffe
  403bb2:	428c      	cmp	r4, r1
  403bb4:	d9e9      	bls.n	403b8a <usart_set_async_baudrate+0x12>
  403bb6:	e7ef      	b.n	403b98 <usart_set_async_baudrate+0x20>
	} else {
		over = LOW_FRQ_SAMPLE_DIV;
	}

	/* Calculate clock divider according to the fraction calculated formula. */
	cd_fp = (8 * ul_mck + (over * baudrate) / 2) / (over * baudrate);
  403bb8:	00c9      	lsls	r1, r1, #3
  403bba:	084b      	lsrs	r3, r1, #1
  403bbc:	eb03 02c2 	add.w	r2, r3, r2, lsl #3
  403bc0:	fbb2 f2f1 	udiv	r2, r2, r1
	cd = cd_fp >> 3;
  403bc4:	08d3      	lsrs	r3, r2, #3
	fp = cd_fp & 0x07;
	if (cd < MIN_CD_VALUE || cd > MAX_CD_VALUE) {
  403bc6:	1e5c      	subs	r4, r3, #1
  403bc8:	f64f 71fe 	movw	r1, #65534	; 0xfffe
  403bcc:	428c      	cmp	r4, r1
  403bce:	d8e5      	bhi.n	403b9c <usart_set_async_baudrate+0x24>
  403bd0:	e7d7      	b.n	403b82 <usart_set_async_baudrate+0xa>

	/* Configure the baudrate generate register. */
	p_usart->US_BRGR = (cd << US_BRGR_CD_Pos) | (fp << US_BRGR_FP_Pos);

	return 0;
}
  403bd2:	f85d 4b04 	ldr.w	r4, [sp], #4
  403bd6:	4770      	bx	lr

00403bd8 <usart_reset>:
 *
 * \param p_usart Pointer to a USART instance.
 */
void usart_disable_writeprotect(Usart *p_usart)
{
	p_usart->US_WPMR = US_WPMR_WPKEY_PASSWD;
  403bd8:	4b08      	ldr	r3, [pc, #32]	; (403bfc <usart_reset+0x24>)
  403bda:	f8c0 30e4 	str.w	r3, [r0, #228]	; 0xe4
{
	/* Disable the Write Protect. */
	usart_disable_writeprotect(p_usart);

	/* Reset registers that could cause unpredictable behavior after reset. */
	p_usart->US_MR = 0;
  403bde:	2300      	movs	r3, #0
  403be0:	6043      	str	r3, [r0, #4]
	p_usart->US_RTOR = 0;
  403be2:	6243      	str	r3, [r0, #36]	; 0x24
	p_usart->US_TTGR = 0;
  403be4:	6283      	str	r3, [r0, #40]	; 0x28
 * \param p_usart Pointer to a USART instance.
 */
void usart_reset_tx(Usart *p_usart)
{
	/* Reset transmitter */
	p_usart->US_CR = US_CR_RSTTX | US_CR_TXDIS;
  403be6:	2388      	movs	r3, #136	; 0x88
  403be8:	6003      	str	r3, [r0, #0]
 * \param p_usart Pointer to a USART instance.
 */
void usart_reset_rx(Usart *p_usart)
{
	/* Reset Receiver */
	p_usart->US_CR = US_CR_RSTRX | US_CR_RXDIS;
  403bea:	2324      	movs	r3, #36	; 0x24
  403bec:	6003      	str	r3, [r0, #0]
 *
 * \param p_usart Pointer to a USART instance.
 */
void usart_reset_status(Usart *p_usart)
{
	p_usart->US_CR = US_CR_RSTSTA;
  403bee:	f44f 7380 	mov.w	r3, #256	; 0x100
  403bf2:	6003      	str	r3, [r0, #0]
 *
 * \param p_usart Pointer to a USART instance.
 */
void usart_drive_RTS_pin_high(Usart *p_usart)
{
	p_usart->US_CR = US_CR_RTSDIS;
  403bf4:	f44f 2300 	mov.w	r3, #524288	; 0x80000
  403bf8:	6003      	str	r3, [r0, #0]
  403bfa:	4770      	bx	lr
  403bfc:	55534100 	.word	0x55534100

00403c00 <usart_init_rs232>:
 * \retval 0 on success.
 * \retval 1 on failure.
 */
uint32_t usart_init_rs232(Usart *p_usart,
		const sam_usart_opt_t *p_usart_opt, uint32_t ul_mck)
{
  403c00:	b570      	push	{r4, r5, r6, lr}
  403c02:	4605      	mov	r5, r0
  403c04:	460c      	mov	r4, r1
  403c06:	4616      	mov	r6, r2
	static uint32_t ul_reg_val;

	/* Reset the USART and shut down TX and RX. */
	usart_reset(p_usart);
  403c08:	4b0f      	ldr	r3, [pc, #60]	; (403c48 <usart_init_rs232+0x48>)
  403c0a:	4798      	blx	r3

	ul_reg_val = 0;
  403c0c:	2200      	movs	r2, #0
  403c0e:	4b0f      	ldr	r3, [pc, #60]	; (403c4c <usart_init_rs232+0x4c>)
  403c10:	601a      	str	r2, [r3, #0]
	/* Check whether the input values are legal. */
	if (!p_usart_opt || usart_set_async_baudrate(p_usart,
  403c12:	b19c      	cbz	r4, 403c3c <usart_init_rs232+0x3c>
  403c14:	4632      	mov	r2, r6
  403c16:	6821      	ldr	r1, [r4, #0]
  403c18:	4628      	mov	r0, r5
  403c1a:	4b0d      	ldr	r3, [pc, #52]	; (403c50 <usart_init_rs232+0x50>)
  403c1c:	4798      	blx	r3
  403c1e:	4602      	mov	r2, r0
  403c20:	b970      	cbnz	r0, 403c40 <usart_init_rs232+0x40>
		return 1;
	}

	/* Configure the USART option. */
	ul_reg_val |= p_usart_opt->char_length | p_usart_opt->parity_type |
			p_usart_opt->channel_mode | p_usart_opt->stop_bits;
  403c22:	6861      	ldr	r1, [r4, #4]
  403c24:	68a3      	ldr	r3, [r4, #8]
  403c26:	4319      	orrs	r1, r3
  403c28:	6923      	ldr	r3, [r4, #16]
  403c2a:	4319      	orrs	r1, r3
  403c2c:	68e3      	ldr	r3, [r4, #12]
  403c2e:	430b      	orrs	r3, r1
			p_usart_opt->baudrate, ul_mck)) {
		return 1;
	}

	/* Configure the USART option. */
	ul_reg_val |= p_usart_opt->char_length | p_usart_opt->parity_type |
  403c30:	4906      	ldr	r1, [pc, #24]	; (403c4c <usart_init_rs232+0x4c>)
  403c32:	600b      	str	r3, [r1, #0]
			p_usart_opt->channel_mode | p_usart_opt->stop_bits;

	/* Configure the USART mode as normal mode. */
	ul_reg_val |= US_MR_USART_MODE_NORMAL;

	p_usart->US_MR |= ul_reg_val;
  403c34:	6869      	ldr	r1, [r5, #4]
  403c36:	430b      	orrs	r3, r1
  403c38:	606b      	str	r3, [r5, #4]

	return 0;
  403c3a:	e002      	b.n	403c42 <usart_init_rs232+0x42>

	ul_reg_val = 0;
	/* Check whether the input values are legal. */
	if (!p_usart_opt || usart_set_async_baudrate(p_usart,
			p_usart_opt->baudrate, ul_mck)) {
		return 1;
  403c3c:	2201      	movs	r2, #1
  403c3e:	e000      	b.n	403c42 <usart_init_rs232+0x42>
  403c40:	2201      	movs	r2, #1
	ul_reg_val |= US_MR_USART_MODE_NORMAL;

	p_usart->US_MR |= ul_reg_val;

	return 0;
}
  403c42:	4610      	mov	r0, r2
  403c44:	bd70      	pop	{r4, r5, r6, pc}
  403c46:	bf00      	nop
  403c48:	00403bd9 	.word	0x00403bd9
  403c4c:	20400950 	.word	0x20400950
  403c50:	00403b79 	.word	0x00403b79

00403c54 <usart_enable_tx>:
 *
 * \param p_usart Pointer to a USART instance.
 */
void usart_enable_tx(Usart *p_usart)
{
	p_usart->US_CR = US_CR_TXEN;
  403c54:	2340      	movs	r3, #64	; 0x40
  403c56:	6003      	str	r3, [r0, #0]
  403c58:	4770      	bx	lr
  403c5a:	bf00      	nop

00403c5c <usart_enable_rx>:
 *
 * \param p_usart Pointer to a USART instance.
 */
void usart_enable_rx(Usart *p_usart)
{
	p_usart->US_CR = US_CR_RXEN;
  403c5c:	2310      	movs	r3, #16
  403c5e:	6003      	str	r3, [r0, #0]
  403c60:	4770      	bx	lr
  403c62:	bf00      	nop

00403c64 <usart_write>:
 * \retval 0 on success.
 * \retval 1 on failure.
 */
uint32_t usart_write(Usart *p_usart, uint32_t c)
{
	if (!(p_usart->US_CSR & US_CSR_TXRDY)) {
  403c64:	6943      	ldr	r3, [r0, #20]
  403c66:	f013 0f02 	tst.w	r3, #2
  403c6a:	d004      	beq.n	403c76 <usart_write+0x12>
		return 1;
	}

	p_usart->US_THR = US_THR_TXCHR(c);
  403c6c:	f3c1 0108 	ubfx	r1, r1, #0, #9
  403c70:	61c1      	str	r1, [r0, #28]
	return 0;
  403c72:	2000      	movs	r0, #0
  403c74:	4770      	bx	lr
 * \retval 1 on failure.
 */
uint32_t usart_write(Usart *p_usart, uint32_t c)
{
	if (!(p_usart->US_CSR & US_CSR_TXRDY)) {
		return 1;
  403c76:	2001      	movs	r0, #1
	}

	p_usart->US_THR = US_THR_TXCHR(c);
	return 0;
}
  403c78:	4770      	bx	lr
  403c7a:	bf00      	nop

00403c7c <usart_read>:
 * \retval 0 on success.
 * \retval 1 if no data is available or errors.
 */
uint32_t usart_read(Usart *p_usart, uint32_t *c)
{
	if (!(p_usart->US_CSR & US_CSR_RXRDY)) {
  403c7c:	6943      	ldr	r3, [r0, #20]
  403c7e:	f013 0f01 	tst.w	r3, #1
  403c82:	d005      	beq.n	403c90 <usart_read+0x14>
		return 1;
	}

	/* Read character */
	*c = p_usart->US_RHR & US_RHR_RXCHR_Msk;
  403c84:	6983      	ldr	r3, [r0, #24]
  403c86:	f3c3 0308 	ubfx	r3, r3, #0, #9
  403c8a:	600b      	str	r3, [r1, #0]

	return 0;
  403c8c:	2000      	movs	r0, #0
  403c8e:	4770      	bx	lr
 * \retval 1 if no data is available or errors.
 */
uint32_t usart_read(Usart *p_usart, uint32_t *c)
{
	if (!(p_usart->US_CSR & US_CSR_RXRDY)) {
		return 1;
  403c90:	2001      	movs	r0, #1

	/* Read character */
	*c = p_usart->US_RHR & US_RHR_RXCHR_Msk;

	return 0;
}
  403c92:	4770      	bx	lr

00403c94 <Dummy_Handler>:

/**
 * \brief Default interrupt handler for unused IRQs.
 */
void Dummy_Handler(void)
{
  403c94:	e7fe      	b.n	403c94 <Dummy_Handler>
  403c96:	bf00      	nop

00403c98 <Reset_Handler>:
/**
 * \brief This is the code that gets called on processor reset.
 * To initialize the device, and call the main() routine.
 */
void Reset_Handler(void)
{
  403c98:	b500      	push	{lr}
  403c9a:	b083      	sub	sp, #12

        /* Initialize the relocate segment */
        pSrc = &_etext;
        pDest = &_srelocate;

        if (pSrc != pDest) {
  403c9c:	4b27      	ldr	r3, [pc, #156]	; (403d3c <Reset_Handler+0xa4>)
  403c9e:	4a28      	ldr	r2, [pc, #160]	; (403d40 <Reset_Handler+0xa8>)
  403ca0:	429a      	cmp	r2, r3
  403ca2:	d003      	beq.n	403cac <Reset_Handler+0x14>
                for (; pDest < &_erelocate;) {
  403ca4:	4b27      	ldr	r3, [pc, #156]	; (403d44 <Reset_Handler+0xac>)
  403ca6:	4a25      	ldr	r2, [pc, #148]	; (403d3c <Reset_Handler+0xa4>)
  403ca8:	429a      	cmp	r2, r3
  403caa:	d304      	bcc.n	403cb6 <Reset_Handler+0x1e>
                        *pDest++ = *pSrc++;
                }
        }

        /* Clear the zero segment */
        for (pDest = &_szero; pDest < &_ezero;) {
  403cac:	4b26      	ldr	r3, [pc, #152]	; (403d48 <Reset_Handler+0xb0>)
  403cae:	4a27      	ldr	r2, [pc, #156]	; (403d4c <Reset_Handler+0xb4>)
  403cb0:	429a      	cmp	r2, r3
  403cb2:	d30f      	bcc.n	403cd4 <Reset_Handler+0x3c>
  403cb4:	e01a      	b.n	403cec <Reset_Handler+0x54>
  403cb6:	4921      	ldr	r1, [pc, #132]	; (403d3c <Reset_Handler+0xa4>)
  403cb8:	4b25      	ldr	r3, [pc, #148]	; (403d50 <Reset_Handler+0xb8>)
  403cba:	1a5b      	subs	r3, r3, r1
  403cbc:	f023 0303 	bic.w	r3, r3, #3
  403cc0:	3304      	adds	r3, #4
  403cc2:	4a1f      	ldr	r2, [pc, #124]	; (403d40 <Reset_Handler+0xa8>)
  403cc4:	4413      	add	r3, r2
        pSrc = &_etext;
        pDest = &_srelocate;

        if (pSrc != pDest) {
                for (; pDest < &_erelocate;) {
                        *pDest++ = *pSrc++;
  403cc6:	f852 0b04 	ldr.w	r0, [r2], #4
  403cca:	f841 0b04 	str.w	r0, [r1], #4
        /* Initialize the relocate segment */
        pSrc = &_etext;
        pDest = &_srelocate;

        if (pSrc != pDest) {
                for (; pDest < &_erelocate;) {
  403cce:	429a      	cmp	r2, r3
  403cd0:	d1f9      	bne.n	403cc6 <Reset_Handler+0x2e>
  403cd2:	e7eb      	b.n	403cac <Reset_Handler+0x14>
  403cd4:	4b1f      	ldr	r3, [pc, #124]	; (403d54 <Reset_Handler+0xbc>)
  403cd6:	4a20      	ldr	r2, [pc, #128]	; (403d58 <Reset_Handler+0xc0>)
  403cd8:	1ad2      	subs	r2, r2, r3
  403cda:	f022 0203 	bic.w	r2, r2, #3
  403cde:	441a      	add	r2, r3
                        *pDest++ = *pSrc++;
                }
        }

        /* Clear the zero segment */
        for (pDest = &_szero; pDest < &_ezero;) {
  403ce0:	3b04      	subs	r3, #4
                *pDest++ = 0;
  403ce2:	2100      	movs	r1, #0
  403ce4:	f843 1b04 	str.w	r1, [r3], #4
                        *pDest++ = *pSrc++;
                }
        }

        /* Clear the zero segment */
        for (pDest = &_szero; pDest < &_ezero;) {
  403ce8:	4293      	cmp	r3, r2
  403cea:	d1fb      	bne.n	403ce4 <Reset_Handler+0x4c>
                *pDest++ = 0;
        }

        /* Set the vector table base address */
        pSrc = (uint32_t *) & _sfixed;
        SCB->VTOR = ((uint32_t) pSrc & SCB_VTOR_TBLOFF_Msk);
  403cec:	4a1b      	ldr	r2, [pc, #108]	; (403d5c <Reset_Handler+0xc4>)
  403cee:	4b1c      	ldr	r3, [pc, #112]	; (403d60 <Reset_Handler+0xc8>)
  403cf0:	f023 037f 	bic.w	r3, r3, #127	; 0x7f
  403cf4:	6093      	str	r3, [r2, #8]
 */
__attribute__( ( always_inline ) ) __STATIC_INLINE uint32_t __get_PRIMASK(void)
{
  uint32_t result;

  __ASM volatile ("MRS %0, primask" : "=r" (result) );
  403cf6:	f3ef 8310 	mrs	r3, PRIMASK
static volatile uint32_t cpu_irq_critical_section_counter;
static volatile bool     cpu_irq_prev_interrupt_state;

static inline irqflags_t cpu_irq_save(void)
{
	volatile irqflags_t flags = cpu_irq_is_enabled();
  403cfa:	fab3 f383 	clz	r3, r3
  403cfe:	095b      	lsrs	r3, r3, #5
  403d00:	9301      	str	r3, [sp, #4]
  This function disables IRQ interrupts by setting the I-bit in the CPSR.
  Can only be executed in Privileged modes.
 */
__attribute__( ( always_inline ) ) __STATIC_INLINE void __disable_irq(void)
{
  __ASM volatile ("cpsid i" : : : "memory");
  403d02:	b672      	cpsid	i
    This function ensures the apparent order of the explicit memory operations before
    and after the instruction, without ensuring their completion.
 */
__attribute__( ( always_inline ) ) __STATIC_INLINE void __DMB(void)
{
  __ASM volatile ("dmb");
  403d04:	f3bf 8f5f 	dmb	sy
	cpu_irq_disable();
  403d08:	2200      	movs	r2, #0
  403d0a:	4b16      	ldr	r3, [pc, #88]	; (403d64 <Reset_Handler+0xcc>)
  403d0c:	701a      	strb	r2, [r3, #0]
	return flags;
  403d0e:	9901      	ldr	r1, [sp, #4]
 */
__always_inline static void fpu_enable(void)
{
	irqflags_t flags;
	flags = cpu_irq_save();
	REG_CPACR |=  (0xFu << 20);
  403d10:	4a15      	ldr	r2, [pc, #84]	; (403d68 <Reset_Handler+0xd0>)
  403d12:	6813      	ldr	r3, [r2, #0]
  403d14:	f443 0370 	orr.w	r3, r3, #15728640	; 0xf00000
  403d18:	6013      	str	r3, [r2, #0]
    This function acts as a special kind of Data Memory Barrier.
    It completes when all explicit memory accesses before this instruction complete.
 */
__attribute__( ( always_inline ) ) __STATIC_INLINE void __DSB(void)
{
  __ASM volatile ("dsb");
  403d1a:	f3bf 8f4f 	dsb	sy
    so that all instructions following the ISB are fetched from cache or
    memory, after the instruction has been completed.
 */
__attribute__( ( always_inline ) ) __STATIC_INLINE void __ISB(void)
{
  __ASM volatile ("isb");
  403d1e:	f3bf 8f6f 	isb	sy
	return (flags);
}

static inline void cpu_irq_restore(irqflags_t flags)
{
	if (cpu_irq_is_enabled_flags(flags))
  403d22:	b129      	cbz	r1, 403d30 <Reset_Handler+0x98>
		cpu_irq_enable();
  403d24:	2201      	movs	r2, #1
  403d26:	4b0f      	ldr	r3, [pc, #60]	; (403d64 <Reset_Handler+0xcc>)
  403d28:	701a      	strb	r2, [r3, #0]
    This function ensures the apparent order of the explicit memory operations before
    and after the instruction, without ensuring their completion.
 */
__attribute__( ( always_inline ) ) __STATIC_INLINE void __DMB(void)
{
  __ASM volatile ("dmb");
  403d2a:	f3bf 8f5f 	dmb	sy
  This function enables IRQ interrupts by clearing the I-bit in the CPSR.
  Can only be executed in Privileged modes.
 */
__attribute__( ( always_inline ) ) __STATIC_INLINE void __enable_irq(void)
{
  __ASM volatile ("cpsie i" : : : "memory");
  403d2e:	b662      	cpsie	i
#if __FPU_USED
	fpu_enable();
#endif

        /* Initialize the C library */
        __libc_init_array();
  403d30:	4b0e      	ldr	r3, [pc, #56]	; (403d6c <Reset_Handler+0xd4>)
  403d32:	4798      	blx	r3

        /* Branch to main function */
        main();
  403d34:	4b0e      	ldr	r3, [pc, #56]	; (403d70 <Reset_Handler+0xd8>)
  403d36:	4798      	blx	r3
  403d38:	e7fe      	b.n	403d38 <Reset_Handler+0xa0>
  403d3a:	bf00      	nop
  403d3c:	20400000 	.word	0x20400000
  403d40:	004093a4 	.word	0x004093a4
  403d44:	20400884 	.word	0x20400884
  403d48:	20401018 	.word	0x20401018
  403d4c:	20400884 	.word	0x20400884
  403d50:	20400883 	.word	0x20400883
  403d54:	20400888 	.word	0x20400888
  403d58:	2040101b 	.word	0x2040101b
  403d5c:	e000ed00 	.word	0xe000ed00
  403d60:	00400000 	.word	0x00400000
  403d64:	20400014 	.word	0x20400014
  403d68:	e000ed88 	.word	0xe000ed88
  403d6c:	00404665 	.word	0x00404665
  403d70:	00404475 	.word	0x00404475

00403d74 <SystemCoreClockUpdate>:
}

void SystemCoreClockUpdate( void )
{
  /* Determine clock frequency according to clock register values */
  switch (PMC->PMC_MCKR & (uint32_t) PMC_MCKR_CSS_Msk)
  403d74:	4b3c      	ldr	r3, [pc, #240]	; (403e68 <SystemCoreClockUpdate+0xf4>)
  403d76:	6b1b      	ldr	r3, [r3, #48]	; 0x30
  403d78:	f003 0303 	and.w	r3, r3, #3
  403d7c:	2b01      	cmp	r3, #1
  403d7e:	d00f      	beq.n	403da0 <SystemCoreClockUpdate+0x2c>
  403d80:	b113      	cbz	r3, 403d88 <SystemCoreClockUpdate+0x14>
  403d82:	2b02      	cmp	r3, #2
  403d84:	d029      	beq.n	403dda <SystemCoreClockUpdate+0x66>
  403d86:	e057      	b.n	403e38 <SystemCoreClockUpdate+0xc4>
  {
    case PMC_MCKR_CSS_SLOW_CLK: /* Slow clock */
      if ( SUPC->SUPC_SR & SUPC_SR_OSCSEL )
  403d88:	4b38      	ldr	r3, [pc, #224]	; (403e6c <SystemCoreClockUpdate+0xf8>)
  403d8a:	695b      	ldr	r3, [r3, #20]
  403d8c:	f013 0f80 	tst.w	r3, #128	; 0x80
      {
        SystemCoreClock = CHIP_FREQ_XTAL_32K;
  403d90:	bf14      	ite	ne
  403d92:	f44f 4200 	movne.w	r2, #32768	; 0x8000
      }
      else
      {
        SystemCoreClock = CHIP_FREQ_SLCK_RC;
  403d96:	f44f 42fa 	moveq.w	r2, #32000	; 0x7d00
  403d9a:	4b35      	ldr	r3, [pc, #212]	; (403e70 <SystemCoreClockUpdate+0xfc>)
  403d9c:	601a      	str	r2, [r3, #0]
  403d9e:	e04b      	b.n	403e38 <SystemCoreClockUpdate+0xc4>
      }
    break;

    case PMC_MCKR_CSS_MAIN_CLK: /* Main clock */
      if ( PMC->CKGR_MOR & CKGR_MOR_MOSCSEL )
  403da0:	4b31      	ldr	r3, [pc, #196]	; (403e68 <SystemCoreClockUpdate+0xf4>)
  403da2:	6a1b      	ldr	r3, [r3, #32]
  403da4:	f013 7f80 	tst.w	r3, #16777216	; 0x1000000
  403da8:	d003      	beq.n	403db2 <SystemCoreClockUpdate+0x3e>
      {
        SystemCoreClock = CHIP_FREQ_XTAL_12M;
  403daa:	4a32      	ldr	r2, [pc, #200]	; (403e74 <SystemCoreClockUpdate+0x100>)
  403dac:	4b30      	ldr	r3, [pc, #192]	; (403e70 <SystemCoreClockUpdate+0xfc>)
  403dae:	601a      	str	r2, [r3, #0]
  403db0:	e042      	b.n	403e38 <SystemCoreClockUpdate+0xc4>
      }
      else
      {
        SystemCoreClock = CHIP_FREQ_MAINCK_RC_4MHZ;
  403db2:	4a31      	ldr	r2, [pc, #196]	; (403e78 <SystemCoreClockUpdate+0x104>)
  403db4:	4b2e      	ldr	r3, [pc, #184]	; (403e70 <SystemCoreClockUpdate+0xfc>)
  403db6:	601a      	str	r2, [r3, #0]

        switch ( PMC->CKGR_MOR & CKGR_MOR_MOSCRCF_Msk )
  403db8:	4b2b      	ldr	r3, [pc, #172]	; (403e68 <SystemCoreClockUpdate+0xf4>)
  403dba:	6a1b      	ldr	r3, [r3, #32]
  403dbc:	f003 0370 	and.w	r3, r3, #112	; 0x70
  403dc0:	2b10      	cmp	r3, #16
  403dc2:	d002      	beq.n	403dca <SystemCoreClockUpdate+0x56>
  403dc4:	2b20      	cmp	r3, #32
  403dc6:	d004      	beq.n	403dd2 <SystemCoreClockUpdate+0x5e>
  403dc8:	e036      	b.n	403e38 <SystemCoreClockUpdate+0xc4>
        {
          case CKGR_MOR_MOSCRCF_4_MHz:
          break;

          case CKGR_MOR_MOSCRCF_8_MHz:
            SystemCoreClock *= 2U;
  403dca:	4a2c      	ldr	r2, [pc, #176]	; (403e7c <SystemCoreClockUpdate+0x108>)
  403dcc:	4b28      	ldr	r3, [pc, #160]	; (403e70 <SystemCoreClockUpdate+0xfc>)
  403dce:	601a      	str	r2, [r3, #0]
          break;
  403dd0:	e032      	b.n	403e38 <SystemCoreClockUpdate+0xc4>

          case CKGR_MOR_MOSCRCF_12_MHz:
            SystemCoreClock *= 3U;
  403dd2:	4a28      	ldr	r2, [pc, #160]	; (403e74 <SystemCoreClockUpdate+0x100>)
  403dd4:	4b26      	ldr	r3, [pc, #152]	; (403e70 <SystemCoreClockUpdate+0xfc>)
  403dd6:	601a      	str	r2, [r3, #0]
          break;
  403dd8:	e02e      	b.n	403e38 <SystemCoreClockUpdate+0xc4>
        }
      }
    break;

    case PMC_MCKR_CSS_PLLA_CLK:	/* PLLA clock */
      if ( PMC->CKGR_MOR & CKGR_MOR_MOSCSEL )
  403dda:	4b23      	ldr	r3, [pc, #140]	; (403e68 <SystemCoreClockUpdate+0xf4>)
  403ddc:	6a1b      	ldr	r3, [r3, #32]
  403dde:	f013 7f80 	tst.w	r3, #16777216	; 0x1000000
  403de2:	d003      	beq.n	403dec <SystemCoreClockUpdate+0x78>
      {
        SystemCoreClock = CHIP_FREQ_XTAL_12M ;
  403de4:	4a23      	ldr	r2, [pc, #140]	; (403e74 <SystemCoreClockUpdate+0x100>)
  403de6:	4b22      	ldr	r3, [pc, #136]	; (403e70 <SystemCoreClockUpdate+0xfc>)
  403de8:	601a      	str	r2, [r3, #0]
  403dea:	e012      	b.n	403e12 <SystemCoreClockUpdate+0x9e>
      }
      else
      {
        SystemCoreClock = CHIP_FREQ_MAINCK_RC_4MHZ;
  403dec:	4a22      	ldr	r2, [pc, #136]	; (403e78 <SystemCoreClockUpdate+0x104>)
  403dee:	4b20      	ldr	r3, [pc, #128]	; (403e70 <SystemCoreClockUpdate+0xfc>)
  403df0:	601a      	str	r2, [r3, #0]

        switch ( PMC->CKGR_MOR & CKGR_MOR_MOSCRCF_Msk )
  403df2:	4b1d      	ldr	r3, [pc, #116]	; (403e68 <SystemCoreClockUpdate+0xf4>)
  403df4:	6a1b      	ldr	r3, [r3, #32]
  403df6:	f003 0370 	and.w	r3, r3, #112	; 0x70
  403dfa:	2b10      	cmp	r3, #16
  403dfc:	d002      	beq.n	403e04 <SystemCoreClockUpdate+0x90>
  403dfe:	2b20      	cmp	r3, #32
  403e00:	d004      	beq.n	403e0c <SystemCoreClockUpdate+0x98>
  403e02:	e006      	b.n	403e12 <SystemCoreClockUpdate+0x9e>
        {
          case CKGR_MOR_MOSCRCF_4_MHz:
          break;

          case CKGR_MOR_MOSCRCF_8_MHz:
            SystemCoreClock *= 2U;
  403e04:	4a1d      	ldr	r2, [pc, #116]	; (403e7c <SystemCoreClockUpdate+0x108>)
  403e06:	4b1a      	ldr	r3, [pc, #104]	; (403e70 <SystemCoreClockUpdate+0xfc>)
  403e08:	601a      	str	r2, [r3, #0]
          break;
  403e0a:	e002      	b.n	403e12 <SystemCoreClockUpdate+0x9e>

          case CKGR_MOR_MOSCRCF_12_MHz:
            SystemCoreClock *= 3U;
  403e0c:	4a19      	ldr	r2, [pc, #100]	; (403e74 <SystemCoreClockUpdate+0x100>)
  403e0e:	4b18      	ldr	r3, [pc, #96]	; (403e70 <SystemCoreClockUpdate+0xfc>)
  403e10:	601a      	str	r2, [r3, #0]
          default:
          break;
        }
      }

      if ( (uint32_t) (PMC->PMC_MCKR & (uint32_t) PMC_MCKR_CSS_Msk) == PMC_MCKR_CSS_PLLA_CLK )
  403e12:	4b15      	ldr	r3, [pc, #84]	; (403e68 <SystemCoreClockUpdate+0xf4>)
  403e14:	6b1b      	ldr	r3, [r3, #48]	; 0x30
  403e16:	f003 0303 	and.w	r3, r3, #3
  403e1a:	2b02      	cmp	r3, #2
  403e1c:	d10c      	bne.n	403e38 <SystemCoreClockUpdate+0xc4>
      {
        SystemCoreClock *= ((((PMC->CKGR_PLLAR) & CKGR_PLLAR_MULA_Msk) >> CKGR_PLLAR_MULA_Pos) + 1U);
  403e1e:	4a12      	ldr	r2, [pc, #72]	; (403e68 <SystemCoreClockUpdate+0xf4>)
  403e20:	6a93      	ldr	r3, [r2, #40]	; 0x28
        SystemCoreClock /= ((((PMC->CKGR_PLLAR) & CKGR_PLLAR_DIVA_Msk) >> CKGR_PLLAR_DIVA_Pos));
  403e22:	6a92      	ldr	r2, [r2, #40]	; 0x28
  403e24:	4812      	ldr	r0, [pc, #72]	; (403e70 <SystemCoreClockUpdate+0xfc>)
  403e26:	f3c3 410a 	ubfx	r1, r3, #16, #11
  403e2a:	6803      	ldr	r3, [r0, #0]
  403e2c:	fb01 3303 	mla	r3, r1, r3, r3
  403e30:	b2d2      	uxtb	r2, r2
  403e32:	fbb3 f3f2 	udiv	r3, r3, r2
  403e36:	6003      	str	r3, [r0, #0]

    default:
    break;
  }

  if ( (PMC->PMC_MCKR & PMC_MCKR_PRES_Msk) == PMC_MCKR_PRES_CLK_3 )
  403e38:	4b0b      	ldr	r3, [pc, #44]	; (403e68 <SystemCoreClockUpdate+0xf4>)
  403e3a:	6b1b      	ldr	r3, [r3, #48]	; 0x30
  403e3c:	f003 0370 	and.w	r3, r3, #112	; 0x70
  403e40:	2b70      	cmp	r3, #112	; 0x70
  403e42:	d107      	bne.n	403e54 <SystemCoreClockUpdate+0xe0>
  {
    SystemCoreClock /= 3U;
  403e44:	4a0a      	ldr	r2, [pc, #40]	; (403e70 <SystemCoreClockUpdate+0xfc>)
  403e46:	6813      	ldr	r3, [r2, #0]
  403e48:	490d      	ldr	r1, [pc, #52]	; (403e80 <SystemCoreClockUpdate+0x10c>)
  403e4a:	fba1 1303 	umull	r1, r3, r1, r3
  403e4e:	085b      	lsrs	r3, r3, #1
  403e50:	6013      	str	r3, [r2, #0]
  403e52:	4770      	bx	lr
  }
  else
  {
    SystemCoreClock >>= ((PMC->PMC_MCKR & PMC_MCKR_PRES_Msk) >> PMC_MCKR_PRES_Pos);
  403e54:	4b04      	ldr	r3, [pc, #16]	; (403e68 <SystemCoreClockUpdate+0xf4>)
  403e56:	6b1b      	ldr	r3, [r3, #48]	; 0x30
  403e58:	4905      	ldr	r1, [pc, #20]	; (403e70 <SystemCoreClockUpdate+0xfc>)
  403e5a:	f3c3 1202 	ubfx	r2, r3, #4, #3
  403e5e:	680b      	ldr	r3, [r1, #0]
  403e60:	40d3      	lsrs	r3, r2
  403e62:	600b      	str	r3, [r1, #0]
  403e64:	4770      	bx	lr
  403e66:	bf00      	nop
  403e68:	400e0600 	.word	0x400e0600
  403e6c:	400e1810 	.word	0x400e1810
  403e70:	20400018 	.word	0x20400018
  403e74:	00b71b00 	.word	0x00b71b00
  403e78:	003d0900 	.word	0x003d0900
  403e7c:	007a1200 	.word	0x007a1200
  403e80:	aaaaaaab 	.word	0xaaaaaaab

00403e84 <system_init_flash>:
 * Initialize flash.
 */
void system_init_flash( uint32_t ul_clk )
{
  /* Set FWS for embedded Flash access according to operating frequency */
  if ( ul_clk < CHIP_FREQ_FWS_0 )
  403e84:	4b12      	ldr	r3, [pc, #72]	; (403ed0 <system_init_flash+0x4c>)
  403e86:	4298      	cmp	r0, r3
  403e88:	d804      	bhi.n	403e94 <system_init_flash+0x10>
  {
    EFC->EEFC_FMR = EEFC_FMR_FWS(0)|EEFC_FMR_CLOE;
  403e8a:	f04f 6280 	mov.w	r2, #67108864	; 0x4000000
  403e8e:	4b11      	ldr	r3, [pc, #68]	; (403ed4 <system_init_flash+0x50>)
  403e90:	601a      	str	r2, [r3, #0]
  403e92:	4770      	bx	lr
  }
  else
  {
    if (ul_clk < CHIP_FREQ_FWS_1)
  403e94:	4b10      	ldr	r3, [pc, #64]	; (403ed8 <system_init_flash+0x54>)
  403e96:	4298      	cmp	r0, r3
  403e98:	d803      	bhi.n	403ea2 <system_init_flash+0x1e>
    {
      EFC->EEFC_FMR = EEFC_FMR_FWS(1)|EEFC_FMR_CLOE;
  403e9a:	4a10      	ldr	r2, [pc, #64]	; (403edc <system_init_flash+0x58>)
  403e9c:	4b0d      	ldr	r3, [pc, #52]	; (403ed4 <system_init_flash+0x50>)
  403e9e:	601a      	str	r2, [r3, #0]
  403ea0:	4770      	bx	lr
    }
    else
    {
      if (ul_clk < CHIP_FREQ_FWS_2)
  403ea2:	4b0f      	ldr	r3, [pc, #60]	; (403ee0 <system_init_flash+0x5c>)
  403ea4:	4298      	cmp	r0, r3
  403ea6:	d803      	bhi.n	403eb0 <system_init_flash+0x2c>
      {
        EFC->EEFC_FMR = EEFC_FMR_FWS(2)|EEFC_FMR_CLOE;
  403ea8:	4a0e      	ldr	r2, [pc, #56]	; (403ee4 <system_init_flash+0x60>)
  403eaa:	4b0a      	ldr	r3, [pc, #40]	; (403ed4 <system_init_flash+0x50>)
  403eac:	601a      	str	r2, [r3, #0]
  403eae:	4770      	bx	lr
      }
      else
      {
        if ( ul_clk < CHIP_FREQ_FWS_3 )
  403eb0:	4b0d      	ldr	r3, [pc, #52]	; (403ee8 <system_init_flash+0x64>)
  403eb2:	4298      	cmp	r0, r3
  403eb4:	d803      	bhi.n	403ebe <system_init_flash+0x3a>
        {
          EFC->EEFC_FMR = EEFC_FMR_FWS(3)|EEFC_FMR_CLOE;
  403eb6:	4a0d      	ldr	r2, [pc, #52]	; (403eec <system_init_flash+0x68>)
  403eb8:	4b06      	ldr	r3, [pc, #24]	; (403ed4 <system_init_flash+0x50>)
  403eba:	601a      	str	r2, [r3, #0]
  403ebc:	4770      	bx	lr
        }
        else
        {
          if ( ul_clk < CHIP_FREQ_FWS_4 )
  403ebe:	4b0c      	ldr	r3, [pc, #48]	; (403ef0 <system_init_flash+0x6c>)
  403ec0:	4298      	cmp	r0, r3
          {
            EFC->EEFC_FMR = EEFC_FMR_FWS(4)|EEFC_FMR_CLOE;
  403ec2:	bf94      	ite	ls
  403ec4:	f04f 2204 	movls.w	r2, #67109888	; 0x4000400
          }
          else
          {
            EFC->EEFC_FMR = EEFC_FMR_FWS(5)|EEFC_FMR_CLOE;
  403ec8:	4a0a      	ldrhi	r2, [pc, #40]	; (403ef4 <system_init_flash+0x70>)
  403eca:	4b02      	ldr	r3, [pc, #8]	; (403ed4 <system_init_flash+0x50>)
  403ecc:	601a      	str	r2, [r3, #0]
  403ece:	4770      	bx	lr
  403ed0:	01312cff 	.word	0x01312cff
  403ed4:	400e0c00 	.word	0x400e0c00
  403ed8:	026259ff 	.word	0x026259ff
  403edc:	04000100 	.word	0x04000100
  403ee0:	039386ff 	.word	0x039386ff
  403ee4:	04000200 	.word	0x04000200
  403ee8:	04c4b3ff 	.word	0x04c4b3ff
  403eec:	04000300 	.word	0x04000300
  403ef0:	05f5e0ff 	.word	0x05f5e0ff
  403ef4:	04000500 	.word	0x04000500

00403ef8 <_sbrk>:
{
	static unsigned char *heap = NULL;
	unsigned char *prev_heap;
	int ramend = (int)&__ram_end__;

	if (heap == NULL) {
  403ef8:	4b09      	ldr	r3, [pc, #36]	; (403f20 <_sbrk+0x28>)
  403efa:	681b      	ldr	r3, [r3, #0]
  403efc:	b913      	cbnz	r3, 403f04 <_sbrk+0xc>
		heap = (unsigned char *)&_end;
  403efe:	4a09      	ldr	r2, [pc, #36]	; (403f24 <_sbrk+0x2c>)
  403f00:	4b07      	ldr	r3, [pc, #28]	; (403f20 <_sbrk+0x28>)
  403f02:	601a      	str	r2, [r3, #0]
	}
	prev_heap = heap;
  403f04:	4b06      	ldr	r3, [pc, #24]	; (403f20 <_sbrk+0x28>)
  403f06:	681b      	ldr	r3, [r3, #0]

	if (((int)prev_heap + incr) > ramend) {
  403f08:	181a      	adds	r2, r3, r0
  403f0a:	4907      	ldr	r1, [pc, #28]	; (403f28 <_sbrk+0x30>)
  403f0c:	4291      	cmp	r1, r2
  403f0e:	db04      	blt.n	403f1a <_sbrk+0x22>
		return (caddr_t) -1;	
	}

	heap += incr;
  403f10:	4610      	mov	r0, r2
  403f12:	4a03      	ldr	r2, [pc, #12]	; (403f20 <_sbrk+0x28>)
  403f14:	6010      	str	r0, [r2, #0]

	return (caddr_t) prev_heap;
  403f16:	4618      	mov	r0, r3
  403f18:	4770      	bx	lr
		heap = (unsigned char *)&_end;
	}
	prev_heap = heap;

	if (((int)prev_heap + incr) > ramend) {
		return (caddr_t) -1;	
  403f1a:	f04f 30ff 	mov.w	r0, #4294967295
	}

	heap += incr;

	return (caddr_t) prev_heap;
}
  403f1e:	4770      	bx	lr
  403f20:	20400954 	.word	0x20400954
  403f24:	20403218 	.word	0x20403218
  403f28:	2045fffc 	.word	0x2045fffc

00403f2c <_close>:
}

extern int _close(int file)
{
	return -1;
}
  403f2c:	f04f 30ff 	mov.w	r0, #4294967295
  403f30:	4770      	bx	lr
  403f32:	bf00      	nop

00403f34 <_fstat>:

extern int _fstat(int file, struct stat *st)
{
	st->st_mode = S_IFCHR;
  403f34:	f44f 5300 	mov.w	r3, #8192	; 0x2000
  403f38:	604b      	str	r3, [r1, #4]

	return 0;
}
  403f3a:	2000      	movs	r0, #0
  403f3c:	4770      	bx	lr
  403f3e:	bf00      	nop

00403f40 <_isatty>:

extern int _isatty(int file)
{
	return 1;
}
  403f40:	2001      	movs	r0, #1
  403f42:	4770      	bx	lr

00403f44 <_lseek>:

extern int _lseek(int file, int ptr, int dir)
{
	return 0;
}
  403f44:	2000      	movs	r0, #0
  403f46:	4770      	bx	lr

00403f48 <socket_cb>:
 *  - tstrSocketAcceptMsg
 *  - tstrSocketConnectMsg
 *  - tstrSocketRecvMsg
 */
static void socket_cb(SOCKET sock, uint8_t u8Msg, void *pvMsg)
{
  403f48:	b538      	push	{r3, r4, r5, lr}
  403f4a:	4614      	mov	r4, r2
	switch (u8Msg) {
  403f4c:	3901      	subs	r1, #1
  403f4e:	2906      	cmp	r1, #6
  403f50:	f200 810d 	bhi.w	40416e <socket_cb+0x226>
  403f54:	e8df f011 	tbh	[pc, r1, lsl #1]
  403f58:	00200007 	.word	0x00200007
  403f5c:	003a010b 	.word	0x003a010b
  403f60:	0063010b 	.word	0x0063010b
  403f64:	005b      	.short	0x005b
	/* Socket bind */
	case SOCKET_MSG_BIND:
	{
		tstrSocketBindMsg *pstrBind = (tstrSocketBindMsg *)pvMsg;
		if (pstrBind && pstrBind->status == 0) {
  403f66:	b162      	cbz	r2, 403f82 <socket_cb+0x3a>
  403f68:	f992 3000 	ldrsb.w	r3, [r2]
  403f6c:	b94b      	cbnz	r3, 403f82 <socket_cb+0x3a>
			printf("socket_cb: bind success!\r\n");
  403f6e:	4880      	ldr	r0, [pc, #512]	; (404170 <socket_cb+0x228>)
  403f70:	4b80      	ldr	r3, [pc, #512]	; (404174 <socket_cb+0x22c>)
  403f72:	4798      	blx	r3
			listen(tcp_server_socket, 0);
  403f74:	2100      	movs	r1, #0
  403f76:	4b80      	ldr	r3, [pc, #512]	; (404178 <socket_cb+0x230>)
  403f78:	f993 0000 	ldrsb.w	r0, [r3]
  403f7c:	4b7f      	ldr	r3, [pc, #508]	; (40417c <socket_cb+0x234>)
  403f7e:	4798      	blx	r3
  403f80:	bd38      	pop	{r3, r4, r5, pc}
		} else {
			printf("socket_cb: bind error!\r\n");
  403f82:	487f      	ldr	r0, [pc, #508]	; (404180 <socket_cb+0x238>)
  403f84:	4b7b      	ldr	r3, [pc, #492]	; (404174 <socket_cb+0x22c>)
  403f86:	4798      	blx	r3
			close(tcp_server_socket);
  403f88:	4c7b      	ldr	r4, [pc, #492]	; (404178 <socket_cb+0x230>)
  403f8a:	f994 0000 	ldrsb.w	r0, [r4]
  403f8e:	4b7d      	ldr	r3, [pc, #500]	; (404184 <socket_cb+0x23c>)
  403f90:	4798      	blx	r3
			tcp_server_socket = -1;
  403f92:	23ff      	movs	r3, #255	; 0xff
  403f94:	7023      	strb	r3, [r4, #0]
  403f96:	bd38      	pop	{r3, r4, r5, pc}

	/* Socket listen */
	case SOCKET_MSG_LISTEN:
	{
		tstrSocketListenMsg *pstrListen = (tstrSocketListenMsg *)pvMsg;
		if (pstrListen && pstrListen->status == 0) {
  403f98:	b16a      	cbz	r2, 403fb6 <socket_cb+0x6e>
  403f9a:	f992 3000 	ldrsb.w	r3, [r2]
  403f9e:	b953      	cbnz	r3, 403fb6 <socket_cb+0x6e>
			printf("socket_cb: listen success!\r\n");
  403fa0:	4879      	ldr	r0, [pc, #484]	; (404188 <socket_cb+0x240>)
  403fa2:	4b74      	ldr	r3, [pc, #464]	; (404174 <socket_cb+0x22c>)
  403fa4:	4798      	blx	r3
			accept(tcp_server_socket, NULL, NULL);
  403fa6:	2200      	movs	r2, #0
  403fa8:	4611      	mov	r1, r2
  403faa:	4b73      	ldr	r3, [pc, #460]	; (404178 <socket_cb+0x230>)
  403fac:	f993 0000 	ldrsb.w	r0, [r3]
  403fb0:	4b76      	ldr	r3, [pc, #472]	; (40418c <socket_cb+0x244>)
  403fb2:	4798      	blx	r3
  403fb4:	bd38      	pop	{r3, r4, r5, pc}
		} else {
			printf("socket_cb: listen error!\r\n");
  403fb6:	4876      	ldr	r0, [pc, #472]	; (404190 <socket_cb+0x248>)
  403fb8:	4b6e      	ldr	r3, [pc, #440]	; (404174 <socket_cb+0x22c>)
  403fba:	4798      	blx	r3
			close(tcp_server_socket);
  403fbc:	4c6e      	ldr	r4, [pc, #440]	; (404178 <socket_cb+0x230>)
  403fbe:	f994 0000 	ldrsb.w	r0, [r4]
  403fc2:	4b70      	ldr	r3, [pc, #448]	; (404184 <socket_cb+0x23c>)
  403fc4:	4798      	blx	r3
			tcp_server_socket = -1;
  403fc6:	23ff      	movs	r3, #255	; 0xff
  403fc8:	7023      	strb	r3, [r4, #0]
  403fca:	bd38      	pop	{r3, r4, r5, pc}

	/* Connect accept */
	case SOCKET_MSG_ACCEPT:
	{
		tstrSocketAcceptMsg *pstrAccept = (tstrSocketAcceptMsg *)pvMsg;
		if (pstrAccept) {
  403fcc:	b1a2      	cbz	r2, 403ff8 <socket_cb+0xb0>
			printf("socket_cb: accept success!\r\n");
  403fce:	4871      	ldr	r0, [pc, #452]	; (404194 <socket_cb+0x24c>)
  403fd0:	4b68      	ldr	r3, [pc, #416]	; (404174 <socket_cb+0x22c>)
  403fd2:	4798      	blx	r3
			accept(tcp_server_socket, NULL, NULL);
  403fd4:	2200      	movs	r2, #0
  403fd6:	4611      	mov	r1, r2
  403fd8:	4b67      	ldr	r3, [pc, #412]	; (404178 <socket_cb+0x230>)
  403fda:	f993 0000 	ldrsb.w	r0, [r3]
  403fde:	4b6b      	ldr	r3, [pc, #428]	; (40418c <socket_cb+0x244>)
  403fe0:	4798      	blx	r3
			tcp_client_socket = pstrAccept->sock;
  403fe2:	f994 0000 	ldrsb.w	r0, [r4]
  403fe6:	4b6c      	ldr	r3, [pc, #432]	; (404198 <socket_cb+0x250>)
  403fe8:	7018      	strb	r0, [r3, #0]
			recv(tcp_client_socket, gau8SocketTestBuffer, sizeof(gau8SocketTestBuffer), 0);
  403fea:	2300      	movs	r3, #0
  403fec:	f240 52b4 	movw	r2, #1460	; 0x5b4
  403ff0:	496a      	ldr	r1, [pc, #424]	; (40419c <socket_cb+0x254>)
  403ff2:	4c6b      	ldr	r4, [pc, #428]	; (4041a0 <socket_cb+0x258>)
  403ff4:	47a0      	blx	r4
  403ff6:	bd38      	pop	{r3, r4, r5, pc}
		} else {
			printf("socket_cb: accept error!\r\n");
  403ff8:	486a      	ldr	r0, [pc, #424]	; (4041a4 <socket_cb+0x25c>)
  403ffa:	4b5e      	ldr	r3, [pc, #376]	; (404174 <socket_cb+0x22c>)
  403ffc:	4798      	blx	r3
			close(tcp_server_socket);
  403ffe:	4c5e      	ldr	r4, [pc, #376]	; (404178 <socket_cb+0x230>)
  404000:	f994 0000 	ldrsb.w	r0, [r4]
  404004:	4b5f      	ldr	r3, [pc, #380]	; (404184 <socket_cb+0x23c>)
  404006:	4798      	blx	r3
			tcp_server_socket = -1;
  404008:	23ff      	movs	r3, #255	; 0xff
  40400a:	7023      	strb	r3, [r4, #0]
  40400c:	bd38      	pop	{r3, r4, r5, pc}
	break;

	/* Message send */
	case SOCKET_MSG_SEND:
	{
		printf("socket_cb: send success!\r\n");
  40400e:	4866      	ldr	r0, [pc, #408]	; (4041a8 <socket_cb+0x260>)
  404010:	4c58      	ldr	r4, [pc, #352]	; (404174 <socket_cb+0x22c>)
  404012:	47a0      	blx	r4
		printf("TCP Server Test Complete!\r\n");
  404014:	4865      	ldr	r0, [pc, #404]	; (4041ac <socket_cb+0x264>)
  404016:	47a0      	blx	r4
		printf("close socket\n");
  404018:	4865      	ldr	r0, [pc, #404]	; (4041b0 <socket_cb+0x268>)
  40401a:	47a0      	blx	r4
		//close(tcp_client_socket);
		//close(tcp_server_socket);
	}
	break;
  40401c:	bd38      	pop	{r3, r4, r5, pc}

	/* Message receive */
	case SOCKET_MSG_RECV:
	{
		tstrSocketRecvMsg *pstrRecv = (tstrSocketRecvMsg *)pvMsg;
		if (pstrRecv && pstrRecv->s16BufferSize > 0) {
  40401e:	2a00      	cmp	r2, #0
  404020:	f000 809b 	beq.w	40415a <socket_cb+0x212>
  404024:	f9b2 3004 	ldrsh.w	r3, [r2, #4]
  404028:	2b00      	cmp	r3, #0
  40402a:	f340 8096 	ble.w	40415a <socket_cb+0x212>

			//printf("socket_cb: recv success!\r\n");
			//printf(" -------- \n", gau8SocketTestBuffer);
			g_nMensagensRx++;
  40402e:	4b61      	ldr	r3, [pc, #388]	; (4041b4 <socket_cb+0x26c>)
  404030:	6819      	ldr	r1, [r3, #0]
  404032:	3101      	adds	r1, #1
  404034:	6019      	str	r1, [r3, #0]
			printf("Mensagem recebida do PUTTY: numero %d \n", g_nMensagensRx);
  404036:	4860      	ldr	r0, [pc, #384]	; (4041b8 <socket_cb+0x270>)
  404038:	4d4e      	ldr	r5, [pc, #312]	; (404174 <socket_cb+0x22c>)
  40403a:	47a8      	blx	r5

			printf("%s \n", gau8SocketTestBuffer);
  40403c:	4c57      	ldr	r4, [pc, #348]	; (40419c <socket_cb+0x254>)
  40403e:	4621      	mov	r1, r4
  404040:	485e      	ldr	r0, [pc, #376]	; (4041bc <socket_cb+0x274>)
  404042:	47a8      	blx	r5
			printf(" -------- \n", gau8SocketTestBuffer);
  404044:	4621      	mov	r1, r4
  404046:	485e      	ldr	r0, [pc, #376]	; (4041c0 <socket_cb+0x278>)
  404048:	47a8      	blx	r5

			send(tcp_client_socket, gau8SocketTestBuffer, sizeof(gau8SocketTestBuffer), 0);
  40404a:	2300      	movs	r3, #0
  40404c:	f240 52b4 	movw	r2, #1460	; 0x5b4
  404050:	4621      	mov	r1, r4
  404052:	4851      	ldr	r0, [pc, #324]	; (404198 <socket_cb+0x250>)
  404054:	f990 0000 	ldrsb.w	r0, [r0]
  404058:	4d5a      	ldr	r5, [pc, #360]	; (4041c4 <socket_cb+0x27c>)
  40405a:	47a8      	blx	r5
			/************************************************************************/
			/*               Checando comandos                                                        */
			/************************************************************************/

			com_t *pkg_buffer;
			pkg_buffer = com_interpretando_buffer(gau8SocketTestBuffer);
  40405c:	4620      	mov	r0, r4
  40405e:	4b5a      	ldr	r3, [pc, #360]	; (4041c8 <socket_cb+0x280>)
  404060:	4798      	blx	r3
  404062:	4604      	mov	r4, r0
			switch (pkg_buffer->pkg_type){
  404064:	7803      	ldrb	r3, [r0, #0]
  404066:	2b04      	cmp	r3, #4
  404068:	d031      	beq.n	4040ce <socket_cb+0x186>
  40406a:	d805      	bhi.n	404078 <socket_cb+0x130>
  40406c:	2b02      	cmp	r3, #2
  40406e:	d026      	beq.n	4040be <socket_cb+0x176>
  404070:	d834      	bhi.n	4040dc <socket_cb+0x194>
  404072:	2b01      	cmp	r3, #1
  404074:	d00b      	beq.n	40408e <socket_cb+0x146>
  404076:	e05a      	b.n	40412e <socket_cb+0x1e6>
  404078:	2b21      	cmp	r3, #33	; 0x21
  40407a:	d03e      	beq.n	4040fa <socket_cb+0x1b2>
  40407c:	d802      	bhi.n	404084 <socket_cb+0x13c>
  40407e:	2b10      	cmp	r3, #16
  404080:	d015      	beq.n	4040ae <socket_cb+0x166>
  404082:	e054      	b.n	40412e <socket_cb+0x1e6>
  404084:	2b22      	cmp	r3, #34	; 0x22
  404086:	d047      	beq.n	404118 <socket_cb+0x1d0>
  404088:	2bff      	cmp	r3, #255	; 0xff
  40408a:	d04c      	beq.n	404126 <socket_cb+0x1de>
  40408c:	e04f      	b.n	40412e <socket_cb+0x1e6>
				case command_LED_ON:
					puts("lED ON\N");
  40408e:	484f      	ldr	r0, [pc, #316]	; (4041cc <socket_cb+0x284>)
  404090:	4b4f      	ldr	r3, [pc, #316]	; (4041d0 <socket_cb+0x288>)
  404092:	4798      	blx	r3
					send(tcp_client_socket, PACOTE_TESTE_tx_OK, sizeof(PACOTE_TESTE_tx_OK), 0);
  404094:	2300      	movs	r3, #0
  404096:	2205      	movs	r2, #5
  404098:	494e      	ldr	r1, [pc, #312]	; (4041d4 <socket_cb+0x28c>)
  40409a:	483f      	ldr	r0, [pc, #252]	; (404198 <socket_cb+0x250>)
  40409c:	f990 0000 	ldrsb.w	r0, [r0]
  4040a0:	4d48      	ldr	r5, [pc, #288]	; (4041c4 <socket_cb+0x27c>)
  4040a2:	47a8      	blx	r5
					PIOC->PIO_CODR = LED_PIN_MASK;
  4040a4:	f44f 7280 	mov.w	r2, #256	; 0x100
  4040a8:	4b4b      	ldr	r3, [pc, #300]	; (4041d8 <socket_cb+0x290>)
  4040aa:	635a      	str	r2, [r3, #52]	; 0x34
					break;
  4040ac:	e03f      	b.n	40412e <socket_cb+0x1e6>
				case PACOTE_ALARM_SET: ;
					/* C doesn't allow for declarations after labels,
					 * therefore this semi-collon after the ':' is
					 * necessary (it creates a new empty line)
					 */
					hour_t *h = (hour_t *) pkg_buffer->pkg_value;
  4040ae:	6845      	ldr	r5, [r0, #4]
					//printf("Hora: %hhu\nMinuto: %hhu\n", h->hour, h->minute);
					rtc_set_alarm(h);
  4040b0:	4628      	mov	r0, r5
  4040b2:	4b4a      	ldr	r3, [pc, #296]	; (4041dc <socket_cb+0x294>)
  4040b4:	4798      	blx	r3
					free(h);
  4040b6:	4628      	mov	r0, r5
  4040b8:	4b49      	ldr	r3, [pc, #292]	; (4041e0 <socket_cb+0x298>)
  4040ba:	4798      	blx	r3
					break;
  4040bc:	e037      	b.n	40412e <socket_cb+0x1e6>

				case command_LED_OFF:
					puts("led off \n");
  4040be:	4849      	ldr	r0, [pc, #292]	; (4041e4 <socket_cb+0x29c>)
  4040c0:	4b43      	ldr	r3, [pc, #268]	; (4041d0 <socket_cb+0x288>)
  4040c2:	4798      	blx	r3
					PIOC->PIO_SODR = LED_PIN_MASK;
  4040c4:	f44f 7280 	mov.w	r2, #256	; 0x100
  4040c8:	4b43      	ldr	r3, [pc, #268]	; (4041d8 <socket_cb+0x290>)
  4040ca:	631a      	str	r2, [r3, #48]	; 0x30
					break;
  4040cc:	e02f      	b.n	40412e <socket_cb+0x1e6>

				case command_Cafeteria_OFF:
					puts("Caf OFF");
  4040ce:	4846      	ldr	r0, [pc, #280]	; (4041e8 <socket_cb+0x2a0>)
  4040d0:	4b3f      	ldr	r3, [pc, #252]	; (4041d0 <socket_cb+0x288>)
  4040d2:	4798      	blx	r3
					CAFETERIA_PIO->PIO_SODR = CAFETERIA_PIN_MASK;
  4040d4:	2202      	movs	r2, #2
  4040d6:	4b45      	ldr	r3, [pc, #276]	; (4041ec <socket_cb+0x2a4>)
  4040d8:	631a      	str	r2, [r3, #48]	; 0x30
					break;
  4040da:	e028      	b.n	40412e <socket_cb+0x1e6>

				case command_Cafeteria_ON:
					puts("Caf ON\n");
  4040dc:	4844      	ldr	r0, [pc, #272]	; (4041f0 <socket_cb+0x2a8>)
  4040de:	4b3c      	ldr	r3, [pc, #240]	; (4041d0 <socket_cb+0x288>)
  4040e0:	4798      	blx	r3
					send(tcp_client_socket, PACOTE_TESTE_tx_OK, sizeof(PACOTE_TESTE_tx_OK), 0);
  4040e2:	2300      	movs	r3, #0
  4040e4:	2205      	movs	r2, #5
  4040e6:	493b      	ldr	r1, [pc, #236]	; (4041d4 <socket_cb+0x28c>)
  4040e8:	482b      	ldr	r0, [pc, #172]	; (404198 <socket_cb+0x250>)
  4040ea:	f990 0000 	ldrsb.w	r0, [r0]
  4040ee:	4d35      	ldr	r5, [pc, #212]	; (4041c4 <socket_cb+0x27c>)
  4040f0:	47a8      	blx	r5
					CAFETERIA_PIO->PIO_CODR = CAFETERIA_PIN_MASK;
  4040f2:	2202      	movs	r2, #2
  4040f4:	4b3d      	ldr	r3, [pc, #244]	; (4041ec <socket_cb+0x2a4>)
  4040f6:	635a      	str	r2, [r3, #52]	; 0x34
					break;
  4040f8:	e019      	b.n	40412e <socket_cb+0x1e6>

				case command_Buzzer_ON:
					puts("Buzzer ON\n");
  4040fa:	483e      	ldr	r0, [pc, #248]	; (4041f4 <socket_cb+0x2ac>)
  4040fc:	4b34      	ldr	r3, [pc, #208]	; (4041d0 <socket_cb+0x288>)
  4040fe:	4798      	blx	r3
					send(tcp_client_socket, PACOTE_TESTE_tx_OK, sizeof(PACOTE_TESTE_tx_OK), 0);
  404100:	2300      	movs	r3, #0
  404102:	2205      	movs	r2, #5
  404104:	4933      	ldr	r1, [pc, #204]	; (4041d4 <socket_cb+0x28c>)
  404106:	4824      	ldr	r0, [pc, #144]	; (404198 <socket_cb+0x250>)
  404108:	f990 0000 	ldrsb.w	r0, [r0]
  40410c:	4d2d      	ldr	r5, [pc, #180]	; (4041c4 <socket_cb+0x27c>)
  40410e:	47a8      	blx	r5
					BUZZER_PIO->PIO_CODR = BUZZER_PIN_MASK;
  404110:	2201      	movs	r2, #1
  404112:	4b36      	ldr	r3, [pc, #216]	; (4041ec <socket_cb+0x2a4>)
  404114:	635a      	str	r2, [r3, #52]	; 0x34
					break;
  404116:	e00a      	b.n	40412e <socket_cb+0x1e6>

				case command_Buzzer_OFF:
					puts("Buzzer OFF\n");
  404118:	4837      	ldr	r0, [pc, #220]	; (4041f8 <socket_cb+0x2b0>)
  40411a:	4b2d      	ldr	r3, [pc, #180]	; (4041d0 <socket_cb+0x288>)
  40411c:	4798      	blx	r3
					BUZZER_PIO->PIO_SODR = BUZZER_PIN_MASK;
  40411e:	2201      	movs	r2, #1
  404120:	4b32      	ldr	r3, [pc, #200]	; (4041ec <socket_cb+0x2a4>)
  404122:	631a      	str	r2, [r3, #48]	; 0x30
					break;
  404124:	e003      	b.n	40412e <socket_cb+0x1e6>

				case PACOTE_ERRO:
					printf("%s", (char *) pkg_buffer->pkg_value);
  404126:	6841      	ldr	r1, [r0, #4]
  404128:	4834      	ldr	r0, [pc, #208]	; (4041fc <socket_cb+0x2b4>)
  40412a:	4b12      	ldr	r3, [pc, #72]	; (404174 <socket_cb+0x22c>)
  40412c:	4798      	blx	r3
					break;

			}
			free(pkg_buffer);
  40412e:	4620      	mov	r0, r4
  404130:	4b2b      	ldr	r3, [pc, #172]	; (4041e0 <socket_cb+0x298>)
  404132:	4798      	blx	r3
  404134:	4a19      	ldr	r2, [pc, #100]	; (40419c <socket_cb+0x254>)
  404136:	1e53      	subs	r3, r2, #1
  404138:	f202 52b3 	addw	r2, r2, #1459	; 0x5b3
			uint16 i;
			for(i=0;i< sizeof(gau8SocketTestBuffer); i++)
				gau8SocketTestBuffer[i] = 0;
  40413c:	2100      	movs	r1, #0
  40413e:	f803 1f01 	strb.w	r1, [r3, #1]!
					break;

			}
			free(pkg_buffer);
			uint16 i;
			for(i=0;i< sizeof(gau8SocketTestBuffer); i++)
  404142:	4293      	cmp	r3, r2
  404144:	d1fb      	bne.n	40413e <socket_cb+0x1f6>
				gau8SocketTestBuffer[i] = 0;

			recv(tcp_client_socket, gau8SocketTestBuffer, sizeof(gau8SocketTestBuffer), 0);
  404146:	2300      	movs	r3, #0
  404148:	f240 52b4 	movw	r2, #1460	; 0x5b4
  40414c:	4913      	ldr	r1, [pc, #76]	; (40419c <socket_cb+0x254>)
  40414e:	4812      	ldr	r0, [pc, #72]	; (404198 <socket_cb+0x250>)
  404150:	f990 0000 	ldrsb.w	r0, [r0]
  404154:	4c12      	ldr	r4, [pc, #72]	; (4041a0 <socket_cb+0x258>)
  404156:	47a0      	blx	r4

	/* Message receive */
	case SOCKET_MSG_RECV:
	{
		tstrSocketRecvMsg *pstrRecv = (tstrSocketRecvMsg *)pvMsg;
		if (pstrRecv && pstrRecv->s16BufferSize > 0) {
  404158:	bd38      	pop	{r3, r4, r5, pc}
				gau8SocketTestBuffer[i] = 0;

			recv(tcp_client_socket, gau8SocketTestBuffer, sizeof(gau8SocketTestBuffer), 0);

		} else {
			printf("socket_cb: recv error!\r\n");
  40415a:	4829      	ldr	r0, [pc, #164]	; (404200 <socket_cb+0x2b8>)
  40415c:	4b05      	ldr	r3, [pc, #20]	; (404174 <socket_cb+0x22c>)
  40415e:	4798      	blx	r3
			close(tcp_server_socket);
  404160:	4c05      	ldr	r4, [pc, #20]	; (404178 <socket_cb+0x230>)
  404162:	f994 0000 	ldrsb.w	r0, [r4]
  404166:	4b07      	ldr	r3, [pc, #28]	; (404184 <socket_cb+0x23c>)
  404168:	4798      	blx	r3
			tcp_server_socket = -1;
  40416a:	23ff      	movs	r3, #255	; 0xff
  40416c:	7023      	strb	r3, [r4, #0]
  40416e:	bd38      	pop	{r3, r4, r5, pc}
  404170:	00408fa4 	.word	0x00408fa4
  404174:	004046b5 	.word	0x004046b5
  404178:	2040001d 	.word	0x2040001d
  40417c:	00402ea5 	.word	0x00402ea5
  404180:	00408fc0 	.word	0x00408fc0
  404184:	00403069 	.word	0x00403069
  404188:	00408fdc 	.word	0x00408fdc
  40418c:	00402f05 	.word	0x00402f05
  404190:	00408ffc 	.word	0x00408ffc
  404194:	00409018 	.word	0x00409018
  404198:	2040001c 	.word	0x2040001c
  40419c:	2040095c 	.word	0x2040095c
  4041a0:	00402fc5 	.word	0x00402fc5
  4041a4:	00409038 	.word	0x00409038
  4041a8:	00409054 	.word	0x00409054
  4041ac:	00409070 	.word	0x00409070
  4041b0:	0040908c 	.word	0x0040908c
  4041b4:	20400958 	.word	0x20400958
  4041b8:	0040909c 	.word	0x0040909c
  4041bc:	00408040 	.word	0x00408040
  4041c0:	004090c4 	.word	0x004090c4
  4041c4:	00402f29 	.word	0x00402f29
  4041c8:	00400461 	.word	0x00400461
  4041cc:	004090d0 	.word	0x004090d0
  4041d0:	00404d79 	.word	0x00404d79
  4041d4:	0040805c 	.word	0x0040805c
  4041d8:	400e1200 	.word	0x400e1200
  4041dc:	0040063d 	.word	0x0040063d
  4041e0:	004046ed 	.word	0x004046ed
  4041e4:	004090d8 	.word	0x004090d8
  4041e8:	004090e4 	.word	0x004090e4
  4041ec:	400e1000 	.word	0x400e1000
  4041f0:	004090f0 	.word	0x004090f0
  4041f4:	004090fc 	.word	0x004090fc
  4041f8:	00409108 	.word	0x00409108
  4041fc:	00409114 	.word	0x00409114
  404200:	00409118 	.word	0x00409118

00404204 <wifi_cb>:
 *  - tstrM2MAPResp
 *  - tstrM2mScanDone
 *  - tstrM2mWifiscanResult
 */
static void wifi_cb(uint8_t u8MsgType, void *pvMsg)
{
  404204:	b510      	push	{r4, lr}
  404206:	b082      	sub	sp, #8
	switch (u8MsgType) {
  404208:	282c      	cmp	r0, #44	; 0x2c
  40420a:	d002      	beq.n	404212 <wifi_cb+0xe>
  40420c:	2832      	cmp	r0, #50	; 0x32
  40420e:	d019      	beq.n	404244 <wifi_cb+0x40>
  404210:	e024      	b.n	40425c <wifi_cb+0x58>
	case M2M_WIFI_RESP_CON_STATE_CHANGED:
	{
		tstrM2mWifiStateChanged *pstrWifiState = (tstrM2mWifiStateChanged *)pvMsg;
		if (pstrWifiState->u8CurrState == M2M_WIFI_CONNECTED) {
  404212:	780b      	ldrb	r3, [r1, #0]
  404214:	2b01      	cmp	r3, #1
  404216:	d105      	bne.n	404224 <wifi_cb+0x20>
			printf("wifi_cb: M2M_WIFI_RESP_CON_STATE_CHANGED: CONNECTED\r\n");
  404218:	4811      	ldr	r0, [pc, #68]	; (404260 <wifi_cb+0x5c>)
  40421a:	4b12      	ldr	r3, [pc, #72]	; (404264 <wifi_cb+0x60>)
  40421c:	4798      	blx	r3
			m2m_wifi_request_dhcp_client();
  40421e:	4b12      	ldr	r3, [pc, #72]	; (404268 <wifi_cb+0x64>)
  404220:	4798      	blx	r3
  404222:	e01b      	b.n	40425c <wifi_cb+0x58>
		} else if (pstrWifiState->u8CurrState == M2M_WIFI_DISCONNECTED) {
  404224:	b9d3      	cbnz	r3, 40425c <wifi_cb+0x58>
			printf("wifi_cb: M2M_WIFI_RESP_CON_STATE_CHANGED: DISCONNECTED\r\n");
  404226:	4811      	ldr	r0, [pc, #68]	; (40426c <wifi_cb+0x68>)
  404228:	4b0e      	ldr	r3, [pc, #56]	; (404264 <wifi_cb+0x60>)
  40422a:	4798      	blx	r3
			wifi_connected = 0;
  40422c:	2200      	movs	r2, #0
  40422e:	4b10      	ldr	r3, [pc, #64]	; (404270 <wifi_cb+0x6c>)
  404230:	701a      	strb	r2, [r3, #0]
			m2m_wifi_connect((char *)MAIN_WLAN_SSID, sizeof(MAIN_WLAN_SSID), MAIN_WLAN_AUTH, (char *)MAIN_WLAN_PSK, M2M_WIFI_CH_ALL);
  404232:	23ff      	movs	r3, #255	; 0xff
  404234:	9300      	str	r3, [sp, #0]
  404236:	4b0f      	ldr	r3, [pc, #60]	; (404274 <wifi_cb+0x70>)
  404238:	2202      	movs	r2, #2
  40423a:	2105      	movs	r1, #5
  40423c:	480e      	ldr	r0, [pc, #56]	; (404278 <wifi_cb+0x74>)
  40423e:	4c0f      	ldr	r4, [pc, #60]	; (40427c <wifi_cb+0x78>)
  404240:	47a0      	blx	r4
  404242:	e00b      	b.n	40425c <wifi_cb+0x58>
	break;

	case M2M_WIFI_REQ_DHCP_CONF:
	{
		uint8_t *pu8IPAddress = (uint8_t *)pvMsg;
		wifi_connected = 1;
  404244:	2201      	movs	r2, #1
  404246:	4b0a      	ldr	r3, [pc, #40]	; (404270 <wifi_cb+0x6c>)
  404248:	701a      	strb	r2, [r3, #0]
		printf("wifi_cb: M2M_WIFI_REQ_DHCP_CONF: IP is %u.%u.%u.%u\r\n",
  40424a:	788b      	ldrb	r3, [r1, #2]
  40424c:	784a      	ldrb	r2, [r1, #1]
  40424e:	7808      	ldrb	r0, [r1, #0]
  404250:	78c9      	ldrb	r1, [r1, #3]
  404252:	9100      	str	r1, [sp, #0]
  404254:	4601      	mov	r1, r0
  404256:	480a      	ldr	r0, [pc, #40]	; (404280 <wifi_cb+0x7c>)
  404258:	4c02      	ldr	r4, [pc, #8]	; (404264 <wifi_cb+0x60>)
  40425a:	47a0      	blx	r4
	break;

	default:
		break;
	}
}
  40425c:	b002      	add	sp, #8
  40425e:	bd10      	pop	{r4, pc}
  404260:	00409134 	.word	0x00409134
  404264:	004046b5 	.word	0x004046b5
  404268:	004018c5 	.word	0x004018c5
  40426c:	0040916c 	.word	0x0040916c
  404270:	20400f10 	.word	0x20400f10
  404274:	004091a8 	.word	0x004091a8
  404278:	004091b4 	.word	0x004091b4
  40427c:	004018a9 	.word	0x004018a9
  404280:	004091bc 	.word	0x004091bc

00404284 <usart_serial_getchar>:
 * \param p_usart   Base address of the USART instance.
 * \param data   Data to read
 *
 */
static inline void usart_serial_getchar(usart_if p_usart, uint8_t *data)
{
  404284:	b5f0      	push	{r4, r5, r6, r7, lr}
  404286:	b083      	sub	sp, #12
  404288:	4605      	mov	r5, r0
  40428a:	460c      	mov	r4, r1
	uint32_t val = 0;
  40428c:	2300      	movs	r3, #0
  40428e:	9301      	str	r3, [sp, #4]
	if (UART == (Uart*)p_usart) {
		while (uart_read((Uart*)p_usart, data));
	}
#else
# ifdef UART0
	if (UART0 == (Uart*)p_usart) {
  404290:	4b29      	ldr	r3, [pc, #164]	; (404338 <usart_serial_getchar+0xb4>)
  404292:	4298      	cmp	r0, r3
  404294:	d107      	bne.n	4042a6 <usart_serial_getchar+0x22>
		while (uart_read((Uart*)p_usart, data));
  404296:	461f      	mov	r7, r3
  404298:	4e28      	ldr	r6, [pc, #160]	; (40433c <usart_serial_getchar+0xb8>)
  40429a:	4621      	mov	r1, r4
  40429c:	4638      	mov	r0, r7
  40429e:	47b0      	blx	r6
  4042a0:	2800      	cmp	r0, #0
  4042a2:	d1fa      	bne.n	40429a <usart_serial_getchar+0x16>
  4042a4:	e015      	b.n	4042d2 <usart_serial_getchar+0x4e>
	}
# endif
# ifdef UART1
	if (UART1 == (Uart*)p_usart) {
  4042a6:	4b26      	ldr	r3, [pc, #152]	; (404340 <usart_serial_getchar+0xbc>)
  4042a8:	4298      	cmp	r0, r3
  4042aa:	d107      	bne.n	4042bc <usart_serial_getchar+0x38>
		while (uart_read((Uart*)p_usart, data));
  4042ac:	461f      	mov	r7, r3
  4042ae:	4e23      	ldr	r6, [pc, #140]	; (40433c <usart_serial_getchar+0xb8>)
  4042b0:	4621      	mov	r1, r4
  4042b2:	4638      	mov	r0, r7
  4042b4:	47b0      	blx	r6
  4042b6:	2800      	cmp	r0, #0
  4042b8:	d1fa      	bne.n	4042b0 <usart_serial_getchar+0x2c>
  4042ba:	e015      	b.n	4042e8 <usart_serial_getchar+0x64>
	}
# endif
# ifdef UART2
	if (UART2 == (Uart*)p_usart) {
  4042bc:	4b21      	ldr	r3, [pc, #132]	; (404344 <usart_serial_getchar+0xc0>)
  4042be:	4298      	cmp	r0, r3
  4042c0:	d107      	bne.n	4042d2 <usart_serial_getchar+0x4e>
		while (uart_read((Uart*)p_usart, data));
  4042c2:	461f      	mov	r7, r3
  4042c4:	4e1d      	ldr	r6, [pc, #116]	; (40433c <usart_serial_getchar+0xb8>)
  4042c6:	4621      	mov	r1, r4
  4042c8:	4638      	mov	r0, r7
  4042ca:	47b0      	blx	r6
  4042cc:	2800      	cmp	r0, #0
  4042ce:	d1fa      	bne.n	4042c6 <usart_serial_getchar+0x42>
  4042d0:	e017      	b.n	404302 <usart_serial_getchar+0x7e>
	}
# endif
# ifdef UART3
	if (UART3 == (Uart*)p_usart) {
  4042d2:	4b1d      	ldr	r3, [pc, #116]	; (404348 <usart_serial_getchar+0xc4>)
  4042d4:	429d      	cmp	r5, r3
  4042d6:	d107      	bne.n	4042e8 <usart_serial_getchar+0x64>
		while (uart_read((Uart*)p_usart, data));
  4042d8:	461f      	mov	r7, r3
  4042da:	4e18      	ldr	r6, [pc, #96]	; (40433c <usart_serial_getchar+0xb8>)
  4042dc:	4621      	mov	r1, r4
  4042de:	4638      	mov	r0, r7
  4042e0:	47b0      	blx	r6
  4042e2:	2800      	cmp	r0, #0
  4042e4:	d1fa      	bne.n	4042dc <usart_serial_getchar+0x58>
  4042e6:	e019      	b.n	40431c <usart_serial_getchar+0x98>
		while (usart_read(p_usart, &val));
		*data = (uint8_t)(val & 0xFF);
	}
#else
# ifdef USART0
	if (USART0 == p_usart) {
  4042e8:	4b18      	ldr	r3, [pc, #96]	; (40434c <usart_serial_getchar+0xc8>)
  4042ea:	429d      	cmp	r5, r3
  4042ec:	d109      	bne.n	404302 <usart_serial_getchar+0x7e>
		while (usart_read(p_usart, &val));
  4042ee:	461e      	mov	r6, r3
  4042f0:	4d17      	ldr	r5, [pc, #92]	; (404350 <usart_serial_getchar+0xcc>)
  4042f2:	a901      	add	r1, sp, #4
  4042f4:	4630      	mov	r0, r6
  4042f6:	47a8      	blx	r5
  4042f8:	2800      	cmp	r0, #0
  4042fa:	d1fa      	bne.n	4042f2 <usart_serial_getchar+0x6e>
		*data = (uint8_t)(val & 0xFF);
  4042fc:	9b01      	ldr	r3, [sp, #4]
  4042fe:	7023      	strb	r3, [r4, #0]
  404300:	e018      	b.n	404334 <usart_serial_getchar+0xb0>
	}
# endif
# ifdef USART1
	if (USART1 == p_usart) {
  404302:	4b14      	ldr	r3, [pc, #80]	; (404354 <usart_serial_getchar+0xd0>)
  404304:	429d      	cmp	r5, r3
  404306:	d109      	bne.n	40431c <usart_serial_getchar+0x98>
		while (usart_read(p_usart, &val));
  404308:	461e      	mov	r6, r3
  40430a:	4d11      	ldr	r5, [pc, #68]	; (404350 <usart_serial_getchar+0xcc>)
  40430c:	a901      	add	r1, sp, #4
  40430e:	4630      	mov	r0, r6
  404310:	47a8      	blx	r5
  404312:	2800      	cmp	r0, #0
  404314:	d1fa      	bne.n	40430c <usart_serial_getchar+0x88>
		*data = (uint8_t)(val & 0xFF);
  404316:	9b01      	ldr	r3, [sp, #4]
  404318:	7023      	strb	r3, [r4, #0]
  40431a:	e00b      	b.n	404334 <usart_serial_getchar+0xb0>
	}
# endif
# ifdef USART2
	if (USART2 == p_usart) {
  40431c:	4b0e      	ldr	r3, [pc, #56]	; (404358 <usart_serial_getchar+0xd4>)
  40431e:	429d      	cmp	r5, r3
  404320:	d108      	bne.n	404334 <usart_serial_getchar+0xb0>
		while (usart_read(p_usart, &val));
  404322:	461e      	mov	r6, r3
  404324:	4d0a      	ldr	r5, [pc, #40]	; (404350 <usart_serial_getchar+0xcc>)
  404326:	a901      	add	r1, sp, #4
  404328:	4630      	mov	r0, r6
  40432a:	47a8      	blx	r5
  40432c:	2800      	cmp	r0, #0
  40432e:	d1fa      	bne.n	404326 <usart_serial_getchar+0xa2>
		*data = (uint8_t)(val & 0xFF);
  404330:	9b01      	ldr	r3, [sp, #4]
  404332:	7023      	strb	r3, [r4, #0]
		*data = (uint8_t)(val & 0xFF);
	}
# endif
#endif /* ifdef USART */

}
  404334:	b003      	add	sp, #12
  404336:	bdf0      	pop	{r4, r5, r6, r7, pc}
  404338:	400e0800 	.word	0x400e0800
  40433c:	00403b65 	.word	0x00403b65
  404340:	400e0a00 	.word	0x400e0a00
  404344:	400e1a00 	.word	0x400e1a00
  404348:	400e1c00 	.word	0x400e1c00
  40434c:	40024000 	.word	0x40024000
  404350:	00403c7d 	.word	0x00403c7d
  404354:	40028000 	.word	0x40028000
  404358:	4002c000 	.word	0x4002c000

0040435c <usart_serial_putchar>:
 *   \retval 1  The character was written.
 *   \retval 0  The function timed out before the USART transmitter became
 * ready to send.
 */
static inline int usart_serial_putchar(usart_if p_usart, const uint8_t c)
{
  40435c:	b570      	push	{r4, r5, r6, lr}
  40435e:	460c      	mov	r4, r1
		while (uart_write((Uart*)p_usart, c)!=0);
		return 1;
	}
#else
# ifdef UART0
	if (UART0 == (Uart*)p_usart) {
  404360:	4b2a      	ldr	r3, [pc, #168]	; (40440c <usart_serial_putchar+0xb0>)
  404362:	4298      	cmp	r0, r3
  404364:	d108      	bne.n	404378 <usart_serial_putchar+0x1c>
		while (uart_write((Uart*)p_usart, c)!=0);
  404366:	461e      	mov	r6, r3
  404368:	4d29      	ldr	r5, [pc, #164]	; (404410 <usart_serial_putchar+0xb4>)
  40436a:	4621      	mov	r1, r4
  40436c:	4630      	mov	r0, r6
  40436e:	47a8      	blx	r5
  404370:	2800      	cmp	r0, #0
  404372:	d1fa      	bne.n	40436a <usart_serial_putchar+0xe>
		return 1;
  404374:	2001      	movs	r0, #1
  404376:	bd70      	pop	{r4, r5, r6, pc}
	}
# endif
# ifdef UART1
	if (UART1 == (Uart*)p_usart) {
  404378:	4b26      	ldr	r3, [pc, #152]	; (404414 <usart_serial_putchar+0xb8>)
  40437a:	4298      	cmp	r0, r3
  40437c:	d108      	bne.n	404390 <usart_serial_putchar+0x34>
		while (uart_write((Uart*)p_usart, c)!=0);
  40437e:	461e      	mov	r6, r3
  404380:	4d23      	ldr	r5, [pc, #140]	; (404410 <usart_serial_putchar+0xb4>)
  404382:	4621      	mov	r1, r4
  404384:	4630      	mov	r0, r6
  404386:	47a8      	blx	r5
  404388:	2800      	cmp	r0, #0
  40438a:	d1fa      	bne.n	404382 <usart_serial_putchar+0x26>
		return 1;
  40438c:	2001      	movs	r0, #1
  40438e:	bd70      	pop	{r4, r5, r6, pc}
	}
# endif
# ifdef UART2
	if (UART2 == (Uart*)p_usart) {
  404390:	4b21      	ldr	r3, [pc, #132]	; (404418 <usart_serial_putchar+0xbc>)
  404392:	4298      	cmp	r0, r3
  404394:	d108      	bne.n	4043a8 <usart_serial_putchar+0x4c>
		while (uart_write((Uart*)p_usart, c)!=0);
  404396:	461e      	mov	r6, r3
  404398:	4d1d      	ldr	r5, [pc, #116]	; (404410 <usart_serial_putchar+0xb4>)
  40439a:	4621      	mov	r1, r4
  40439c:	4630      	mov	r0, r6
  40439e:	47a8      	blx	r5
  4043a0:	2800      	cmp	r0, #0
  4043a2:	d1fa      	bne.n	40439a <usart_serial_putchar+0x3e>
		return 1;
  4043a4:	2001      	movs	r0, #1
  4043a6:	bd70      	pop	{r4, r5, r6, pc}
	}
# endif
# ifdef UART3
	if (UART3 == (Uart*)p_usart) {
  4043a8:	4b1c      	ldr	r3, [pc, #112]	; (40441c <usart_serial_putchar+0xc0>)
  4043aa:	4298      	cmp	r0, r3
  4043ac:	d108      	bne.n	4043c0 <usart_serial_putchar+0x64>
		while (uart_write((Uart*)p_usart, c)!=0);
  4043ae:	461e      	mov	r6, r3
  4043b0:	4d17      	ldr	r5, [pc, #92]	; (404410 <usart_serial_putchar+0xb4>)
  4043b2:	4621      	mov	r1, r4
  4043b4:	4630      	mov	r0, r6
  4043b6:	47a8      	blx	r5
  4043b8:	2800      	cmp	r0, #0
  4043ba:	d1fa      	bne.n	4043b2 <usart_serial_putchar+0x56>
		return 1;
  4043bc:	2001      	movs	r0, #1
  4043be:	bd70      	pop	{r4, r5, r6, pc}
		while (usart_write(p_usart, c)!=0);
		return 1;
	}
#else
# ifdef USART0
	if (USART0 == p_usart) {
  4043c0:	4b17      	ldr	r3, [pc, #92]	; (404420 <usart_serial_putchar+0xc4>)
  4043c2:	4298      	cmp	r0, r3
  4043c4:	d108      	bne.n	4043d8 <usart_serial_putchar+0x7c>
		while (usart_write(p_usart, c)!=0);
  4043c6:	461e      	mov	r6, r3
  4043c8:	4d16      	ldr	r5, [pc, #88]	; (404424 <usart_serial_putchar+0xc8>)
  4043ca:	4621      	mov	r1, r4
  4043cc:	4630      	mov	r0, r6
  4043ce:	47a8      	blx	r5
  4043d0:	2800      	cmp	r0, #0
  4043d2:	d1fa      	bne.n	4043ca <usart_serial_putchar+0x6e>
		return 1;
  4043d4:	2001      	movs	r0, #1
  4043d6:	bd70      	pop	{r4, r5, r6, pc}
	}
# endif
# ifdef USART1
	if (USART1 == p_usart) {
  4043d8:	4b13      	ldr	r3, [pc, #76]	; (404428 <usart_serial_putchar+0xcc>)
  4043da:	4298      	cmp	r0, r3
  4043dc:	d108      	bne.n	4043f0 <usart_serial_putchar+0x94>
		while (usart_write(p_usart, c)!=0);
  4043de:	461e      	mov	r6, r3
  4043e0:	4d10      	ldr	r5, [pc, #64]	; (404424 <usart_serial_putchar+0xc8>)
  4043e2:	4621      	mov	r1, r4
  4043e4:	4630      	mov	r0, r6
  4043e6:	47a8      	blx	r5
  4043e8:	2800      	cmp	r0, #0
  4043ea:	d1fa      	bne.n	4043e2 <usart_serial_putchar+0x86>
		return 1;
  4043ec:	2001      	movs	r0, #1
  4043ee:	bd70      	pop	{r4, r5, r6, pc}
	}
# endif
# ifdef USART2
	if (USART2 == p_usart) {
  4043f0:	4b0e      	ldr	r3, [pc, #56]	; (40442c <usart_serial_putchar+0xd0>)
  4043f2:	4298      	cmp	r0, r3
  4043f4:	d108      	bne.n	404408 <usart_serial_putchar+0xac>
		while (usart_write(p_usart, c)!=0);
  4043f6:	461e      	mov	r6, r3
  4043f8:	4d0a      	ldr	r5, [pc, #40]	; (404424 <usart_serial_putchar+0xc8>)
  4043fa:	4621      	mov	r1, r4
  4043fc:	4630      	mov	r0, r6
  4043fe:	47a8      	blx	r5
  404400:	2800      	cmp	r0, #0
  404402:	d1fa      	bne.n	4043fa <usart_serial_putchar+0x9e>
		return 1;
  404404:	2001      	movs	r0, #1
  404406:	bd70      	pop	{r4, r5, r6, pc}
		return 1;
	}
# endif
#endif /* ifdef USART */

	return 0;
  404408:	2000      	movs	r0, #0
}
  40440a:	bd70      	pop	{r4, r5, r6, pc}
  40440c:	400e0800 	.word	0x400e0800
  404410:	00403b51 	.word	0x00403b51
  404414:	400e0a00 	.word	0x400e0a00
  404418:	400e1a00 	.word	0x400e1a00
  40441c:	400e1c00 	.word	0x400e1c00
  404420:	40024000 	.word	0x40024000
  404424:	00403c65 	.word	0x00403c65
  404428:	40028000 	.word	0x40028000
  40442c:	4002c000 	.word	0x4002c000

00404430 <RTC_Handler>:

uint32_t g_nMensagensRx = 0 ;


void RTC_Handler(void)
{
  404430:	b510      	push	{r4, lr}
	uint32_t status = rtc_get_status(RTC);
  404432:	480b      	ldr	r0, [pc, #44]	; (404460 <RTC_Handler+0x30>)
  404434:	4b0b      	ldr	r3, [pc, #44]	; (404464 <RTC_Handler+0x34>)
  404436:	4798      	blx	r3
  404438:	4604      	mov	r4, r0

	// Second increment interrupt (why
	// is this even a thing...)
	if ((status & RTC_SR_SEC) == RTC_SR_SEC) {
  40443a:	f010 0f04 	tst.w	r0, #4
  40443e:	d003      	beq.n	404448 <RTC_Handler+0x18>
		rtc_clear_status(RTC, RTC_SCCR_SECCLR);
  404440:	2104      	movs	r1, #4
  404442:	4807      	ldr	r0, [pc, #28]	; (404460 <RTC_Handler+0x30>)
  404444:	4b08      	ldr	r3, [pc, #32]	; (404468 <RTC_Handler+0x38>)
  404446:	4798      	blx	r3
		// time or date alarm (AKA what we want)
	}
	if ((status & RTC_SR_ALARM) == RTC_SR_ALARM) {
  404448:	f014 0f02 	tst.w	r4, #2
  40444c:	d006      	beq.n	40445c <RTC_Handler+0x2c>
		rtc_clear_status(RTC, RTC_SCCR_ALRCLR);
  40444e:	2102      	movs	r1, #2
  404450:	4803      	ldr	r0, [pc, #12]	; (404460 <RTC_Handler+0x30>)
  404452:	4b05      	ldr	r3, [pc, #20]	; (404468 <RTC_Handler+0x38>)
  404454:	4798      	blx	r3
		puts("ALERTA CAFE!");
  404456:	4805      	ldr	r0, [pc, #20]	; (40446c <RTC_Handler+0x3c>)
  404458:	4b05      	ldr	r3, [pc, #20]	; (404470 <RTC_Handler+0x40>)
  40445a:	4798      	blx	r3
  40445c:	bd10      	pop	{r4, pc}
  40445e:	bf00      	nop
  404460:	400e1860 	.word	0x400e1860
  404464:	00400459 	.word	0x00400459
  404468:	0040045d 	.word	0x0040045d
  40446c:	004091f4 	.word	0x004091f4
  404470:	00404d79 	.word	0x00404d79

00404474 <main>:
 * Initialize system, UART console, network then test function of TCP server.
 *
 * \return program return value.
 */
int main(void)
{
  404474:	b5f0      	push	{r4, r5, r6, r7, lr}
  404476:	b093      	sub	sp, #76	; 0x4c
	tstrWifiInitParam param;
	int8_t ret;
	struct sockaddr_in addr;

	/* Initialize the board. */
	sysclk_init();
  404478:	4b50      	ldr	r3, [pc, #320]	; (4045bc <main+0x148>)
  40447a:	4798      	blx	r3
	board_init();
  40447c:	4b50      	ldr	r3, [pc, #320]	; (4045c0 <main+0x14c>)
  40447e:	4798      	blx	r3

	PMC->PMC_PCER0 = (1<<LED_PIO_ID);
  404480:	4b50      	ldr	r3, [pc, #320]	; (4045c4 <main+0x150>)
  404482:	f44f 5280 	mov.w	r2, #4096	; 0x1000
  404486:	611a      	str	r2, [r3, #16]
	PIOC->PIO_OER = (1 << 8);
  404488:	4a4f      	ldr	r2, [pc, #316]	; (4045c8 <main+0x154>)
  40448a:	f44f 7180 	mov.w	r1, #256	; 0x100
  40448e:	6111      	str	r1, [r2, #16]
	PIOC->PIO_PER = (1 << 8);
  404490:	6011      	str	r1, [r2, #0]

	PMC->PMC_PCER0 = (1<<CAFETERIA_PIO_ID);
  404492:	f44f 6400 	mov.w	r4, #2048	; 0x800
  404496:	611c      	str	r4, [r3, #16]
	CAFETERIA_PIO->PIO_OER = CAFETERIA_PIN_MASK;
  404498:	f503 6320 	add.w	r3, r3, #2560	; 0xa00
  40449c:	2602      	movs	r6, #2
  40449e:	611e      	str	r6, [r3, #16]
	CAFETERIA_PIO->PIO_PER = CAFETERIA_PIN_MASK;
  4044a0:	601e      	str	r6, [r3, #0]
  4044a2:	200e      	movs	r0, #14
  4044a4:	4f49      	ldr	r7, [pc, #292]	; (4045cc <main+0x158>)
  4044a6:	47b8      	blx	r7
 * \param opt         Options needed to set up RS232 communication (see \ref usart_options_t).
 *
 */
static inline void stdio_serial_init(volatile void *usart, const usart_serial_options_t *opt)
{
	stdio_base = (void *)usart;
  4044a8:	4d49      	ldr	r5, [pc, #292]	; (4045d0 <main+0x15c>)
  4044aa:	4b4a      	ldr	r3, [pc, #296]	; (4045d4 <main+0x160>)
  4044ac:	601d      	str	r5, [r3, #0]
	ptr_put = (int (*)(void volatile*,char))&usart_serial_putchar;
  4044ae:	4a4a      	ldr	r2, [pc, #296]	; (4045d8 <main+0x164>)
  4044b0:	4b4a      	ldr	r3, [pc, #296]	; (4045dc <main+0x168>)
  4044b2:	601a      	str	r2, [r3, #0]
	ptr_get = (void (*)(void volatile*,char*))&usart_serial_getchar;
  4044b4:	4a4a      	ldr	r2, [pc, #296]	; (4045e0 <main+0x16c>)
  4044b6:	4b4b      	ldr	r3, [pc, #300]	; (4045e4 <main+0x170>)
  4044b8:	601a      	str	r2, [r3, #0]
	uart_settings.ul_baudrate = opt->baudrate;
	uart_settings.ul_mode = opt->paritytype;
#endif

	sam_usart_opt_t usart_settings;
	usart_settings.baudrate = opt->baudrate;
  4044ba:	f44f 33e1 	mov.w	r3, #115200	; 0x1c200
  4044be:	9302      	str	r3, [sp, #8]
	usart_settings.char_length = opt->charlength;
  4044c0:	23c0      	movs	r3, #192	; 0xc0
  4044c2:	9303      	str	r3, [sp, #12]
	usart_settings.parity_type = opt->paritytype;
  4044c4:	9404      	str	r4, [sp, #16]
	usart_settings.stop_bits= opt->stopbits;
  4044c6:	2400      	movs	r4, #0
  4044c8:	9405      	str	r4, [sp, #20]
	usart_settings.channel_mode= US_MR_CHMODE_NORMAL;
  4044ca:	9406      	str	r4, [sp, #24]
  4044cc:	200e      	movs	r0, #14
  4044ce:	47b8      	blx	r7
		flexcom_set_opmode(FLEXCOM1, FLEXCOM_USART);
#else
		sysclk_enable_peripheral_clock(ID_USART1);
#endif
		/* Configure USART */
		usart_init_rs232(p_usart, &usart_settings,
  4044d0:	4a45      	ldr	r2, [pc, #276]	; (4045e8 <main+0x174>)
  4044d2:	a902      	add	r1, sp, #8
  4044d4:	4628      	mov	r0, r5
  4044d6:	4b45      	ldr	r3, [pc, #276]	; (4045ec <main+0x178>)
  4044d8:	4798      	blx	r3
		/* Configure USART */
		usart_init_rs232(p_usart, &usart_settings,
				sysclk_get_peripheral_bus_hz(p_usart));
#endif
		/* Enable the receiver and transmitter. */
		usart_enable_tx(p_usart);
  4044da:	4628      	mov	r0, r5
  4044dc:	4b44      	ldr	r3, [pc, #272]	; (4045f0 <main+0x17c>)
  4044de:	4798      	blx	r3
		usart_enable_rx(p_usart);
  4044e0:	4628      	mov	r0, r5
  4044e2:	4b44      	ldr	r3, [pc, #272]	; (4045f4 <main+0x180>)
  4044e4:	4798      	blx	r3
	fdevopen((int (*)(char, FILE*))(_write),(int (*)(FILE*))(_read));
#  endif
#  if UC3 || SAM
	// For AVR32 and SAM GCC
	// Specify that stdout and stdin should not be buffered.
	setbuf(stdout, NULL);
  4044e6:	4f44      	ldr	r7, [pc, #272]	; (4045f8 <main+0x184>)
  4044e8:	683b      	ldr	r3, [r7, #0]
  4044ea:	4621      	mov	r1, r4
  4044ec:	6898      	ldr	r0, [r3, #8]
  4044ee:	4d43      	ldr	r5, [pc, #268]	; (4045fc <main+0x188>)
  4044f0:	47a8      	blx	r5
	setbuf(stdin, NULL);
  4044f2:	683b      	ldr	r3, [r7, #0]
  4044f4:	4621      	mov	r1, r4
  4044f6:	6858      	ldr	r0, [r3, #4]
  4044f8:	47a8      	blx	r5

	/* Initialize the UART console. */
	configure_console();
	puts("BOARD INITIALIZED");
  4044fa:	4841      	ldr	r0, [pc, #260]	; (404600 <main+0x18c>)
  4044fc:	4d41      	ldr	r5, [pc, #260]	; (404604 <main+0x190>)
  4044fe:	47a8      	blx	r5
	printf(STRING_HEADER);
  404500:	4841      	ldr	r0, [pc, #260]	; (404608 <main+0x194>)
  404502:	4b42      	ldr	r3, [pc, #264]	; (40460c <main+0x198>)
  404504:	4798      	blx	r3

	/* Initialize the BSP. */
	nm_bsp_init();
  404506:	4b42      	ldr	r3, [pc, #264]	; (404610 <main+0x19c>)
  404508:	4798      	blx	r3

	// Initialize RTC
	rtc_init();
  40450a:	4b42      	ldr	r3, [pc, #264]	; (404614 <main+0x1a0>)
  40450c:	4798      	blx	r3
	puts("RTC INITIATED");
  40450e:	4842      	ldr	r0, [pc, #264]	; (404618 <main+0x1a4>)
  404510:	47a8      	blx	r5

	/* Initialize socket address structure. */
	addr.sin_family = AF_INET;
  404512:	f8ad 6020 	strh.w	r6, [sp, #32]
	addr.sin_port = _htons(MAIN_WIFI_M2M_SERVER_PORT);
  404516:	f640 231a 	movw	r3, #2586	; 0xa1a
  40451a:	f8ad 3022 	strh.w	r3, [sp, #34]	; 0x22
	addr.sin_addr.s_addr = 0;
  40451e:	9409      	str	r4, [sp, #36]	; 0x24

	/* Initialize Wi-Fi parameters structure. */
	memset((uint8_t *)&param, 0, sizeof(tstrWifiInitParam));
  404520:	940d      	str	r4, [sp, #52]	; 0x34
  404522:	940e      	str	r4, [sp, #56]	; 0x38
  404524:	940f      	str	r4, [sp, #60]	; 0x3c
  404526:	9410      	str	r4, [sp, #64]	; 0x40
  404528:	9411      	str	r4, [sp, #68]	; 0x44

	/* Initialize Wi-Fi driver with data and status callbacks. */
	param.pfAppWifiCb = wifi_cb;
  40452a:	4b3c      	ldr	r3, [pc, #240]	; (40461c <main+0x1a8>)
  40452c:	930c      	str	r3, [sp, #48]	; 0x30
	ret = m2m_wifi_init(&param);
  40452e:	a80c      	add	r0, sp, #48	; 0x30
  404530:	4b3b      	ldr	r3, [pc, #236]	; (404620 <main+0x1ac>)
  404532:	4798      	blx	r3
	if (M2M_SUCCESS != ret) {
  404534:	b120      	cbz	r0, 404540 <main+0xcc>
  404536:	4601      	mov	r1, r0
		printf("main: m2m_wifi_init call error!(%d)\r\n", ret);
  404538:	483a      	ldr	r0, [pc, #232]	; (404624 <main+0x1b0>)
  40453a:	4b34      	ldr	r3, [pc, #208]	; (40460c <main+0x198>)
  40453c:	4798      	blx	r3
  40453e:	e7fe      	b.n	40453e <main+0xca>
		while (1) {
		}
	}
	puts("WIFI INITIATED");
  404540:	4839      	ldr	r0, [pc, #228]	; (404628 <main+0x1b4>)
  404542:	4c30      	ldr	r4, [pc, #192]	; (404604 <main+0x190>)
  404544:	47a0      	blx	r4

	/* Initialize socket module */
	socketInit();
  404546:	4b39      	ldr	r3, [pc, #228]	; (40462c <main+0x1b8>)
  404548:	4798      	blx	r3
	registerSocketCallback(socket_cb, NULL);
  40454a:	2100      	movs	r1, #0
  40454c:	4838      	ldr	r0, [pc, #224]	; (404630 <main+0x1bc>)
  40454e:	4b39      	ldr	r3, [pc, #228]	; (404634 <main+0x1c0>)
  404550:	4798      	blx	r3

	/* Connect to router. */
	m2m_wifi_connect((char *)MAIN_WLAN_SSID, sizeof(MAIN_WLAN_SSID), MAIN_WLAN_AUTH, (char *)MAIN_WLAN_PSK, M2M_WIFI_CH_ALL);
  404552:	23ff      	movs	r3, #255	; 0xff
  404554:	9300      	str	r3, [sp, #0]
  404556:	4b38      	ldr	r3, [pc, #224]	; (404638 <main+0x1c4>)
  404558:	2202      	movs	r2, #2
  40455a:	2105      	movs	r1, #5
  40455c:	4837      	ldr	r0, [pc, #220]	; (40463c <main+0x1c8>)
  40455e:	4d38      	ldr	r5, [pc, #224]	; (404640 <main+0x1cc>)
  404560:	47a8      	blx	r5

	char was_conn = 0;
	puts("trying to connect...");
  404562:	4838      	ldr	r0, [pc, #224]	; (404644 <main+0x1d0>)
  404564:	47a0      	blx	r4
	registerSocketCallback(socket_cb, NULL);

	/* Connect to router. */
	m2m_wifi_connect((char *)MAIN_WLAN_SSID, sizeof(MAIN_WLAN_SSID), MAIN_WLAN_AUTH, (char *)MAIN_WLAN_PSK, M2M_WIFI_CH_ALL);

	char was_conn = 0;
  404566:	2400      	movs	r4, #0
	puts("trying to connect...");
	while (1) {
		/* Handle pending events from network controller. */
		m2m_wifi_handle_events(NULL);
  404568:	4f37      	ldr	r7, [pc, #220]	; (404648 <main+0x1d4>)

		if (wifi_connected == M2M_WIFI_CONNECTED) {
  40456a:	4e38      	ldr	r6, [pc, #224]	; (40464c <main+0x1d8>)
			was_conn = 1;
			if (tcp_server_socket < 0) {
  40456c:	4d38      	ldr	r5, [pc, #224]	; (404650 <main+0x1dc>)
  40456e:	e000      	b.n	404572 <main+0xfe>
	while (1) {
		/* Handle pending events from network controller. */
		m2m_wifi_handle_events(NULL);

		if (wifi_connected == M2M_WIFI_CONNECTED) {
			was_conn = 1;
  404570:	2401      	movs	r4, #1

	char was_conn = 0;
	puts("trying to connect...");
	while (1) {
		/* Handle pending events from network controller. */
		m2m_wifi_handle_events(NULL);
  404572:	2000      	movs	r0, #0
  404574:	47b8      	blx	r7

		if (wifi_connected == M2M_WIFI_CONNECTED) {
  404576:	7833      	ldrb	r3, [r6, #0]
  404578:	2b01      	cmp	r3, #1
  40457a:	d116      	bne.n	4045aa <main+0x136>
			was_conn = 1;
			if (tcp_server_socket < 0) {
  40457c:	f995 3000 	ldrsb.w	r3, [r5]
  404580:	2b00      	cmp	r3, #0
  404582:	daf5      	bge.n	404570 <main+0xfc>
				/* Open TCP server socket */
				if ((tcp_server_socket = socket(AF_INET, SOCK_STREAM, 0)) < 0) {
  404584:	2200      	movs	r2, #0
  404586:	2101      	movs	r1, #1
  404588:	2002      	movs	r0, #2
  40458a:	4b32      	ldr	r3, [pc, #200]	; (404654 <main+0x1e0>)
  40458c:	4798      	blx	r3
  40458e:	7028      	strb	r0, [r5, #0]
  404590:	2800      	cmp	r0, #0
  404592:	da04      	bge.n	40459e <main+0x12a>
					printf("main: failed to create TCP server socket error!\r\n");
  404594:	4830      	ldr	r0, [pc, #192]	; (404658 <main+0x1e4>)
  404596:	4b1d      	ldr	r3, [pc, #116]	; (40460c <main+0x198>)
  404598:	4798      	blx	r3
	while (1) {
		/* Handle pending events from network controller. */
		m2m_wifi_handle_events(NULL);

		if (wifi_connected == M2M_WIFI_CONNECTED) {
			was_conn = 1;
  40459a:	2401      	movs	r4, #1
			if (tcp_server_socket < 0) {
				/* Open TCP server socket */
				if ((tcp_server_socket = socket(AF_INET, SOCK_STREAM, 0)) < 0) {
					printf("main: failed to create TCP server socket error!\r\n");
					continue;
  40459c:	e7e9      	b.n	404572 <main+0xfe>
				}

				/* Bind service*/
				bind(tcp_server_socket, (struct sockaddr *)&addr, sizeof(struct sockaddr_in));
  40459e:	2210      	movs	r2, #16
  4045a0:	a908      	add	r1, sp, #32
  4045a2:	4b2e      	ldr	r3, [pc, #184]	; (40465c <main+0x1e8>)
  4045a4:	4798      	blx	r3
	while (1) {
		/* Handle pending events from network controller. */
		m2m_wifi_handle_events(NULL);

		if (wifi_connected == M2M_WIFI_CONNECTED) {
			was_conn = 1;
  4045a6:	2401      	movs	r4, #1
  4045a8:	e7e3      	b.n	404572 <main+0xfe>
				}

				/* Bind service*/
				bind(tcp_server_socket, (struct sockaddr *)&addr, sizeof(struct sockaddr_in));
			}
		} else if (was_conn) {
  4045aa:	2c00      	cmp	r4, #0
  4045ac:	d0e1      	beq.n	404572 <main+0xfe>
			printf("Connection lost.\n");
  4045ae:	482c      	ldr	r0, [pc, #176]	; (404660 <main+0x1ec>)
  4045b0:	4b16      	ldr	r3, [pc, #88]	; (40460c <main+0x198>)
  4045b2:	4798      	blx	r3
			break;
		}
	}

	return 0;
}
  4045b4:	2000      	movs	r0, #0
  4045b6:	b013      	add	sp, #76	; 0x4c
  4045b8:	bdf0      	pop	{r4, r5, r6, r7, pc}
  4045ba:	bf00      	nop
  4045bc:	004031d1 	.word	0x004031d1
  4045c0:	004032cd 	.word	0x004032cd
  4045c4:	400e0600 	.word	0x400e0600
  4045c8:	400e1200 	.word	0x400e1200
  4045cc:	00403995 	.word	0x00403995
  4045d0:	40028000 	.word	0x40028000
  4045d4:	20401010 	.word	0x20401010
  4045d8:	0040435d 	.word	0x0040435d
  4045dc:	2040100c 	.word	0x2040100c
  4045e0:	00404285 	.word	0x00404285
  4045e4:	20401008 	.word	0x20401008
  4045e8:	08f0d180 	.word	0x08f0d180
  4045ec:	00403c01 	.word	0x00403c01
  4045f0:	00403c55 	.word	0x00403c55
  4045f4:	00403c5d 	.word	0x00403c5d
  4045f8:	20400448 	.word	0x20400448
  4045fc:	00404dad 	.word	0x00404dad
  404600:	00409204 	.word	0x00409204
  404604:	00404d79 	.word	0x00404d79
  404608:	00409218 	.word	0x00409218
  40460c:	004046b5 	.word	0x004046b5
  404610:	00400735 	.word	0x00400735
  404614:	004005cd 	.word	0x004005cd
  404618:	00409278 	.word	0x00409278
  40461c:	00404205 	.word	0x00404205
  404620:	0040155d 	.word	0x0040155d
  404624:	00409288 	.word	0x00409288
  404628:	004092b0 	.word	0x004092b0
  40462c:	00402cf9 	.word	0x00402cf9
  404630:	00403f49 	.word	0x00403f49
  404634:	00402d3d 	.word	0x00402d3d
  404638:	004091a8 	.word	0x004091a8
  40463c:	004091b4 	.word	0x004091b4
  404640:	004018a9 	.word	0x004018a9
  404644:	004092c0 	.word	0x004092c0
  404648:	00401659 	.word	0x00401659
  40464c:	20400f10 	.word	0x20400f10
  404650:	2040001d 	.word	0x2040001d
  404654:	00402d51 	.word	0x00402d51
  404658:	004092d8 	.word	0x004092d8
  40465c:	00402e31 	.word	0x00402e31
  404660:	0040930c 	.word	0x0040930c

00404664 <__libc_init_array>:
  404664:	b570      	push	{r4, r5, r6, lr}
  404666:	4e0f      	ldr	r6, [pc, #60]	; (4046a4 <__libc_init_array+0x40>)
  404668:	4d0f      	ldr	r5, [pc, #60]	; (4046a8 <__libc_init_array+0x44>)
  40466a:	1b76      	subs	r6, r6, r5
  40466c:	10b6      	asrs	r6, r6, #2
  40466e:	bf18      	it	ne
  404670:	2400      	movne	r4, #0
  404672:	d005      	beq.n	404680 <__libc_init_array+0x1c>
  404674:	3401      	adds	r4, #1
  404676:	f855 3b04 	ldr.w	r3, [r5], #4
  40467a:	4798      	blx	r3
  40467c:	42a6      	cmp	r6, r4
  40467e:	d1f9      	bne.n	404674 <__libc_init_array+0x10>
  404680:	4e0a      	ldr	r6, [pc, #40]	; (4046ac <__libc_init_array+0x48>)
  404682:	4d0b      	ldr	r5, [pc, #44]	; (4046b0 <__libc_init_array+0x4c>)
  404684:	1b76      	subs	r6, r6, r5
  404686:	f004 fe77 	bl	409378 <_init>
  40468a:	10b6      	asrs	r6, r6, #2
  40468c:	bf18      	it	ne
  40468e:	2400      	movne	r4, #0
  404690:	d006      	beq.n	4046a0 <__libc_init_array+0x3c>
  404692:	3401      	adds	r4, #1
  404694:	f855 3b04 	ldr.w	r3, [r5], #4
  404698:	4798      	blx	r3
  40469a:	42a6      	cmp	r6, r4
  40469c:	d1f9      	bne.n	404692 <__libc_init_array+0x2e>
  40469e:	bd70      	pop	{r4, r5, r6, pc}
  4046a0:	bd70      	pop	{r4, r5, r6, pc}
  4046a2:	bf00      	nop
  4046a4:	00409384 	.word	0x00409384
  4046a8:	00409384 	.word	0x00409384
  4046ac:	0040938c 	.word	0x0040938c
  4046b0:	00409384 	.word	0x00409384

004046b4 <iprintf>:
  4046b4:	b40f      	push	{r0, r1, r2, r3}
  4046b6:	b500      	push	{lr}
  4046b8:	4907      	ldr	r1, [pc, #28]	; (4046d8 <iprintf+0x24>)
  4046ba:	b083      	sub	sp, #12
  4046bc:	ab04      	add	r3, sp, #16
  4046be:	6808      	ldr	r0, [r1, #0]
  4046c0:	f853 2b04 	ldr.w	r2, [r3], #4
  4046c4:	6881      	ldr	r1, [r0, #8]
  4046c6:	9301      	str	r3, [sp, #4]
  4046c8:	f001 f8b0 	bl	40582c <_vfiprintf_r>
  4046cc:	b003      	add	sp, #12
  4046ce:	f85d eb04 	ldr.w	lr, [sp], #4
  4046d2:	b004      	add	sp, #16
  4046d4:	4770      	bx	lr
  4046d6:	bf00      	nop
  4046d8:	20400448 	.word	0x20400448

004046dc <malloc>:
  4046dc:	4b02      	ldr	r3, [pc, #8]	; (4046e8 <malloc+0xc>)
  4046de:	4601      	mov	r1, r0
  4046e0:	6818      	ldr	r0, [r3, #0]
  4046e2:	f000 b80b 	b.w	4046fc <_malloc_r>
  4046e6:	bf00      	nop
  4046e8:	20400448 	.word	0x20400448

004046ec <free>:
  4046ec:	4b02      	ldr	r3, [pc, #8]	; (4046f8 <free+0xc>)
  4046ee:	4601      	mov	r1, r0
  4046f0:	6818      	ldr	r0, [r3, #0]
  4046f2:	f002 ba45 	b.w	406b80 <_free_r>
  4046f6:	bf00      	nop
  4046f8:	20400448 	.word	0x20400448

004046fc <_malloc_r>:
  4046fc:	e92d 4ff0 	stmdb	sp!, {r4, r5, r6, r7, r8, r9, sl, fp, lr}
  404700:	f101 050b 	add.w	r5, r1, #11
  404704:	2d16      	cmp	r5, #22
  404706:	b083      	sub	sp, #12
  404708:	4606      	mov	r6, r0
  40470a:	f240 809f 	bls.w	40484c <_malloc_r+0x150>
  40470e:	f035 0507 	bics.w	r5, r5, #7
  404712:	f100 80bf 	bmi.w	404894 <_malloc_r+0x198>
  404716:	42a9      	cmp	r1, r5
  404718:	f200 80bc 	bhi.w	404894 <_malloc_r+0x198>
  40471c:	f000 faf4 	bl	404d08 <__malloc_lock>
  404720:	f5b5 7ffc 	cmp.w	r5, #504	; 0x1f8
  404724:	f0c0 829c 	bcc.w	404c60 <_malloc_r+0x564>
  404728:	0a6b      	lsrs	r3, r5, #9
  40472a:	f000 80ba 	beq.w	4048a2 <_malloc_r+0x1a6>
  40472e:	2b04      	cmp	r3, #4
  404730:	f200 8183 	bhi.w	404a3a <_malloc_r+0x33e>
  404734:	09a8      	lsrs	r0, r5, #6
  404736:	f100 0e39 	add.w	lr, r0, #57	; 0x39
  40473a:	ea4f 034e 	mov.w	r3, lr, lsl #1
  40473e:	3038      	adds	r0, #56	; 0x38
  404740:	4fc4      	ldr	r7, [pc, #784]	; (404a54 <_malloc_r+0x358>)
  404742:	eb07 0383 	add.w	r3, r7, r3, lsl #2
  404746:	f1a3 0108 	sub.w	r1, r3, #8
  40474a:	685c      	ldr	r4, [r3, #4]
  40474c:	42a1      	cmp	r1, r4
  40474e:	d107      	bne.n	404760 <_malloc_r+0x64>
  404750:	e0ac      	b.n	4048ac <_malloc_r+0x1b0>
  404752:	2a00      	cmp	r2, #0
  404754:	f280 80ac 	bge.w	4048b0 <_malloc_r+0x1b4>
  404758:	68e4      	ldr	r4, [r4, #12]
  40475a:	42a1      	cmp	r1, r4
  40475c:	f000 80a6 	beq.w	4048ac <_malloc_r+0x1b0>
  404760:	6863      	ldr	r3, [r4, #4]
  404762:	f023 0303 	bic.w	r3, r3, #3
  404766:	1b5a      	subs	r2, r3, r5
  404768:	2a0f      	cmp	r2, #15
  40476a:	ddf2      	ble.n	404752 <_malloc_r+0x56>
  40476c:	49b9      	ldr	r1, [pc, #740]	; (404a54 <_malloc_r+0x358>)
  40476e:	693c      	ldr	r4, [r7, #16]
  404770:	f101 0e08 	add.w	lr, r1, #8
  404774:	4574      	cmp	r4, lr
  404776:	f000 81b3 	beq.w	404ae0 <_malloc_r+0x3e4>
  40477a:	6863      	ldr	r3, [r4, #4]
  40477c:	f023 0303 	bic.w	r3, r3, #3
  404780:	1b5a      	subs	r2, r3, r5
  404782:	2a0f      	cmp	r2, #15
  404784:	f300 8199 	bgt.w	404aba <_malloc_r+0x3be>
  404788:	2a00      	cmp	r2, #0
  40478a:	f8c1 e014 	str.w	lr, [r1, #20]
  40478e:	f8c1 e010 	str.w	lr, [r1, #16]
  404792:	f280 809e 	bge.w	4048d2 <_malloc_r+0x1d6>
  404796:	f5b3 7f00 	cmp.w	r3, #512	; 0x200
  40479a:	f080 8167 	bcs.w	404a6c <_malloc_r+0x370>
  40479e:	08db      	lsrs	r3, r3, #3
  4047a0:	f103 0c01 	add.w	ip, r3, #1
  4047a4:	2201      	movs	r2, #1
  4047a6:	109b      	asrs	r3, r3, #2
  4047a8:	fa02 f303 	lsl.w	r3, r2, r3
  4047ac:	684a      	ldr	r2, [r1, #4]
  4047ae:	f851 803c 	ldr.w	r8, [r1, ip, lsl #3]
  4047b2:	f8c4 8008 	str.w	r8, [r4, #8]
  4047b6:	eb01 09cc 	add.w	r9, r1, ip, lsl #3
  4047ba:	431a      	orrs	r2, r3
  4047bc:	f1a9 0308 	sub.w	r3, r9, #8
  4047c0:	60e3      	str	r3, [r4, #12]
  4047c2:	604a      	str	r2, [r1, #4]
  4047c4:	f841 403c 	str.w	r4, [r1, ip, lsl #3]
  4047c8:	f8c8 400c 	str.w	r4, [r8, #12]
  4047cc:	1083      	asrs	r3, r0, #2
  4047ce:	2401      	movs	r4, #1
  4047d0:	409c      	lsls	r4, r3
  4047d2:	4294      	cmp	r4, r2
  4047d4:	f200 808a 	bhi.w	4048ec <_malloc_r+0x1f0>
  4047d8:	4214      	tst	r4, r2
  4047da:	d106      	bne.n	4047ea <_malloc_r+0xee>
  4047dc:	f020 0003 	bic.w	r0, r0, #3
  4047e0:	0064      	lsls	r4, r4, #1
  4047e2:	4214      	tst	r4, r2
  4047e4:	f100 0004 	add.w	r0, r0, #4
  4047e8:	d0fa      	beq.n	4047e0 <_malloc_r+0xe4>
  4047ea:	eb07 09c0 	add.w	r9, r7, r0, lsl #3
  4047ee:	46cc      	mov	ip, r9
  4047f0:	4680      	mov	r8, r0
  4047f2:	f8dc 100c 	ldr.w	r1, [ip, #12]
  4047f6:	458c      	cmp	ip, r1
  4047f8:	d107      	bne.n	40480a <_malloc_r+0x10e>
  4047fa:	e173      	b.n	404ae4 <_malloc_r+0x3e8>
  4047fc:	2a00      	cmp	r2, #0
  4047fe:	f280 8181 	bge.w	404b04 <_malloc_r+0x408>
  404802:	68c9      	ldr	r1, [r1, #12]
  404804:	458c      	cmp	ip, r1
  404806:	f000 816d 	beq.w	404ae4 <_malloc_r+0x3e8>
  40480a:	684b      	ldr	r3, [r1, #4]
  40480c:	f023 0303 	bic.w	r3, r3, #3
  404810:	1b5a      	subs	r2, r3, r5
  404812:	2a0f      	cmp	r2, #15
  404814:	ddf2      	ble.n	4047fc <_malloc_r+0x100>
  404816:	460c      	mov	r4, r1
  404818:	f8d1 c00c 	ldr.w	ip, [r1, #12]
  40481c:	f854 8f08 	ldr.w	r8, [r4, #8]!
  404820:	194b      	adds	r3, r1, r5
  404822:	f045 0501 	orr.w	r5, r5, #1
  404826:	604d      	str	r5, [r1, #4]
  404828:	f042 0101 	orr.w	r1, r2, #1
  40482c:	f8c8 c00c 	str.w	ip, [r8, #12]
  404830:	4630      	mov	r0, r6
  404832:	f8cc 8008 	str.w	r8, [ip, #8]
  404836:	617b      	str	r3, [r7, #20]
  404838:	613b      	str	r3, [r7, #16]
  40483a:	f8c3 e00c 	str.w	lr, [r3, #12]
  40483e:	f8c3 e008 	str.w	lr, [r3, #8]
  404842:	6059      	str	r1, [r3, #4]
  404844:	509a      	str	r2, [r3, r2]
  404846:	f000 fa61 	bl	404d0c <__malloc_unlock>
  40484a:	e01f      	b.n	40488c <_malloc_r+0x190>
  40484c:	2910      	cmp	r1, #16
  40484e:	d821      	bhi.n	404894 <_malloc_r+0x198>
  404850:	f000 fa5a 	bl	404d08 <__malloc_lock>
  404854:	2510      	movs	r5, #16
  404856:	2306      	movs	r3, #6
  404858:	2002      	movs	r0, #2
  40485a:	4f7e      	ldr	r7, [pc, #504]	; (404a54 <_malloc_r+0x358>)
  40485c:	eb07 0383 	add.w	r3, r7, r3, lsl #2
  404860:	f1a3 0208 	sub.w	r2, r3, #8
  404864:	685c      	ldr	r4, [r3, #4]
  404866:	4294      	cmp	r4, r2
  404868:	f000 8145 	beq.w	404af6 <_malloc_r+0x3fa>
  40486c:	6863      	ldr	r3, [r4, #4]
  40486e:	68e1      	ldr	r1, [r4, #12]
  404870:	68a5      	ldr	r5, [r4, #8]
  404872:	f023 0303 	bic.w	r3, r3, #3
  404876:	4423      	add	r3, r4
  404878:	4630      	mov	r0, r6
  40487a:	685a      	ldr	r2, [r3, #4]
  40487c:	60e9      	str	r1, [r5, #12]
  40487e:	f042 0201 	orr.w	r2, r2, #1
  404882:	608d      	str	r5, [r1, #8]
  404884:	605a      	str	r2, [r3, #4]
  404886:	f000 fa41 	bl	404d0c <__malloc_unlock>
  40488a:	3408      	adds	r4, #8
  40488c:	4620      	mov	r0, r4
  40488e:	b003      	add	sp, #12
  404890:	e8bd 8ff0 	ldmia.w	sp!, {r4, r5, r6, r7, r8, r9, sl, fp, pc}
  404894:	2400      	movs	r4, #0
  404896:	230c      	movs	r3, #12
  404898:	4620      	mov	r0, r4
  40489a:	6033      	str	r3, [r6, #0]
  40489c:	b003      	add	sp, #12
  40489e:	e8bd 8ff0 	ldmia.w	sp!, {r4, r5, r6, r7, r8, r9, sl, fp, pc}
  4048a2:	2380      	movs	r3, #128	; 0x80
  4048a4:	f04f 0e40 	mov.w	lr, #64	; 0x40
  4048a8:	203f      	movs	r0, #63	; 0x3f
  4048aa:	e749      	b.n	404740 <_malloc_r+0x44>
  4048ac:	4670      	mov	r0, lr
  4048ae:	e75d      	b.n	40476c <_malloc_r+0x70>
  4048b0:	4423      	add	r3, r4
  4048b2:	68e1      	ldr	r1, [r4, #12]
  4048b4:	685a      	ldr	r2, [r3, #4]
  4048b6:	68a5      	ldr	r5, [r4, #8]
  4048b8:	f042 0201 	orr.w	r2, r2, #1
  4048bc:	60e9      	str	r1, [r5, #12]
  4048be:	4630      	mov	r0, r6
  4048c0:	608d      	str	r5, [r1, #8]
  4048c2:	605a      	str	r2, [r3, #4]
  4048c4:	f000 fa22 	bl	404d0c <__malloc_unlock>
  4048c8:	3408      	adds	r4, #8
  4048ca:	4620      	mov	r0, r4
  4048cc:	b003      	add	sp, #12
  4048ce:	e8bd 8ff0 	ldmia.w	sp!, {r4, r5, r6, r7, r8, r9, sl, fp, pc}
  4048d2:	4423      	add	r3, r4
  4048d4:	4630      	mov	r0, r6
  4048d6:	685a      	ldr	r2, [r3, #4]
  4048d8:	f042 0201 	orr.w	r2, r2, #1
  4048dc:	605a      	str	r2, [r3, #4]
  4048de:	f000 fa15 	bl	404d0c <__malloc_unlock>
  4048e2:	3408      	adds	r4, #8
  4048e4:	4620      	mov	r0, r4
  4048e6:	b003      	add	sp, #12
  4048e8:	e8bd 8ff0 	ldmia.w	sp!, {r4, r5, r6, r7, r8, r9, sl, fp, pc}
  4048ec:	68bc      	ldr	r4, [r7, #8]
  4048ee:	6863      	ldr	r3, [r4, #4]
  4048f0:	f023 0803 	bic.w	r8, r3, #3
  4048f4:	45a8      	cmp	r8, r5
  4048f6:	d304      	bcc.n	404902 <_malloc_r+0x206>
  4048f8:	ebc5 0308 	rsb	r3, r5, r8
  4048fc:	2b0f      	cmp	r3, #15
  4048fe:	f300 808c 	bgt.w	404a1a <_malloc_r+0x31e>
  404902:	4b55      	ldr	r3, [pc, #340]	; (404a58 <_malloc_r+0x35c>)
  404904:	f8df 9160 	ldr.w	r9, [pc, #352]	; 404a68 <_malloc_r+0x36c>
  404908:	681a      	ldr	r2, [r3, #0]
  40490a:	f8d9 3000 	ldr.w	r3, [r9]
  40490e:	3301      	adds	r3, #1
  404910:	442a      	add	r2, r5
  404912:	eb04 0a08 	add.w	sl, r4, r8
  404916:	f000 8160 	beq.w	404bda <_malloc_r+0x4de>
  40491a:	f502 5280 	add.w	r2, r2, #4096	; 0x1000
  40491e:	320f      	adds	r2, #15
  404920:	f422 627f 	bic.w	r2, r2, #4080	; 0xff0
  404924:	f022 020f 	bic.w	r2, r2, #15
  404928:	4611      	mov	r1, r2
  40492a:	4630      	mov	r0, r6
  40492c:	9201      	str	r2, [sp, #4]
  40492e:	f000 fa2b 	bl	404d88 <_sbrk_r>
  404932:	f1b0 3fff 	cmp.w	r0, #4294967295
  404936:	4683      	mov	fp, r0
  404938:	9a01      	ldr	r2, [sp, #4]
  40493a:	f000 8158 	beq.w	404bee <_malloc_r+0x4f2>
  40493e:	4582      	cmp	sl, r0
  404940:	f200 80fc 	bhi.w	404b3c <_malloc_r+0x440>
  404944:	4b45      	ldr	r3, [pc, #276]	; (404a5c <_malloc_r+0x360>)
  404946:	6819      	ldr	r1, [r3, #0]
  404948:	45da      	cmp	sl, fp
  40494a:	4411      	add	r1, r2
  40494c:	6019      	str	r1, [r3, #0]
  40494e:	f000 8153 	beq.w	404bf8 <_malloc_r+0x4fc>
  404952:	f8d9 0000 	ldr.w	r0, [r9]
  404956:	f8df e110 	ldr.w	lr, [pc, #272]	; 404a68 <_malloc_r+0x36c>
  40495a:	3001      	adds	r0, #1
  40495c:	bf1b      	ittet	ne
  40495e:	ebca 0a0b 	rsbne	sl, sl, fp
  404962:	4451      	addne	r1, sl
  404964:	f8ce b000 	streq.w	fp, [lr]
  404968:	6019      	strne	r1, [r3, #0]
  40496a:	f01b 0107 	ands.w	r1, fp, #7
  40496e:	f000 8117 	beq.w	404ba0 <_malloc_r+0x4a4>
  404972:	f1c1 0008 	rsb	r0, r1, #8
  404976:	f5c1 5180 	rsb	r1, r1, #4096	; 0x1000
  40497a:	4483      	add	fp, r0
  40497c:	3108      	adds	r1, #8
  40497e:	445a      	add	r2, fp
  404980:	f3c2 020b 	ubfx	r2, r2, #0, #12
  404984:	ebc2 0901 	rsb	r9, r2, r1
  404988:	4649      	mov	r1, r9
  40498a:	4630      	mov	r0, r6
  40498c:	9301      	str	r3, [sp, #4]
  40498e:	f000 f9fb 	bl	404d88 <_sbrk_r>
  404992:	1c43      	adds	r3, r0, #1
  404994:	9b01      	ldr	r3, [sp, #4]
  404996:	f000 813f 	beq.w	404c18 <_malloc_r+0x51c>
  40499a:	ebcb 0200 	rsb	r2, fp, r0
  40499e:	444a      	add	r2, r9
  4049a0:	f042 0201 	orr.w	r2, r2, #1
  4049a4:	6819      	ldr	r1, [r3, #0]
  4049a6:	f8c7 b008 	str.w	fp, [r7, #8]
  4049aa:	4449      	add	r1, r9
  4049ac:	42bc      	cmp	r4, r7
  4049ae:	f8cb 2004 	str.w	r2, [fp, #4]
  4049b2:	6019      	str	r1, [r3, #0]
  4049b4:	f8df 90a4 	ldr.w	r9, [pc, #164]	; 404a5c <_malloc_r+0x360>
  4049b8:	d016      	beq.n	4049e8 <_malloc_r+0x2ec>
  4049ba:	f1b8 0f0f 	cmp.w	r8, #15
  4049be:	f240 80fd 	bls.w	404bbc <_malloc_r+0x4c0>
  4049c2:	6862      	ldr	r2, [r4, #4]
  4049c4:	f1a8 030c 	sub.w	r3, r8, #12
  4049c8:	f023 0307 	bic.w	r3, r3, #7
  4049cc:	18e0      	adds	r0, r4, r3
  4049ce:	f002 0201 	and.w	r2, r2, #1
  4049d2:	f04f 0e05 	mov.w	lr, #5
  4049d6:	431a      	orrs	r2, r3
  4049d8:	2b0f      	cmp	r3, #15
  4049da:	6062      	str	r2, [r4, #4]
  4049dc:	f8c0 e004 	str.w	lr, [r0, #4]
  4049e0:	f8c0 e008 	str.w	lr, [r0, #8]
  4049e4:	f200 811c 	bhi.w	404c20 <_malloc_r+0x524>
  4049e8:	4b1d      	ldr	r3, [pc, #116]	; (404a60 <_malloc_r+0x364>)
  4049ea:	68bc      	ldr	r4, [r7, #8]
  4049ec:	681a      	ldr	r2, [r3, #0]
  4049ee:	4291      	cmp	r1, r2
  4049f0:	bf88      	it	hi
  4049f2:	6019      	strhi	r1, [r3, #0]
  4049f4:	4b1b      	ldr	r3, [pc, #108]	; (404a64 <_malloc_r+0x368>)
  4049f6:	681a      	ldr	r2, [r3, #0]
  4049f8:	4291      	cmp	r1, r2
  4049fa:	6862      	ldr	r2, [r4, #4]
  4049fc:	bf88      	it	hi
  4049fe:	6019      	strhi	r1, [r3, #0]
  404a00:	f022 0203 	bic.w	r2, r2, #3
  404a04:	4295      	cmp	r5, r2
  404a06:	eba2 0305 	sub.w	r3, r2, r5
  404a0a:	d801      	bhi.n	404a10 <_malloc_r+0x314>
  404a0c:	2b0f      	cmp	r3, #15
  404a0e:	dc04      	bgt.n	404a1a <_malloc_r+0x31e>
  404a10:	4630      	mov	r0, r6
  404a12:	f000 f97b 	bl	404d0c <__malloc_unlock>
  404a16:	2400      	movs	r4, #0
  404a18:	e738      	b.n	40488c <_malloc_r+0x190>
  404a1a:	1962      	adds	r2, r4, r5
  404a1c:	f043 0301 	orr.w	r3, r3, #1
  404a20:	f045 0501 	orr.w	r5, r5, #1
  404a24:	6065      	str	r5, [r4, #4]
  404a26:	4630      	mov	r0, r6
  404a28:	60ba      	str	r2, [r7, #8]
  404a2a:	6053      	str	r3, [r2, #4]
  404a2c:	f000 f96e 	bl	404d0c <__malloc_unlock>
  404a30:	3408      	adds	r4, #8
  404a32:	4620      	mov	r0, r4
  404a34:	b003      	add	sp, #12
  404a36:	e8bd 8ff0 	ldmia.w	sp!, {r4, r5, r6, r7, r8, r9, sl, fp, pc}
  404a3a:	2b14      	cmp	r3, #20
  404a3c:	d971      	bls.n	404b22 <_malloc_r+0x426>
  404a3e:	2b54      	cmp	r3, #84	; 0x54
  404a40:	f200 80a4 	bhi.w	404b8c <_malloc_r+0x490>
  404a44:	0b28      	lsrs	r0, r5, #12
  404a46:	f100 0e6f 	add.w	lr, r0, #111	; 0x6f
  404a4a:	ea4f 034e 	mov.w	r3, lr, lsl #1
  404a4e:	306e      	adds	r0, #110	; 0x6e
  404a50:	e676      	b.n	404740 <_malloc_r+0x44>
  404a52:	bf00      	nop
  404a54:	2040044c 	.word	0x2040044c
  404a58:	20400f1c 	.word	0x20400f1c
  404a5c:	20400f20 	.word	0x20400f20
  404a60:	20400f18 	.word	0x20400f18
  404a64:	20400f14 	.word	0x20400f14
  404a68:	20400858 	.word	0x20400858
  404a6c:	0a5a      	lsrs	r2, r3, #9
  404a6e:	2a04      	cmp	r2, #4
  404a70:	d95e      	bls.n	404b30 <_malloc_r+0x434>
  404a72:	2a14      	cmp	r2, #20
  404a74:	f200 80b3 	bhi.w	404bde <_malloc_r+0x4e2>
  404a78:	f102 015c 	add.w	r1, r2, #92	; 0x5c
  404a7c:	0049      	lsls	r1, r1, #1
  404a7e:	325b      	adds	r2, #91	; 0x5b
  404a80:	eb07 0c81 	add.w	ip, r7, r1, lsl #2
  404a84:	f857 1021 	ldr.w	r1, [r7, r1, lsl #2]
  404a88:	f8df 81dc 	ldr.w	r8, [pc, #476]	; 404c68 <_malloc_r+0x56c>
  404a8c:	f1ac 0c08 	sub.w	ip, ip, #8
  404a90:	458c      	cmp	ip, r1
  404a92:	f000 8088 	beq.w	404ba6 <_malloc_r+0x4aa>
  404a96:	684a      	ldr	r2, [r1, #4]
  404a98:	f022 0203 	bic.w	r2, r2, #3
  404a9c:	4293      	cmp	r3, r2
  404a9e:	d202      	bcs.n	404aa6 <_malloc_r+0x3aa>
  404aa0:	6889      	ldr	r1, [r1, #8]
  404aa2:	458c      	cmp	ip, r1
  404aa4:	d1f7      	bne.n	404a96 <_malloc_r+0x39a>
  404aa6:	f8d1 c00c 	ldr.w	ip, [r1, #12]
  404aaa:	687a      	ldr	r2, [r7, #4]
  404aac:	f8c4 c00c 	str.w	ip, [r4, #12]
  404ab0:	60a1      	str	r1, [r4, #8]
  404ab2:	f8cc 4008 	str.w	r4, [ip, #8]
  404ab6:	60cc      	str	r4, [r1, #12]
  404ab8:	e688      	b.n	4047cc <_malloc_r+0xd0>
  404aba:	1963      	adds	r3, r4, r5
  404abc:	f042 0701 	orr.w	r7, r2, #1
  404ac0:	f045 0501 	orr.w	r5, r5, #1
  404ac4:	6065      	str	r5, [r4, #4]
  404ac6:	4630      	mov	r0, r6
  404ac8:	614b      	str	r3, [r1, #20]
  404aca:	610b      	str	r3, [r1, #16]
  404acc:	f8c3 e00c 	str.w	lr, [r3, #12]
  404ad0:	f8c3 e008 	str.w	lr, [r3, #8]
  404ad4:	605f      	str	r7, [r3, #4]
  404ad6:	509a      	str	r2, [r3, r2]
  404ad8:	3408      	adds	r4, #8
  404ada:	f000 f917 	bl	404d0c <__malloc_unlock>
  404ade:	e6d5      	b.n	40488c <_malloc_r+0x190>
  404ae0:	684a      	ldr	r2, [r1, #4]
  404ae2:	e673      	b.n	4047cc <_malloc_r+0xd0>
  404ae4:	f108 0801 	add.w	r8, r8, #1
  404ae8:	f018 0f03 	tst.w	r8, #3
  404aec:	f10c 0c08 	add.w	ip, ip, #8
  404af0:	f47f ae7f 	bne.w	4047f2 <_malloc_r+0xf6>
  404af4:	e030      	b.n	404b58 <_malloc_r+0x45c>
  404af6:	68dc      	ldr	r4, [r3, #12]
  404af8:	42a3      	cmp	r3, r4
  404afa:	bf08      	it	eq
  404afc:	3002      	addeq	r0, #2
  404afe:	f43f ae35 	beq.w	40476c <_malloc_r+0x70>
  404b02:	e6b3      	b.n	40486c <_malloc_r+0x170>
  404b04:	440b      	add	r3, r1
  404b06:	460c      	mov	r4, r1
  404b08:	685a      	ldr	r2, [r3, #4]
  404b0a:	68c9      	ldr	r1, [r1, #12]
  404b0c:	f854 5f08 	ldr.w	r5, [r4, #8]!
  404b10:	f042 0201 	orr.w	r2, r2, #1
  404b14:	605a      	str	r2, [r3, #4]
  404b16:	4630      	mov	r0, r6
  404b18:	60e9      	str	r1, [r5, #12]
  404b1a:	608d      	str	r5, [r1, #8]
  404b1c:	f000 f8f6 	bl	404d0c <__malloc_unlock>
  404b20:	e6b4      	b.n	40488c <_malloc_r+0x190>
  404b22:	f103 0e5c 	add.w	lr, r3, #92	; 0x5c
  404b26:	f103 005b 	add.w	r0, r3, #91	; 0x5b
  404b2a:	ea4f 034e 	mov.w	r3, lr, lsl #1
  404b2e:	e607      	b.n	404740 <_malloc_r+0x44>
  404b30:	099a      	lsrs	r2, r3, #6
  404b32:	f102 0139 	add.w	r1, r2, #57	; 0x39
  404b36:	0049      	lsls	r1, r1, #1
  404b38:	3238      	adds	r2, #56	; 0x38
  404b3a:	e7a1      	b.n	404a80 <_malloc_r+0x384>
  404b3c:	42bc      	cmp	r4, r7
  404b3e:	4b4a      	ldr	r3, [pc, #296]	; (404c68 <_malloc_r+0x56c>)
  404b40:	f43f af00 	beq.w	404944 <_malloc_r+0x248>
  404b44:	689c      	ldr	r4, [r3, #8]
  404b46:	6862      	ldr	r2, [r4, #4]
  404b48:	f022 0203 	bic.w	r2, r2, #3
  404b4c:	e75a      	b.n	404a04 <_malloc_r+0x308>
  404b4e:	f859 3908 	ldr.w	r3, [r9], #-8
  404b52:	4599      	cmp	r9, r3
  404b54:	f040 8082 	bne.w	404c5c <_malloc_r+0x560>
  404b58:	f010 0f03 	tst.w	r0, #3
  404b5c:	f100 30ff 	add.w	r0, r0, #4294967295
  404b60:	d1f5      	bne.n	404b4e <_malloc_r+0x452>
  404b62:	687b      	ldr	r3, [r7, #4]
  404b64:	ea23 0304 	bic.w	r3, r3, r4
  404b68:	607b      	str	r3, [r7, #4]
  404b6a:	0064      	lsls	r4, r4, #1
  404b6c:	429c      	cmp	r4, r3
  404b6e:	f63f aebd 	bhi.w	4048ec <_malloc_r+0x1f0>
  404b72:	2c00      	cmp	r4, #0
  404b74:	f43f aeba 	beq.w	4048ec <_malloc_r+0x1f0>
  404b78:	421c      	tst	r4, r3
  404b7a:	4640      	mov	r0, r8
  404b7c:	f47f ae35 	bne.w	4047ea <_malloc_r+0xee>
  404b80:	0064      	lsls	r4, r4, #1
  404b82:	421c      	tst	r4, r3
  404b84:	f100 0004 	add.w	r0, r0, #4
  404b88:	d0fa      	beq.n	404b80 <_malloc_r+0x484>
  404b8a:	e62e      	b.n	4047ea <_malloc_r+0xee>
  404b8c:	f5b3 7faa 	cmp.w	r3, #340	; 0x154
  404b90:	d818      	bhi.n	404bc4 <_malloc_r+0x4c8>
  404b92:	0be8      	lsrs	r0, r5, #15
  404b94:	f100 0e78 	add.w	lr, r0, #120	; 0x78
  404b98:	ea4f 034e 	mov.w	r3, lr, lsl #1
  404b9c:	3077      	adds	r0, #119	; 0x77
  404b9e:	e5cf      	b.n	404740 <_malloc_r+0x44>
  404ba0:	f44f 5180 	mov.w	r1, #4096	; 0x1000
  404ba4:	e6eb      	b.n	40497e <_malloc_r+0x282>
  404ba6:	2101      	movs	r1, #1
  404ba8:	f8d8 3004 	ldr.w	r3, [r8, #4]
  404bac:	1092      	asrs	r2, r2, #2
  404bae:	fa01 f202 	lsl.w	r2, r1, r2
  404bb2:	431a      	orrs	r2, r3
  404bb4:	f8c8 2004 	str.w	r2, [r8, #4]
  404bb8:	4661      	mov	r1, ip
  404bba:	e777      	b.n	404aac <_malloc_r+0x3b0>
  404bbc:	2301      	movs	r3, #1
  404bbe:	f8cb 3004 	str.w	r3, [fp, #4]
  404bc2:	e725      	b.n	404a10 <_malloc_r+0x314>
  404bc4:	f240 5254 	movw	r2, #1364	; 0x554
  404bc8:	4293      	cmp	r3, r2
  404bca:	d820      	bhi.n	404c0e <_malloc_r+0x512>
  404bcc:	0ca8      	lsrs	r0, r5, #18
  404bce:	f100 0e7d 	add.w	lr, r0, #125	; 0x7d
  404bd2:	ea4f 034e 	mov.w	r3, lr, lsl #1
  404bd6:	307c      	adds	r0, #124	; 0x7c
  404bd8:	e5b2      	b.n	404740 <_malloc_r+0x44>
  404bda:	3210      	adds	r2, #16
  404bdc:	e6a4      	b.n	404928 <_malloc_r+0x22c>
  404bde:	2a54      	cmp	r2, #84	; 0x54
  404be0:	d826      	bhi.n	404c30 <_malloc_r+0x534>
  404be2:	0b1a      	lsrs	r2, r3, #12
  404be4:	f102 016f 	add.w	r1, r2, #111	; 0x6f
  404be8:	0049      	lsls	r1, r1, #1
  404bea:	326e      	adds	r2, #110	; 0x6e
  404bec:	e748      	b.n	404a80 <_malloc_r+0x384>
  404bee:	68bc      	ldr	r4, [r7, #8]
  404bf0:	6862      	ldr	r2, [r4, #4]
  404bf2:	f022 0203 	bic.w	r2, r2, #3
  404bf6:	e705      	b.n	404a04 <_malloc_r+0x308>
  404bf8:	f3ca 000b 	ubfx	r0, sl, #0, #12
  404bfc:	2800      	cmp	r0, #0
  404bfe:	f47f aea8 	bne.w	404952 <_malloc_r+0x256>
  404c02:	4442      	add	r2, r8
  404c04:	68bb      	ldr	r3, [r7, #8]
  404c06:	f042 0201 	orr.w	r2, r2, #1
  404c0a:	605a      	str	r2, [r3, #4]
  404c0c:	e6ec      	b.n	4049e8 <_malloc_r+0x2ec>
  404c0e:	23fe      	movs	r3, #254	; 0xfe
  404c10:	f04f 0e7f 	mov.w	lr, #127	; 0x7f
  404c14:	207e      	movs	r0, #126	; 0x7e
  404c16:	e593      	b.n	404740 <_malloc_r+0x44>
  404c18:	2201      	movs	r2, #1
  404c1a:	f04f 0900 	mov.w	r9, #0
  404c1e:	e6c1      	b.n	4049a4 <_malloc_r+0x2a8>
  404c20:	f104 0108 	add.w	r1, r4, #8
  404c24:	4630      	mov	r0, r6
  404c26:	f001 ffab 	bl	406b80 <_free_r>
  404c2a:	f8d9 1000 	ldr.w	r1, [r9]
  404c2e:	e6db      	b.n	4049e8 <_malloc_r+0x2ec>
  404c30:	f5b2 7faa 	cmp.w	r2, #340	; 0x154
  404c34:	d805      	bhi.n	404c42 <_malloc_r+0x546>
  404c36:	0bda      	lsrs	r2, r3, #15
  404c38:	f102 0178 	add.w	r1, r2, #120	; 0x78
  404c3c:	0049      	lsls	r1, r1, #1
  404c3e:	3277      	adds	r2, #119	; 0x77
  404c40:	e71e      	b.n	404a80 <_malloc_r+0x384>
  404c42:	f240 5154 	movw	r1, #1364	; 0x554
  404c46:	428a      	cmp	r2, r1
  404c48:	d805      	bhi.n	404c56 <_malloc_r+0x55a>
  404c4a:	0c9a      	lsrs	r2, r3, #18
  404c4c:	f102 017d 	add.w	r1, r2, #125	; 0x7d
  404c50:	0049      	lsls	r1, r1, #1
  404c52:	327c      	adds	r2, #124	; 0x7c
  404c54:	e714      	b.n	404a80 <_malloc_r+0x384>
  404c56:	21fe      	movs	r1, #254	; 0xfe
  404c58:	227e      	movs	r2, #126	; 0x7e
  404c5a:	e711      	b.n	404a80 <_malloc_r+0x384>
  404c5c:	687b      	ldr	r3, [r7, #4]
  404c5e:	e784      	b.n	404b6a <_malloc_r+0x46e>
  404c60:	08e8      	lsrs	r0, r5, #3
  404c62:	1c43      	adds	r3, r0, #1
  404c64:	005b      	lsls	r3, r3, #1
  404c66:	e5f8      	b.n	40485a <_malloc_r+0x15e>
  404c68:	2040044c 	.word	0x2040044c

00404c6c <memset>:
  404c6c:	b470      	push	{r4, r5, r6}
  404c6e:	0784      	lsls	r4, r0, #30
  404c70:	d046      	beq.n	404d00 <memset+0x94>
  404c72:	1e54      	subs	r4, r2, #1
  404c74:	2a00      	cmp	r2, #0
  404c76:	d041      	beq.n	404cfc <memset+0x90>
  404c78:	b2cd      	uxtb	r5, r1
  404c7a:	4603      	mov	r3, r0
  404c7c:	e002      	b.n	404c84 <memset+0x18>
  404c7e:	1e62      	subs	r2, r4, #1
  404c80:	b3e4      	cbz	r4, 404cfc <memset+0x90>
  404c82:	4614      	mov	r4, r2
  404c84:	f803 5b01 	strb.w	r5, [r3], #1
  404c88:	079a      	lsls	r2, r3, #30
  404c8a:	d1f8      	bne.n	404c7e <memset+0x12>
  404c8c:	2c03      	cmp	r4, #3
  404c8e:	d92e      	bls.n	404cee <memset+0x82>
  404c90:	b2cd      	uxtb	r5, r1
  404c92:	ea45 2505 	orr.w	r5, r5, r5, lsl #8
  404c96:	2c0f      	cmp	r4, #15
  404c98:	ea45 4505 	orr.w	r5, r5, r5, lsl #16
  404c9c:	d919      	bls.n	404cd2 <memset+0x66>
  404c9e:	f103 0210 	add.w	r2, r3, #16
  404ca2:	4626      	mov	r6, r4
  404ca4:	3e10      	subs	r6, #16
  404ca6:	2e0f      	cmp	r6, #15
  404ca8:	f842 5c10 	str.w	r5, [r2, #-16]
  404cac:	f842 5c0c 	str.w	r5, [r2, #-12]
  404cb0:	f842 5c08 	str.w	r5, [r2, #-8]
  404cb4:	f842 5c04 	str.w	r5, [r2, #-4]
  404cb8:	f102 0210 	add.w	r2, r2, #16
  404cbc:	d8f2      	bhi.n	404ca4 <memset+0x38>
  404cbe:	f1a4 0210 	sub.w	r2, r4, #16
  404cc2:	f022 020f 	bic.w	r2, r2, #15
  404cc6:	f004 040f 	and.w	r4, r4, #15
  404cca:	3210      	adds	r2, #16
  404ccc:	2c03      	cmp	r4, #3
  404cce:	4413      	add	r3, r2
  404cd0:	d90d      	bls.n	404cee <memset+0x82>
  404cd2:	461e      	mov	r6, r3
  404cd4:	4622      	mov	r2, r4
  404cd6:	3a04      	subs	r2, #4
  404cd8:	2a03      	cmp	r2, #3
  404cda:	f846 5b04 	str.w	r5, [r6], #4
  404cde:	d8fa      	bhi.n	404cd6 <memset+0x6a>
  404ce0:	1f22      	subs	r2, r4, #4
  404ce2:	f022 0203 	bic.w	r2, r2, #3
  404ce6:	3204      	adds	r2, #4
  404ce8:	4413      	add	r3, r2
  404cea:	f004 0403 	and.w	r4, r4, #3
  404cee:	b12c      	cbz	r4, 404cfc <memset+0x90>
  404cf0:	b2c9      	uxtb	r1, r1
  404cf2:	441c      	add	r4, r3
  404cf4:	f803 1b01 	strb.w	r1, [r3], #1
  404cf8:	42a3      	cmp	r3, r4
  404cfa:	d1fb      	bne.n	404cf4 <memset+0x88>
  404cfc:	bc70      	pop	{r4, r5, r6}
  404cfe:	4770      	bx	lr
  404d00:	4614      	mov	r4, r2
  404d02:	4603      	mov	r3, r0
  404d04:	e7c2      	b.n	404c8c <memset+0x20>
  404d06:	bf00      	nop

00404d08 <__malloc_lock>:
  404d08:	4770      	bx	lr
  404d0a:	bf00      	nop

00404d0c <__malloc_unlock>:
  404d0c:	4770      	bx	lr
  404d0e:	bf00      	nop

00404d10 <_puts_r>:
  404d10:	b5f0      	push	{r4, r5, r6, r7, lr}
  404d12:	4605      	mov	r5, r0
  404d14:	b089      	sub	sp, #36	; 0x24
  404d16:	4608      	mov	r0, r1
  404d18:	460c      	mov	r4, r1
  404d1a:	f000 fa71 	bl	405200 <strlen>
  404d1e:	6bab      	ldr	r3, [r5, #56]	; 0x38
  404d20:	4f14      	ldr	r7, [pc, #80]	; (404d74 <_puts_r+0x64>)
  404d22:	9404      	str	r4, [sp, #16]
  404d24:	2601      	movs	r6, #1
  404d26:	1c44      	adds	r4, r0, #1
  404d28:	a904      	add	r1, sp, #16
  404d2a:	2202      	movs	r2, #2
  404d2c:	9403      	str	r4, [sp, #12]
  404d2e:	9005      	str	r0, [sp, #20]
  404d30:	68ac      	ldr	r4, [r5, #8]
  404d32:	9706      	str	r7, [sp, #24]
  404d34:	9607      	str	r6, [sp, #28]
  404d36:	9101      	str	r1, [sp, #4]
  404d38:	9202      	str	r2, [sp, #8]
  404d3a:	b1b3      	cbz	r3, 404d6a <_puts_r+0x5a>
  404d3c:	f9b4 300c 	ldrsh.w	r3, [r4, #12]
  404d40:	049a      	lsls	r2, r3, #18
  404d42:	d406      	bmi.n	404d52 <_puts_r+0x42>
  404d44:	6e62      	ldr	r2, [r4, #100]	; 0x64
  404d46:	f443 5300 	orr.w	r3, r3, #8192	; 0x2000
  404d4a:	f422 5200 	bic.w	r2, r2, #8192	; 0x2000
  404d4e:	81a3      	strh	r3, [r4, #12]
  404d50:	6662      	str	r2, [r4, #100]	; 0x64
  404d52:	4621      	mov	r1, r4
  404d54:	4628      	mov	r0, r5
  404d56:	aa01      	add	r2, sp, #4
  404d58:	f001 fffa 	bl	406d50 <__sfvwrite_r>
  404d5c:	2800      	cmp	r0, #0
  404d5e:	bf14      	ite	ne
  404d60:	f04f 30ff 	movne.w	r0, #4294967295
  404d64:	200a      	moveq	r0, #10
  404d66:	b009      	add	sp, #36	; 0x24
  404d68:	bdf0      	pop	{r4, r5, r6, r7, pc}
  404d6a:	4628      	mov	r0, r5
  404d6c:	f001 fe3e 	bl	4069ec <__sinit>
  404d70:	e7e4      	b.n	404d3c <_puts_r+0x2c>
  404d72:	bf00      	nop
  404d74:	00409308 	.word	0x00409308

00404d78 <puts>:
  404d78:	4b02      	ldr	r3, [pc, #8]	; (404d84 <puts+0xc>)
  404d7a:	4601      	mov	r1, r0
  404d7c:	6818      	ldr	r0, [r3, #0]
  404d7e:	f7ff bfc7 	b.w	404d10 <_puts_r>
  404d82:	bf00      	nop
  404d84:	20400448 	.word	0x20400448

00404d88 <_sbrk_r>:
  404d88:	b538      	push	{r3, r4, r5, lr}
  404d8a:	4c07      	ldr	r4, [pc, #28]	; (404da8 <_sbrk_r+0x20>)
  404d8c:	2300      	movs	r3, #0
  404d8e:	4605      	mov	r5, r0
  404d90:	4608      	mov	r0, r1
  404d92:	6023      	str	r3, [r4, #0]
  404d94:	f7ff f8b0 	bl	403ef8 <_sbrk>
  404d98:	1c43      	adds	r3, r0, #1
  404d9a:	d000      	beq.n	404d9e <_sbrk_r+0x16>
  404d9c:	bd38      	pop	{r3, r4, r5, pc}
  404d9e:	6823      	ldr	r3, [r4, #0]
  404da0:	2b00      	cmp	r3, #0
  404da2:	d0fb      	beq.n	404d9c <_sbrk_r+0x14>
  404da4:	602b      	str	r3, [r5, #0]
  404da6:	bd38      	pop	{r3, r4, r5, pc}
  404da8:	20401014 	.word	0x20401014

00404dac <setbuf>:
  404dac:	2900      	cmp	r1, #0
  404dae:	bf0c      	ite	eq
  404db0:	2202      	moveq	r2, #2
  404db2:	2200      	movne	r2, #0
  404db4:	f44f 6380 	mov.w	r3, #1024	; 0x400
  404db8:	f000 b800 	b.w	404dbc <setvbuf>

00404dbc <setvbuf>:
  404dbc:	e92d 43f0 	stmdb	sp!, {r4, r5, r6, r7, r8, r9, lr}
  404dc0:	4c51      	ldr	r4, [pc, #324]	; (404f08 <setvbuf+0x14c>)
  404dc2:	6825      	ldr	r5, [r4, #0]
  404dc4:	b083      	sub	sp, #12
  404dc6:	4604      	mov	r4, r0
  404dc8:	460f      	mov	r7, r1
  404dca:	4690      	mov	r8, r2
  404dcc:	461e      	mov	r6, r3
  404dce:	b115      	cbz	r5, 404dd6 <setvbuf+0x1a>
  404dd0:	6bab      	ldr	r3, [r5, #56]	; 0x38
  404dd2:	2b00      	cmp	r3, #0
  404dd4:	d079      	beq.n	404eca <setvbuf+0x10e>
  404dd6:	f1b8 0f02 	cmp.w	r8, #2
  404dda:	d004      	beq.n	404de6 <setvbuf+0x2a>
  404ddc:	f1b8 0f01 	cmp.w	r8, #1
  404de0:	d87f      	bhi.n	404ee2 <setvbuf+0x126>
  404de2:	2e00      	cmp	r6, #0
  404de4:	db7d      	blt.n	404ee2 <setvbuf+0x126>
  404de6:	4621      	mov	r1, r4
  404de8:	4628      	mov	r0, r5
  404dea:	f001 fd6b 	bl	4068c4 <_fflush_r>
  404dee:	6b21      	ldr	r1, [r4, #48]	; 0x30
  404df0:	b141      	cbz	r1, 404e04 <setvbuf+0x48>
  404df2:	f104 0340 	add.w	r3, r4, #64	; 0x40
  404df6:	4299      	cmp	r1, r3
  404df8:	d002      	beq.n	404e00 <setvbuf+0x44>
  404dfa:	4628      	mov	r0, r5
  404dfc:	f001 fec0 	bl	406b80 <_free_r>
  404e00:	2300      	movs	r3, #0
  404e02:	6323      	str	r3, [r4, #48]	; 0x30
  404e04:	f9b4 300c 	ldrsh.w	r3, [r4, #12]
  404e08:	2200      	movs	r2, #0
  404e0a:	61a2      	str	r2, [r4, #24]
  404e0c:	6062      	str	r2, [r4, #4]
  404e0e:	061a      	lsls	r2, r3, #24
  404e10:	d454      	bmi.n	404ebc <setvbuf+0x100>
  404e12:	f423 634a 	bic.w	r3, r3, #3232	; 0xca0
  404e16:	f023 0303 	bic.w	r3, r3, #3
  404e1a:	f1b8 0f02 	cmp.w	r8, #2
  404e1e:	81a3      	strh	r3, [r4, #12]
  404e20:	d039      	beq.n	404e96 <setvbuf+0xda>
  404e22:	ab01      	add	r3, sp, #4
  404e24:	466a      	mov	r2, sp
  404e26:	4621      	mov	r1, r4
  404e28:	4628      	mov	r0, r5
  404e2a:	f002 f947 	bl	4070bc <__swhatbuf_r>
  404e2e:	89a3      	ldrh	r3, [r4, #12]
  404e30:	4318      	orrs	r0, r3
  404e32:	81a0      	strh	r0, [r4, #12]
  404e34:	b326      	cbz	r6, 404e80 <setvbuf+0xc4>
  404e36:	b327      	cbz	r7, 404e82 <setvbuf+0xc6>
  404e38:	6bab      	ldr	r3, [r5, #56]	; 0x38
  404e3a:	2b00      	cmp	r3, #0
  404e3c:	d04d      	beq.n	404eda <setvbuf+0x11e>
  404e3e:	9b00      	ldr	r3, [sp, #0]
  404e40:	f9b4 000c 	ldrsh.w	r0, [r4, #12]
  404e44:	6027      	str	r7, [r4, #0]
  404e46:	429e      	cmp	r6, r3
  404e48:	bf1c      	itt	ne
  404e4a:	f440 6000 	orrne.w	r0, r0, #2048	; 0x800
  404e4e:	81a0      	strhne	r0, [r4, #12]
  404e50:	f1b8 0f01 	cmp.w	r8, #1
  404e54:	bf08      	it	eq
  404e56:	f040 0001 	orreq.w	r0, r0, #1
  404e5a:	b283      	uxth	r3, r0
  404e5c:	bf08      	it	eq
  404e5e:	81a0      	strheq	r0, [r4, #12]
  404e60:	f003 0008 	and.w	r0, r3, #8
  404e64:	b280      	uxth	r0, r0
  404e66:	6127      	str	r7, [r4, #16]
  404e68:	6166      	str	r6, [r4, #20]
  404e6a:	b318      	cbz	r0, 404eb4 <setvbuf+0xf8>
  404e6c:	f013 0001 	ands.w	r0, r3, #1
  404e70:	d02f      	beq.n	404ed2 <setvbuf+0x116>
  404e72:	2000      	movs	r0, #0
  404e74:	4276      	negs	r6, r6
  404e76:	61a6      	str	r6, [r4, #24]
  404e78:	60a0      	str	r0, [r4, #8]
  404e7a:	b003      	add	sp, #12
  404e7c:	e8bd 83f0 	ldmia.w	sp!, {r4, r5, r6, r7, r8, r9, pc}
  404e80:	9e00      	ldr	r6, [sp, #0]
  404e82:	4630      	mov	r0, r6
  404e84:	f7ff fc2a 	bl	4046dc <malloc>
  404e88:	4607      	mov	r7, r0
  404e8a:	b368      	cbz	r0, 404ee8 <setvbuf+0x12c>
  404e8c:	89a3      	ldrh	r3, [r4, #12]
  404e8e:	f043 0380 	orr.w	r3, r3, #128	; 0x80
  404e92:	81a3      	strh	r3, [r4, #12]
  404e94:	e7d0      	b.n	404e38 <setvbuf+0x7c>
  404e96:	2000      	movs	r0, #0
  404e98:	f104 0243 	add.w	r2, r4, #67	; 0x43
  404e9c:	f043 0302 	orr.w	r3, r3, #2
  404ea0:	2500      	movs	r5, #0
  404ea2:	2101      	movs	r1, #1
  404ea4:	81a3      	strh	r3, [r4, #12]
  404ea6:	60a5      	str	r5, [r4, #8]
  404ea8:	6022      	str	r2, [r4, #0]
  404eaa:	6122      	str	r2, [r4, #16]
  404eac:	6161      	str	r1, [r4, #20]
  404eae:	b003      	add	sp, #12
  404eb0:	e8bd 83f0 	ldmia.w	sp!, {r4, r5, r6, r7, r8, r9, pc}
  404eb4:	60a0      	str	r0, [r4, #8]
  404eb6:	b003      	add	sp, #12
  404eb8:	e8bd 83f0 	ldmia.w	sp!, {r4, r5, r6, r7, r8, r9, pc}
  404ebc:	6921      	ldr	r1, [r4, #16]
  404ebe:	4628      	mov	r0, r5
  404ec0:	f001 fe5e 	bl	406b80 <_free_r>
  404ec4:	f9b4 300c 	ldrsh.w	r3, [r4, #12]
  404ec8:	e7a3      	b.n	404e12 <setvbuf+0x56>
  404eca:	4628      	mov	r0, r5
  404ecc:	f001 fd8e 	bl	4069ec <__sinit>
  404ed0:	e781      	b.n	404dd6 <setvbuf+0x1a>
  404ed2:	60a6      	str	r6, [r4, #8]
  404ed4:	b003      	add	sp, #12
  404ed6:	e8bd 83f0 	ldmia.w	sp!, {r4, r5, r6, r7, r8, r9, pc}
  404eda:	4628      	mov	r0, r5
  404edc:	f001 fd86 	bl	4069ec <__sinit>
  404ee0:	e7ad      	b.n	404e3e <setvbuf+0x82>
  404ee2:	f04f 30ff 	mov.w	r0, #4294967295
  404ee6:	e7e2      	b.n	404eae <setvbuf+0xf2>
  404ee8:	f8dd 9000 	ldr.w	r9, [sp]
  404eec:	45b1      	cmp	r9, r6
  404eee:	d006      	beq.n	404efe <setvbuf+0x142>
  404ef0:	4648      	mov	r0, r9
  404ef2:	f7ff fbf3 	bl	4046dc <malloc>
  404ef6:	4607      	mov	r7, r0
  404ef8:	b108      	cbz	r0, 404efe <setvbuf+0x142>
  404efa:	464e      	mov	r6, r9
  404efc:	e7c6      	b.n	404e8c <setvbuf+0xd0>
  404efe:	f9b4 300c 	ldrsh.w	r3, [r4, #12]
  404f02:	f04f 30ff 	mov.w	r0, #4294967295
  404f06:	e7c7      	b.n	404e98 <setvbuf+0xdc>
  404f08:	20400448 	.word	0x20400448
	...
  404f20:	eba2 0003 	sub.w	r0, r2, r3
  404f24:	4770      	bx	lr
  404f26:	bf00      	nop

00404f28 <strcmp>:
  404f28:	7802      	ldrb	r2, [r0, #0]
  404f2a:	780b      	ldrb	r3, [r1, #0]
  404f2c:	2a01      	cmp	r2, #1
  404f2e:	bf28      	it	cs
  404f30:	429a      	cmpcs	r2, r3
  404f32:	d1f5      	bne.n	404f20 <setvbuf+0x164>
  404f34:	e96d 4504 	strd	r4, r5, [sp, #-16]!
  404f38:	ea40 0401 	orr.w	r4, r0, r1
  404f3c:	e9cd 6702 	strd	r6, r7, [sp, #8]
  404f40:	f06f 0c00 	mvn.w	ip, #0
  404f44:	ea4f 7244 	mov.w	r2, r4, lsl #29
  404f48:	b312      	cbz	r2, 404f90 <strcmp+0x68>
  404f4a:	ea80 0401 	eor.w	r4, r0, r1
  404f4e:	f014 0f07 	tst.w	r4, #7
  404f52:	d16a      	bne.n	40502a <strcmp+0x102>
  404f54:	f000 0407 	and.w	r4, r0, #7
  404f58:	f020 0007 	bic.w	r0, r0, #7
  404f5c:	f004 0503 	and.w	r5, r4, #3
  404f60:	f021 0107 	bic.w	r1, r1, #7
  404f64:	ea4f 05c5 	mov.w	r5, r5, lsl #3
  404f68:	e8f0 2304 	ldrd	r2, r3, [r0], #16
  404f6c:	f014 0f04 	tst.w	r4, #4
  404f70:	e8f1 6704 	ldrd	r6, r7, [r1], #16
  404f74:	fa0c f405 	lsl.w	r4, ip, r5
  404f78:	ea62 0204 	orn	r2, r2, r4
  404f7c:	ea66 0604 	orn	r6, r6, r4
  404f80:	d00a      	beq.n	404f98 <strcmp+0x70>
  404f82:	ea63 0304 	orn	r3, r3, r4
  404f86:	4662      	mov	r2, ip
  404f88:	ea67 0704 	orn	r7, r7, r4
  404f8c:	4666      	mov	r6, ip
  404f8e:	e003      	b.n	404f98 <strcmp+0x70>
  404f90:	e8f0 2304 	ldrd	r2, r3, [r0], #16
  404f94:	e8f1 6704 	ldrd	r6, r7, [r1], #16
  404f98:	fa82 f54c 	uadd8	r5, r2, ip
  404f9c:	ea82 0406 	eor.w	r4, r2, r6
  404fa0:	faa4 f48c 	sel	r4, r4, ip
  404fa4:	bb6c      	cbnz	r4, 405002 <strcmp+0xda>
  404fa6:	fa83 f54c 	uadd8	r5, r3, ip
  404faa:	ea83 0507 	eor.w	r5, r3, r7
  404fae:	faa5 f58c 	sel	r5, r5, ip
  404fb2:	b995      	cbnz	r5, 404fda <strcmp+0xb2>
  404fb4:	e950 2302 	ldrd	r2, r3, [r0, #-8]
  404fb8:	e951 6702 	ldrd	r6, r7, [r1, #-8]
  404fbc:	fa82 f54c 	uadd8	r5, r2, ip
  404fc0:	ea82 0406 	eor.w	r4, r2, r6
  404fc4:	faa4 f48c 	sel	r4, r4, ip
  404fc8:	fa83 f54c 	uadd8	r5, r3, ip
  404fcc:	ea83 0507 	eor.w	r5, r3, r7
  404fd0:	faa5 f58c 	sel	r5, r5, ip
  404fd4:	4325      	orrs	r5, r4
  404fd6:	d0db      	beq.n	404f90 <strcmp+0x68>
  404fd8:	b99c      	cbnz	r4, 405002 <strcmp+0xda>
  404fda:	ba2d      	rev	r5, r5
  404fdc:	fab5 f485 	clz	r4, r5
  404fe0:	f024 0407 	bic.w	r4, r4, #7
  404fe4:	fa27 f104 	lsr.w	r1, r7, r4
  404fe8:	e9dd 6702 	ldrd	r6, r7, [sp, #8]
  404fec:	fa23 f304 	lsr.w	r3, r3, r4
  404ff0:	f003 00ff 	and.w	r0, r3, #255	; 0xff
  404ff4:	f001 01ff 	and.w	r1, r1, #255	; 0xff
  404ff8:	e8fd 4504 	ldrd	r4, r5, [sp], #16
  404ffc:	eba0 0001 	sub.w	r0, r0, r1
  405000:	4770      	bx	lr
  405002:	ba24      	rev	r4, r4
  405004:	fab4 f484 	clz	r4, r4
  405008:	f024 0407 	bic.w	r4, r4, #7
  40500c:	fa26 f104 	lsr.w	r1, r6, r4
  405010:	e9dd 6702 	ldrd	r6, r7, [sp, #8]
  405014:	fa22 f204 	lsr.w	r2, r2, r4
  405018:	f002 00ff 	and.w	r0, r2, #255	; 0xff
  40501c:	f001 01ff 	and.w	r1, r1, #255	; 0xff
  405020:	e8fd 4504 	ldrd	r4, r5, [sp], #16
  405024:	eba0 0001 	sub.w	r0, r0, r1
  405028:	4770      	bx	lr
  40502a:	f014 0f03 	tst.w	r4, #3
  40502e:	d13c      	bne.n	4050aa <strcmp+0x182>
  405030:	f010 0403 	ands.w	r4, r0, #3
  405034:	d128      	bne.n	405088 <strcmp+0x160>
  405036:	f850 2b08 	ldr.w	r2, [r0], #8
  40503a:	f851 3b08 	ldr.w	r3, [r1], #8
  40503e:	fa82 f54c 	uadd8	r5, r2, ip
  405042:	ea82 0503 	eor.w	r5, r2, r3
  405046:	faa5 f58c 	sel	r5, r5, ip
  40504a:	b95d      	cbnz	r5, 405064 <strcmp+0x13c>
  40504c:	f850 2c04 	ldr.w	r2, [r0, #-4]
  405050:	f851 3c04 	ldr.w	r3, [r1, #-4]
  405054:	fa82 f54c 	uadd8	r5, r2, ip
  405058:	ea82 0503 	eor.w	r5, r2, r3
  40505c:	faa5 f58c 	sel	r5, r5, ip
  405060:	2d00      	cmp	r5, #0
  405062:	d0e8      	beq.n	405036 <strcmp+0x10e>
  405064:	ba2d      	rev	r5, r5
  405066:	fab5 f485 	clz	r4, r5
  40506a:	f024 0407 	bic.w	r4, r4, #7
  40506e:	fa23 f104 	lsr.w	r1, r3, r4
  405072:	fa22 f204 	lsr.w	r2, r2, r4
  405076:	f002 00ff 	and.w	r0, r2, #255	; 0xff
  40507a:	f001 01ff 	and.w	r1, r1, #255	; 0xff
  40507e:	e8fd 4504 	ldrd	r4, r5, [sp], #16
  405082:	eba0 0001 	sub.w	r0, r0, r1
  405086:	4770      	bx	lr
  405088:	ea4f 04c4 	mov.w	r4, r4, lsl #3
  40508c:	f020 0003 	bic.w	r0, r0, #3
  405090:	f850 2b08 	ldr.w	r2, [r0], #8
  405094:	f021 0103 	bic.w	r1, r1, #3
  405098:	f851 3b08 	ldr.w	r3, [r1], #8
  40509c:	fa0c f404 	lsl.w	r4, ip, r4
  4050a0:	ea62 0204 	orn	r2, r2, r4
  4050a4:	ea63 0304 	orn	r3, r3, r4
  4050a8:	e7c9      	b.n	40503e <strcmp+0x116>
  4050aa:	f010 0403 	ands.w	r4, r0, #3
  4050ae:	d01a      	beq.n	4050e6 <strcmp+0x1be>
  4050b0:	eba1 0104 	sub.w	r1, r1, r4
  4050b4:	f020 0003 	bic.w	r0, r0, #3
  4050b8:	07e4      	lsls	r4, r4, #31
  4050ba:	f850 2b04 	ldr.w	r2, [r0], #4
  4050be:	d006      	beq.n	4050ce <strcmp+0x1a6>
  4050c0:	d20f      	bcs.n	4050e2 <strcmp+0x1ba>
  4050c2:	788b      	ldrb	r3, [r1, #2]
  4050c4:	fa5f f4a2 	uxtb.w	r4, r2, ror #16
  4050c8:	1ae4      	subs	r4, r4, r3
  4050ca:	d106      	bne.n	4050da <strcmp+0x1b2>
  4050cc:	b12b      	cbz	r3, 4050da <strcmp+0x1b2>
  4050ce:	78cb      	ldrb	r3, [r1, #3]
  4050d0:	fa5f f4b2 	uxtb.w	r4, r2, ror #24
  4050d4:	1ae4      	subs	r4, r4, r3
  4050d6:	d100      	bne.n	4050da <strcmp+0x1b2>
  4050d8:	b91b      	cbnz	r3, 4050e2 <strcmp+0x1ba>
  4050da:	4620      	mov	r0, r4
  4050dc:	f85d 4b10 	ldr.w	r4, [sp], #16
  4050e0:	4770      	bx	lr
  4050e2:	f101 0104 	add.w	r1, r1, #4
  4050e6:	f850 2b04 	ldr.w	r2, [r0], #4
  4050ea:	07cc      	lsls	r4, r1, #31
  4050ec:	f021 0103 	bic.w	r1, r1, #3
  4050f0:	f851 3b04 	ldr.w	r3, [r1], #4
  4050f4:	d848      	bhi.n	405188 <strcmp+0x260>
  4050f6:	d224      	bcs.n	405142 <strcmp+0x21a>
  4050f8:	f022 447f 	bic.w	r4, r2, #4278190080	; 0xff000000
  4050fc:	fa82 f54c 	uadd8	r5, r2, ip
  405100:	ea94 2513 	eors.w	r5, r4, r3, lsr #8
  405104:	faa5 f58c 	sel	r5, r5, ip
  405108:	d10a      	bne.n	405120 <strcmp+0x1f8>
  40510a:	b965      	cbnz	r5, 405126 <strcmp+0x1fe>
  40510c:	f851 3b04 	ldr.w	r3, [r1], #4
  405110:	ea84 0402 	eor.w	r4, r4, r2
  405114:	ebb4 6f03 	cmp.w	r4, r3, lsl #24
  405118:	d10e      	bne.n	405138 <strcmp+0x210>
  40511a:	f850 2b04 	ldr.w	r2, [r0], #4
  40511e:	e7eb      	b.n	4050f8 <strcmp+0x1d0>
  405120:	ea4f 2313 	mov.w	r3, r3, lsr #8
  405124:	e055      	b.n	4051d2 <strcmp+0x2aa>
  405126:	f035 457f 	bics.w	r5, r5, #4278190080	; 0xff000000
  40512a:	d14d      	bne.n	4051c8 <strcmp+0x2a0>
  40512c:	7808      	ldrb	r0, [r1, #0]
  40512e:	e8fd 4504 	ldrd	r4, r5, [sp], #16
  405132:	f1c0 0000 	rsb	r0, r0, #0
  405136:	4770      	bx	lr
  405138:	ea4f 6212 	mov.w	r2, r2, lsr #24
  40513c:	f003 03ff 	and.w	r3, r3, #255	; 0xff
  405140:	e047      	b.n	4051d2 <strcmp+0x2aa>
  405142:	ea02 441c 	and.w	r4, r2, ip, lsr #16
  405146:	fa82 f54c 	uadd8	r5, r2, ip
  40514a:	ea94 4513 	eors.w	r5, r4, r3, lsr #16
  40514e:	faa5 f58c 	sel	r5, r5, ip
  405152:	d10a      	bne.n	40516a <strcmp+0x242>
  405154:	b965      	cbnz	r5, 405170 <strcmp+0x248>
  405156:	f851 3b04 	ldr.w	r3, [r1], #4
  40515a:	ea84 0402 	eor.w	r4, r4, r2
  40515e:	ebb4 4f03 	cmp.w	r4, r3, lsl #16
  405162:	d10c      	bne.n	40517e <strcmp+0x256>
  405164:	f850 2b04 	ldr.w	r2, [r0], #4
  405168:	e7eb      	b.n	405142 <strcmp+0x21a>
  40516a:	ea4f 4313 	mov.w	r3, r3, lsr #16
  40516e:	e030      	b.n	4051d2 <strcmp+0x2aa>
  405170:	ea15 451c 	ands.w	r5, r5, ip, lsr #16
  405174:	d128      	bne.n	4051c8 <strcmp+0x2a0>
  405176:	880b      	ldrh	r3, [r1, #0]
  405178:	ea4f 4212 	mov.w	r2, r2, lsr #16
  40517c:	e029      	b.n	4051d2 <strcmp+0x2aa>
  40517e:	ea4f 4212 	mov.w	r2, r2, lsr #16
  405182:	ea03 431c 	and.w	r3, r3, ip, lsr #16
  405186:	e024      	b.n	4051d2 <strcmp+0x2aa>
  405188:	f002 04ff 	and.w	r4, r2, #255	; 0xff
  40518c:	fa82 f54c 	uadd8	r5, r2, ip
  405190:	ea94 6513 	eors.w	r5, r4, r3, lsr #24
  405194:	faa5 f58c 	sel	r5, r5, ip
  405198:	d10a      	bne.n	4051b0 <strcmp+0x288>
  40519a:	b965      	cbnz	r5, 4051b6 <strcmp+0x28e>
  40519c:	f851 3b04 	ldr.w	r3, [r1], #4
  4051a0:	ea84 0402 	eor.w	r4, r4, r2
  4051a4:	ebb4 2f03 	cmp.w	r4, r3, lsl #8
  4051a8:	d109      	bne.n	4051be <strcmp+0x296>
  4051aa:	f850 2b04 	ldr.w	r2, [r0], #4
  4051ae:	e7eb      	b.n	405188 <strcmp+0x260>
  4051b0:	ea4f 6313 	mov.w	r3, r3, lsr #24
  4051b4:	e00d      	b.n	4051d2 <strcmp+0x2aa>
  4051b6:	f015 0fff 	tst.w	r5, #255	; 0xff
  4051ba:	d105      	bne.n	4051c8 <strcmp+0x2a0>
  4051bc:	680b      	ldr	r3, [r1, #0]
  4051be:	ea4f 2212 	mov.w	r2, r2, lsr #8
  4051c2:	f023 437f 	bic.w	r3, r3, #4278190080	; 0xff000000
  4051c6:	e004      	b.n	4051d2 <strcmp+0x2aa>
  4051c8:	f04f 0000 	mov.w	r0, #0
  4051cc:	e8fd 4504 	ldrd	r4, r5, [sp], #16
  4051d0:	4770      	bx	lr
  4051d2:	ba12      	rev	r2, r2
  4051d4:	ba1b      	rev	r3, r3
  4051d6:	fa82 f44c 	uadd8	r4, r2, ip
  4051da:	ea82 0403 	eor.w	r4, r2, r3
  4051de:	faa4 f58c 	sel	r5, r4, ip
  4051e2:	fab5 f485 	clz	r4, r5
  4051e6:	fa02 f204 	lsl.w	r2, r2, r4
  4051ea:	fa03 f304 	lsl.w	r3, r3, r4
  4051ee:	ea4f 6012 	mov.w	r0, r2, lsr #24
  4051f2:	e8fd 4504 	ldrd	r4, r5, [sp], #16
  4051f6:	eba0 6013 	sub.w	r0, r0, r3, lsr #24
  4051fa:	4770      	bx	lr
  4051fc:	0000      	movs	r0, r0
	...

00405200 <strlen>:
  405200:	f890 f000 	pld	[r0]
  405204:	e96d 4502 	strd	r4, r5, [sp, #-8]!
  405208:	f020 0107 	bic.w	r1, r0, #7
  40520c:	f06f 0c00 	mvn.w	ip, #0
  405210:	f010 0407 	ands.w	r4, r0, #7
  405214:	f891 f020 	pld	[r1, #32]
  405218:	f040 8049 	bne.w	4052ae <strlen+0xae>
  40521c:	f04f 0400 	mov.w	r4, #0
  405220:	f06f 0007 	mvn.w	r0, #7
  405224:	e9d1 2300 	ldrd	r2, r3, [r1]
  405228:	f891 f040 	pld	[r1, #64]	; 0x40
  40522c:	f100 0008 	add.w	r0, r0, #8
  405230:	fa82 f24c 	uadd8	r2, r2, ip
  405234:	faa4 f28c 	sel	r2, r4, ip
  405238:	fa83 f34c 	uadd8	r3, r3, ip
  40523c:	faa2 f38c 	sel	r3, r2, ip
  405240:	bb4b      	cbnz	r3, 405296 <strlen+0x96>
  405242:	e9d1 2302 	ldrd	r2, r3, [r1, #8]
  405246:	fa82 f24c 	uadd8	r2, r2, ip
  40524a:	f100 0008 	add.w	r0, r0, #8
  40524e:	faa4 f28c 	sel	r2, r4, ip
  405252:	fa83 f34c 	uadd8	r3, r3, ip
  405256:	faa2 f38c 	sel	r3, r2, ip
  40525a:	b9e3      	cbnz	r3, 405296 <strlen+0x96>
  40525c:	e9d1 2304 	ldrd	r2, r3, [r1, #16]
  405260:	fa82 f24c 	uadd8	r2, r2, ip
  405264:	f100 0008 	add.w	r0, r0, #8
  405268:	faa4 f28c 	sel	r2, r4, ip
  40526c:	fa83 f34c 	uadd8	r3, r3, ip
  405270:	faa2 f38c 	sel	r3, r2, ip
  405274:	b97b      	cbnz	r3, 405296 <strlen+0x96>
  405276:	e9d1 2306 	ldrd	r2, r3, [r1, #24]
  40527a:	f101 0120 	add.w	r1, r1, #32
  40527e:	fa82 f24c 	uadd8	r2, r2, ip
  405282:	f100 0008 	add.w	r0, r0, #8
  405286:	faa4 f28c 	sel	r2, r4, ip
  40528a:	fa83 f34c 	uadd8	r3, r3, ip
  40528e:	faa2 f38c 	sel	r3, r2, ip
  405292:	2b00      	cmp	r3, #0
  405294:	d0c6      	beq.n	405224 <strlen+0x24>
  405296:	2a00      	cmp	r2, #0
  405298:	bf04      	itt	eq
  40529a:	3004      	addeq	r0, #4
  40529c:	461a      	moveq	r2, r3
  40529e:	ba12      	rev	r2, r2
  4052a0:	fab2 f282 	clz	r2, r2
  4052a4:	e8fd 4502 	ldrd	r4, r5, [sp], #8
  4052a8:	eb00 00d2 	add.w	r0, r0, r2, lsr #3
  4052ac:	4770      	bx	lr
  4052ae:	e9d1 2300 	ldrd	r2, r3, [r1]
  4052b2:	f004 0503 	and.w	r5, r4, #3
  4052b6:	f1c4 0000 	rsb	r0, r4, #0
  4052ba:	ea4f 05c5 	mov.w	r5, r5, lsl #3
  4052be:	f014 0f04 	tst.w	r4, #4
  4052c2:	f891 f040 	pld	[r1, #64]	; 0x40
  4052c6:	fa0c f505 	lsl.w	r5, ip, r5
  4052ca:	ea62 0205 	orn	r2, r2, r5
  4052ce:	bf1c      	itt	ne
  4052d0:	ea63 0305 	ornne	r3, r3, r5
  4052d4:	4662      	movne	r2, ip
  4052d6:	f04f 0400 	mov.w	r4, #0
  4052da:	e7a9      	b.n	405230 <strlen+0x30>

004052dc <critical_factorization>:
  4052dc:	e92d 41f0 	stmdb	sp!, {r4, r5, r6, r7, r8, lr}
  4052e0:	f04f 0e01 	mov.w	lr, #1
  4052e4:	4674      	mov	r4, lr
  4052e6:	2500      	movs	r5, #0
  4052e8:	f04f 36ff 	mov.w	r6, #4294967295
  4052ec:	192b      	adds	r3, r5, r4
  4052ee:	428b      	cmp	r3, r1
  4052f0:	eb00 0706 	add.w	r7, r0, r6
  4052f4:	d20d      	bcs.n	405312 <critical_factorization+0x36>
  4052f6:	5d3f      	ldrb	r7, [r7, r4]
  4052f8:	f810 c003 	ldrb.w	ip, [r0, r3]
  4052fc:	45bc      	cmp	ip, r7
  4052fe:	d22d      	bcs.n	40535c <critical_factorization+0x80>
  405300:	461d      	mov	r5, r3
  405302:	2401      	movs	r4, #1
  405304:	ebc6 0e03 	rsb	lr, r6, r3
  405308:	192b      	adds	r3, r5, r4
  40530a:	428b      	cmp	r3, r1
  40530c:	eb00 0706 	add.w	r7, r0, r6
  405310:	d3f1      	bcc.n	4052f6 <critical_factorization+0x1a>
  405312:	f04f 0801 	mov.w	r8, #1
  405316:	f8c2 e000 	str.w	lr, [r2]
  40531a:	4644      	mov	r4, r8
  40531c:	2500      	movs	r5, #0
  40531e:	f04f 37ff 	mov.w	r7, #4294967295
  405322:	192b      	adds	r3, r5, r4
  405324:	4299      	cmp	r1, r3
  405326:	eb00 0e07 	add.w	lr, r0, r7
  40532a:	d90e      	bls.n	40534a <critical_factorization+0x6e>
  40532c:	f81e e004 	ldrb.w	lr, [lr, r4]
  405330:	f810 c003 	ldrb.w	ip, [r0, r3]
  405334:	45f4      	cmp	ip, lr
  405336:	d918      	bls.n	40536a <critical_factorization+0x8e>
  405338:	461d      	mov	r5, r3
  40533a:	2401      	movs	r4, #1
  40533c:	ebc7 0803 	rsb	r8, r7, r3
  405340:	192b      	adds	r3, r5, r4
  405342:	4299      	cmp	r1, r3
  405344:	eb00 0e07 	add.w	lr, r0, r7
  405348:	d8f0      	bhi.n	40532c <critical_factorization+0x50>
  40534a:	3701      	adds	r7, #1
  40534c:	1c70      	adds	r0, r6, #1
  40534e:	4287      	cmp	r7, r0
  405350:	bf24      	itt	cs
  405352:	f8c2 8000 	strcs.w	r8, [r2]
  405356:	4638      	movcs	r0, r7
  405358:	e8bd 81f0 	ldmia.w	sp!, {r4, r5, r6, r7, r8, pc}
  40535c:	d00c      	beq.n	405378 <critical_factorization+0x9c>
  40535e:	f04f 0e01 	mov.w	lr, #1
  405362:	462e      	mov	r6, r5
  405364:	4674      	mov	r4, lr
  405366:	4475      	add	r5, lr
  405368:	e7c0      	b.n	4052ec <critical_factorization+0x10>
  40536a:	d00c      	beq.n	405386 <critical_factorization+0xaa>
  40536c:	f04f 0801 	mov.w	r8, #1
  405370:	462f      	mov	r7, r5
  405372:	4644      	mov	r4, r8
  405374:	4445      	add	r5, r8
  405376:	e7d4      	b.n	405322 <critical_factorization+0x46>
  405378:	4574      	cmp	r4, lr
  40537a:	bf09      	itett	eq
  40537c:	46a6      	moveq	lr, r4
  40537e:	3401      	addne	r4, #1
  405380:	461d      	moveq	r5, r3
  405382:	2401      	moveq	r4, #1
  405384:	e7b2      	b.n	4052ec <critical_factorization+0x10>
  405386:	4544      	cmp	r4, r8
  405388:	bf09      	itett	eq
  40538a:	46a0      	moveq	r8, r4
  40538c:	3401      	addne	r4, #1
  40538e:	461d      	moveq	r5, r3
  405390:	2401      	moveq	r4, #1
  405392:	e7c6      	b.n	405322 <critical_factorization+0x46>

00405394 <two_way_long_needle>:
  405394:	e92d 4ff0 	stmdb	sp!, {r4, r5, r6, r7, r8, r9, sl, fp, lr}
  405398:	f2ad 4d14 	subw	sp, sp, #1044	; 0x414
  40539c:	4616      	mov	r6, r2
  40539e:	4605      	mov	r5, r0
  4053a0:	468b      	mov	fp, r1
  4053a2:	4610      	mov	r0, r2
  4053a4:	4619      	mov	r1, r3
  4053a6:	aa03      	add	r2, sp, #12
  4053a8:	461c      	mov	r4, r3
  4053aa:	f7ff ff97 	bl	4052dc <critical_factorization>
  4053ae:	ab03      	add	r3, sp, #12
  4053b0:	4681      	mov	r9, r0
  4053b2:	f20d 420c 	addw	r2, sp, #1036	; 0x40c
  4053b6:	f843 4f04 	str.w	r4, [r3, #4]!
  4053ba:	4293      	cmp	r3, r2
  4053bc:	d1fb      	bne.n	4053b6 <two_way_long_needle+0x22>
  4053be:	b14c      	cbz	r4, 4053d4 <two_way_long_needle+0x40>
  4053c0:	1e63      	subs	r3, r4, #1
  4053c2:	4632      	mov	r2, r6
  4053c4:	a804      	add	r0, sp, #16
  4053c6:	f812 1b01 	ldrb.w	r1, [r2], #1
  4053ca:	f840 3021 	str.w	r3, [r0, r1, lsl #2]
  4053ce:	f113 33ff 	adds.w	r3, r3, #4294967295
  4053d2:	d2f8      	bcs.n	4053c6 <two_way_long_needle+0x32>
  4053d4:	9903      	ldr	r1, [sp, #12]
  4053d6:	464a      	mov	r2, r9
  4053d8:	4431      	add	r1, r6
  4053da:	4630      	mov	r0, r6
  4053dc:	f001 ff38 	bl	407250 <memcmp>
  4053e0:	2800      	cmp	r0, #0
  4053e2:	d171      	bne.n	4054c8 <two_way_long_needle+0x134>
  4053e4:	f109 33ff 	add.w	r3, r9, #4294967295
  4053e8:	9300      	str	r3, [sp, #0]
  4053ea:	18f3      	adds	r3, r6, r3
  4053ec:	4682      	mov	sl, r0
  4053ee:	9301      	str	r3, [sp, #4]
  4053f0:	4623      	mov	r3, r4
  4053f2:	4680      	mov	r8, r0
  4053f4:	4654      	mov	r4, sl
  4053f6:	4658      	mov	r0, fp
  4053f8:	469a      	mov	sl, r3
  4053fa:	eb08 070a 	add.w	r7, r8, sl
  4053fe:	1a3a      	subs	r2, r7, r0
  405400:	2100      	movs	r1, #0
  405402:	4428      	add	r0, r5
  405404:	f001 fed4 	bl	4071b0 <memchr>
  405408:	2800      	cmp	r0, #0
  40540a:	d158      	bne.n	4054be <two_way_long_needle+0x12a>
  40540c:	2f00      	cmp	r7, #0
  40540e:	d056      	beq.n	4054be <two_way_long_needle+0x12a>
  405410:	19eb      	adds	r3, r5, r7
  405412:	aa04      	add	r2, sp, #16
  405414:	f813 3c01 	ldrb.w	r3, [r3, #-1]
  405418:	f852 3023 	ldr.w	r3, [r2, r3, lsl #2]
  40541c:	b14b      	cbz	r3, 405432 <two_way_long_needle+0x9e>
  40541e:	b124      	cbz	r4, 40542a <two_way_long_needle+0x96>
  405420:	9a03      	ldr	r2, [sp, #12]
  405422:	4293      	cmp	r3, r2
  405424:	d201      	bcs.n	40542a <two_way_long_needle+0x96>
  405426:	ebc2 030a 	rsb	r3, r2, sl
  40542a:	4498      	add	r8, r3
  40542c:	2400      	movs	r4, #0
  40542e:	4638      	mov	r0, r7
  405430:	e7e3      	b.n	4053fa <two_way_long_needle+0x66>
  405432:	454c      	cmp	r4, r9
  405434:	4623      	mov	r3, r4
  405436:	f10a 3eff 	add.w	lr, sl, #4294967295
  40543a:	bf38      	it	cc
  40543c:	464b      	movcc	r3, r9
  40543e:	4573      	cmp	r3, lr
  405440:	d213      	bcs.n	40546a <two_way_long_needle+0xd6>
  405442:	eb08 0203 	add.w	r2, r8, r3
  405446:	f816 c003 	ldrb.w	ip, [r6, r3]
  40544a:	5ca8      	ldrb	r0, [r5, r2]
  40544c:	4584      	cmp	ip, r0
  40544e:	442a      	add	r2, r5
  405450:	eb06 0103 	add.w	r1, r6, r3
  405454:	d006      	beq.n	405464 <two_way_long_needle+0xd0>
  405456:	e02e      	b.n	4054b6 <two_way_long_needle+0x122>
  405458:	f811 cf01 	ldrb.w	ip, [r1, #1]!
  40545c:	f812 0f01 	ldrb.w	r0, [r2, #1]!
  405460:	4584      	cmp	ip, r0
  405462:	d128      	bne.n	4054b6 <two_way_long_needle+0x122>
  405464:	3301      	adds	r3, #1
  405466:	4573      	cmp	r3, lr
  405468:	d3f6      	bcc.n	405458 <two_way_long_needle+0xc4>
  40546a:	454c      	cmp	r4, r9
  40546c:	9900      	ldr	r1, [sp, #0]
  40546e:	f080 808b 	bcs.w	405588 <two_way_long_needle+0x1f4>
  405472:	9b00      	ldr	r3, [sp, #0]
  405474:	9801      	ldr	r0, [sp, #4]
  405476:	eb08 0203 	add.w	r2, r8, r3
  40547a:	7803      	ldrb	r3, [r0, #0]
  40547c:	5ca8      	ldrb	r0, [r5, r2]
  40547e:	4283      	cmp	r3, r0
  405480:	442a      	add	r2, r5
  405482:	f040 8081 	bne.w	405588 <two_way_long_needle+0x1f4>
  405486:	9b01      	ldr	r3, [sp, #4]
  405488:	eb06 0b04 	add.w	fp, r6, r4
  40548c:	e006      	b.n	40549c <two_way_long_needle+0x108>
  40548e:	f813 ed01 	ldrb.w	lr, [r3, #-1]!
  405492:	f812 0d01 	ldrb.w	r0, [r2, #-1]!
  405496:	4586      	cmp	lr, r0
  405498:	d104      	bne.n	4054a4 <two_way_long_needle+0x110>
  40549a:	4661      	mov	r1, ip
  40549c:	459b      	cmp	fp, r3
  40549e:	f101 3cff 	add.w	ip, r1, #4294967295
  4054a2:	d1f4      	bne.n	40548e <two_way_long_needle+0xfa>
  4054a4:	3401      	adds	r4, #1
  4054a6:	428c      	cmp	r4, r1
  4054a8:	d870      	bhi.n	40558c <two_way_long_needle+0x1f8>
  4054aa:	9c03      	ldr	r4, [sp, #12]
  4054ac:	4638      	mov	r0, r7
  4054ae:	44a0      	add	r8, r4
  4054b0:	ebc4 040a 	rsb	r4, r4, sl
  4054b4:	e7a1      	b.n	4053fa <two_way_long_needle+0x66>
  4054b6:	f1c9 0201 	rsb	r2, r9, #1
  4054ba:	4490      	add	r8, r2
  4054bc:	e7b5      	b.n	40542a <two_way_long_needle+0x96>
  4054be:	2000      	movs	r0, #0
  4054c0:	f20d 4d14 	addw	sp, sp, #1044	; 0x414
  4054c4:	e8bd 8ff0 	ldmia.w	sp!, {r4, r5, r6, r7, r8, r9, sl, fp, pc}
  4054c8:	ebc9 0304 	rsb	r3, r9, r4
  4054cc:	454b      	cmp	r3, r9
  4054ce:	bf38      	it	cc
  4054d0:	464b      	movcc	r3, r9
  4054d2:	3301      	adds	r3, #1
  4054d4:	f109 38ff 	add.w	r8, r9, #4294967295
  4054d8:	9303      	str	r3, [sp, #12]
  4054da:	eb06 0308 	add.w	r3, r6, r8
  4054de:	4658      	mov	r0, fp
  4054e0:	f04f 0a00 	mov.w	sl, #0
  4054e4:	46cb      	mov	fp, r9
  4054e6:	4699      	mov	r9, r3
  4054e8:	eb0a 0704 	add.w	r7, sl, r4
  4054ec:	1a3a      	subs	r2, r7, r0
  4054ee:	2100      	movs	r1, #0
  4054f0:	4428      	add	r0, r5
  4054f2:	f001 fe5d 	bl	4071b0 <memchr>
  4054f6:	2800      	cmp	r0, #0
  4054f8:	d1e1      	bne.n	4054be <two_way_long_needle+0x12a>
  4054fa:	2f00      	cmp	r7, #0
  4054fc:	d0df      	beq.n	4054be <two_way_long_needle+0x12a>
  4054fe:	19eb      	adds	r3, r5, r7
  405500:	aa04      	add	r2, sp, #16
  405502:	f813 3c01 	ldrb.w	r3, [r3, #-1]
  405506:	f852 3023 	ldr.w	r3, [r2, r3, lsl #2]
  40550a:	bba3      	cbnz	r3, 405576 <two_way_long_needle+0x1e2>
  40550c:	1e61      	subs	r1, r4, #1
  40550e:	458b      	cmp	fp, r1
  405510:	d215      	bcs.n	40553e <two_way_long_needle+0x1aa>
  405512:	eb0a 020b 	add.w	r2, sl, fp
  405516:	f816 300b 	ldrb.w	r3, [r6, fp]
  40551a:	f815 e002 	ldrb.w	lr, [r5, r2]
  40551e:	459e      	cmp	lr, r3
  405520:	442a      	add	r2, r5
  405522:	eb06 000b 	add.w	r0, r6, fp
  405526:	465b      	mov	r3, fp
  405528:	d006      	beq.n	405538 <two_way_long_needle+0x1a4>
  40552a:	e027      	b.n	40557c <two_way_long_needle+0x1e8>
  40552c:	f810 cf01 	ldrb.w	ip, [r0, #1]!
  405530:	f812 ef01 	ldrb.w	lr, [r2, #1]!
  405534:	45f4      	cmp	ip, lr
  405536:	d121      	bne.n	40557c <two_way_long_needle+0x1e8>
  405538:	3301      	adds	r3, #1
  40553a:	428b      	cmp	r3, r1
  40553c:	d3f6      	bcc.n	40552c <two_way_long_needle+0x198>
  40553e:	f1b8 3fff 	cmp.w	r8, #4294967295
  405542:	d011      	beq.n	405568 <two_way_long_needle+0x1d4>
  405544:	eb0a 0208 	add.w	r2, sl, r8
  405548:	f899 1000 	ldrb.w	r1, [r9]
  40554c:	5cab      	ldrb	r3, [r5, r2]
  40554e:	4299      	cmp	r1, r3
  405550:	442a      	add	r2, r5
  405552:	d10f      	bne.n	405574 <two_way_long_needle+0x1e0>
  405554:	464b      	mov	r3, r9
  405556:	e005      	b.n	405564 <two_way_long_needle+0x1d0>
  405558:	f813 0d01 	ldrb.w	r0, [r3, #-1]!
  40555c:	f812 1d01 	ldrb.w	r1, [r2, #-1]!
  405560:	4288      	cmp	r0, r1
  405562:	d107      	bne.n	405574 <two_way_long_needle+0x1e0>
  405564:	42b3      	cmp	r3, r6
  405566:	d1f7      	bne.n	405558 <two_way_long_needle+0x1c4>
  405568:	eb05 000a 	add.w	r0, r5, sl
  40556c:	f20d 4d14 	addw	sp, sp, #1044	; 0x414
  405570:	e8bd 8ff0 	ldmia.w	sp!, {r4, r5, r6, r7, r8, r9, sl, fp, pc}
  405574:	9b03      	ldr	r3, [sp, #12]
  405576:	449a      	add	sl, r3
  405578:	4638      	mov	r0, r7
  40557a:	e7b5      	b.n	4054e8 <two_way_long_needle+0x154>
  40557c:	f1cb 0201 	rsb	r2, fp, #1
  405580:	4492      	add	sl, r2
  405582:	449a      	add	sl, r3
  405584:	4638      	mov	r0, r7
  405586:	e7af      	b.n	4054e8 <two_way_long_needle+0x154>
  405588:	4649      	mov	r1, r9
  40558a:	e78b      	b.n	4054a4 <two_way_long_needle+0x110>
  40558c:	eb05 0008 	add.w	r0, r5, r8
  405590:	e796      	b.n	4054c0 <two_way_long_needle+0x12c>
  405592:	bf00      	nop

00405594 <strstr>:
  405594:	7803      	ldrb	r3, [r0, #0]
  405596:	2b00      	cmp	r3, #0
  405598:	f000 8104 	beq.w	4057a4 <strstr+0x210>
  40559c:	e92d 4ff0 	stmdb	sp!, {r4, r5, r6, r7, r8, r9, sl, fp, lr}
  4055a0:	f891 8000 	ldrb.w	r8, [r1]
  4055a4:	b085      	sub	sp, #20
  4055a6:	4644      	mov	r4, r8
  4055a8:	f1b8 0f00 	cmp.w	r8, #0
  4055ac:	d016      	beq.n	4055dc <strstr+0x48>
  4055ae:	4686      	mov	lr, r0
  4055b0:	f101 0c01 	add.w	ip, r1, #1
  4055b4:	2701      	movs	r7, #1
  4055b6:	e003      	b.n	4055c0 <strstr+0x2c>
  4055b8:	f812 4b01 	ldrb.w	r4, [r2], #1
  4055bc:	b16c      	cbz	r4, 4055da <strstr+0x46>
  4055be:	4694      	mov	ip, r2
  4055c0:	429c      	cmp	r4, r3
  4055c2:	bf14      	ite	ne
  4055c4:	2700      	movne	r7, #0
  4055c6:	f007 0701 	andeq.w	r7, r7, #1
  4055ca:	f81e 3f01 	ldrb.w	r3, [lr, #1]!
  4055ce:	4662      	mov	r2, ip
  4055d0:	2b00      	cmp	r3, #0
  4055d2:	d1f1      	bne.n	4055b8 <strstr+0x24>
  4055d4:	f89c 3000 	ldrb.w	r3, [ip]
  4055d8:	bb0b      	cbnz	r3, 40561e <strstr+0x8a>
  4055da:	b117      	cbz	r7, 4055e2 <strstr+0x4e>
  4055dc:	b005      	add	sp, #20
  4055de:	e8bd 8ff0 	ldmia.w	sp!, {r4, r5, r6, r7, r8, r9, sl, fp, pc}
  4055e2:	460e      	mov	r6, r1
  4055e4:	4605      	mov	r5, r0
  4055e6:	4641      	mov	r1, r8
  4055e8:	3001      	adds	r0, #1
  4055ea:	ebc6 040c 	rsb	r4, r6, ip
  4055ee:	f002 f993 	bl	407918 <strchr>
  4055f2:	4607      	mov	r7, r0
  4055f4:	b198      	cbz	r0, 40561e <strstr+0x8a>
  4055f6:	2c01      	cmp	r4, #1
  4055f8:	d0f0      	beq.n	4055dc <strstr+0x48>
  4055fa:	1928      	adds	r0, r5, r4
  4055fc:	4287      	cmp	r7, r0
  4055fe:	bf94      	ite	ls
  405600:	ebc7 0b00 	rsbls	fp, r7, r0
  405604:	f04f 0b01 	movhi.w	fp, #1
  405608:	2c1f      	cmp	r4, #31
  40560a:	d90c      	bls.n	405626 <strstr+0x92>
  40560c:	4623      	mov	r3, r4
  40560e:	4632      	mov	r2, r6
  405610:	4659      	mov	r1, fp
  405612:	4638      	mov	r0, r7
  405614:	f7ff febe 	bl	405394 <two_way_long_needle>
  405618:	b005      	add	sp, #20
  40561a:	e8bd 8ff0 	ldmia.w	sp!, {r4, r5, r6, r7, r8, r9, sl, fp, pc}
  40561e:	2000      	movs	r0, #0
  405620:	b005      	add	sp, #20
  405622:	e8bd 8ff0 	ldmia.w	sp!, {r4, r5, r6, r7, r8, r9, sl, fp, pc}
  405626:	aa03      	add	r2, sp, #12
  405628:	4621      	mov	r1, r4
  40562a:	4630      	mov	r0, r6
  40562c:	f7ff fe56 	bl	4052dc <critical_factorization>
  405630:	9903      	ldr	r1, [sp, #12]
  405632:	4680      	mov	r8, r0
  405634:	4602      	mov	r2, r0
  405636:	4431      	add	r1, r6
  405638:	4630      	mov	r0, r6
  40563a:	f001 fe09 	bl	407250 <memcmp>
  40563e:	2800      	cmp	r0, #0
  405640:	d158      	bne.n	4056f4 <strstr+0x160>
  405642:	f108 33ff 	add.w	r3, r8, #4294967295
  405646:	9301      	str	r3, [sp, #4]
  405648:	18f3      	adds	r3, r6, r3
  40564a:	4681      	mov	r9, r0
  40564c:	4605      	mov	r5, r0
  40564e:	9300      	str	r3, [sp, #0]
  405650:	4658      	mov	r0, fp
  405652:	46b2      	mov	sl, r6
  405654:	1966      	adds	r6, r4, r5
  405656:	1a32      	subs	r2, r6, r0
  405658:	2100      	movs	r1, #0
  40565a:	4438      	add	r0, r7
  40565c:	f001 fda8 	bl	4071b0 <memchr>
  405660:	2800      	cmp	r0, #0
  405662:	d1dc      	bne.n	40561e <strstr+0x8a>
  405664:	2e00      	cmp	r6, #0
  405666:	d0da      	beq.n	40561e <strstr+0x8a>
  405668:	45c8      	cmp	r8, r9
  40566a:	4643      	mov	r3, r8
  40566c:	bf38      	it	cc
  40566e:	464b      	movcc	r3, r9
  405670:	429c      	cmp	r4, r3
  405672:	d912      	bls.n	40569a <strstr+0x106>
  405674:	195a      	adds	r2, r3, r5
  405676:	f81a 1003 	ldrb.w	r1, [sl, r3]
  40567a:	5cb8      	ldrb	r0, [r7, r2]
  40567c:	4288      	cmp	r0, r1
  40567e:	443a      	add	r2, r7
  405680:	eb0a 0e03 	add.w	lr, sl, r3
  405684:	d006      	beq.n	405694 <strstr+0x100>
  405686:	e02d      	b.n	4056e4 <strstr+0x150>
  405688:	f81e 0f01 	ldrb.w	r0, [lr, #1]!
  40568c:	f812 1f01 	ldrb.w	r1, [r2, #1]!
  405690:	4288      	cmp	r0, r1
  405692:	d127      	bne.n	4056e4 <strstr+0x150>
  405694:	3301      	adds	r3, #1
  405696:	429c      	cmp	r4, r3
  405698:	d8f6      	bhi.n	405688 <strstr+0xf4>
  40569a:	9b01      	ldr	r3, [sp, #4]
  40569c:	45c8      	cmp	r8, r9
  40569e:	4619      	mov	r1, r3
  4056a0:	f240 8083 	bls.w	4057aa <strstr+0x216>
  4056a4:	18ea      	adds	r2, r5, r3
  4056a6:	9800      	ldr	r0, [sp, #0]
  4056a8:	7803      	ldrb	r3, [r0, #0]
  4056aa:	5cb8      	ldrb	r0, [r7, r2]
  4056ac:	4283      	cmp	r3, r0
  4056ae:	443a      	add	r2, r7
  4056b0:	d17b      	bne.n	4057aa <strstr+0x216>
  4056b2:	9b00      	ldr	r3, [sp, #0]
  4056b4:	eb0a 0b09 	add.w	fp, sl, r9
  4056b8:	e006      	b.n	4056c8 <strstr+0x134>
  4056ba:	f813 cd01 	ldrb.w	ip, [r3, #-1]!
  4056be:	f812 ed01 	ldrb.w	lr, [r2, #-1]!
  4056c2:	45f4      	cmp	ip, lr
  4056c4:	d104      	bne.n	4056d0 <strstr+0x13c>
  4056c6:	4601      	mov	r1, r0
  4056c8:	455b      	cmp	r3, fp
  4056ca:	f101 30ff 	add.w	r0, r1, #4294967295
  4056ce:	d1f4      	bne.n	4056ba <strstr+0x126>
  4056d0:	f109 0901 	add.w	r9, r9, #1
  4056d4:	4589      	cmp	r9, r1
  4056d6:	d857      	bhi.n	405788 <strstr+0x1f4>
  4056d8:	9b03      	ldr	r3, [sp, #12]
  4056da:	4630      	mov	r0, r6
  4056dc:	441d      	add	r5, r3
  4056de:	ebc3 0904 	rsb	r9, r3, r4
  4056e2:	e7b7      	b.n	405654 <strstr+0xc0>
  4056e4:	f1c8 0201 	rsb	r2, r8, #1
  4056e8:	4415      	add	r5, r2
  4056ea:	441d      	add	r5, r3
  4056ec:	f04f 0900 	mov.w	r9, #0
  4056f0:	4630      	mov	r0, r6
  4056f2:	e7af      	b.n	405654 <strstr+0xc0>
  4056f4:	ebc8 0304 	rsb	r3, r8, r4
  4056f8:	4543      	cmp	r3, r8
  4056fa:	bf38      	it	cc
  4056fc:	4643      	movcc	r3, r8
  4056fe:	3301      	adds	r3, #1
  405700:	f108 39ff 	add.w	r9, r8, #4294967295
  405704:	9303      	str	r3, [sp, #12]
  405706:	eb06 0309 	add.w	r3, r6, r9
  40570a:	4658      	mov	r0, fp
  40570c:	2500      	movs	r5, #0
  40570e:	46bb      	mov	fp, r7
  405710:	469a      	mov	sl, r3
  405712:	1967      	adds	r7, r4, r5
  405714:	1a3a      	subs	r2, r7, r0
  405716:	2100      	movs	r1, #0
  405718:	4458      	add	r0, fp
  40571a:	f001 fd49 	bl	4071b0 <memchr>
  40571e:	2800      	cmp	r0, #0
  405720:	f47f af7d 	bne.w	40561e <strstr+0x8a>
  405724:	2f00      	cmp	r7, #0
  405726:	f43f af7a 	beq.w	40561e <strstr+0x8a>
  40572a:	4544      	cmp	r4, r8
  40572c:	d915      	bls.n	40575a <strstr+0x1c6>
  40572e:	eb08 0205 	add.w	r2, r8, r5
  405732:	f816 3008 	ldrb.w	r3, [r6, r8]
  405736:	f81b 0002 	ldrb.w	r0, [fp, r2]
  40573a:	4298      	cmp	r0, r3
  40573c:	445a      	add	r2, fp
  40573e:	eb06 0108 	add.w	r1, r6, r8
  405742:	4643      	mov	r3, r8
  405744:	d006      	beq.n	405754 <strstr+0x1c0>
  405746:	e023      	b.n	405790 <strstr+0x1fc>
  405748:	f811 ef01 	ldrb.w	lr, [r1, #1]!
  40574c:	f812 0f01 	ldrb.w	r0, [r2, #1]!
  405750:	4586      	cmp	lr, r0
  405752:	d11d      	bne.n	405790 <strstr+0x1fc>
  405754:	3301      	adds	r3, #1
  405756:	429c      	cmp	r4, r3
  405758:	d8f6      	bhi.n	405748 <strstr+0x1b4>
  40575a:	f1b9 3fff 	cmp.w	r9, #4294967295
  40575e:	d012      	beq.n	405786 <strstr+0x1f2>
  405760:	eb05 0209 	add.w	r2, r5, r9
  405764:	f89a 1000 	ldrb.w	r1, [sl]
  405768:	f81b 3002 	ldrb.w	r3, [fp, r2]
  40576c:	4299      	cmp	r1, r3
  40576e:	445a      	add	r2, fp
  405770:	d114      	bne.n	40579c <strstr+0x208>
  405772:	4653      	mov	r3, sl
  405774:	e005      	b.n	405782 <strstr+0x1ee>
  405776:	f813 0d01 	ldrb.w	r0, [r3, #-1]!
  40577a:	f812 1d01 	ldrb.w	r1, [r2, #-1]!
  40577e:	4288      	cmp	r0, r1
  405780:	d10c      	bne.n	40579c <strstr+0x208>
  405782:	42b3      	cmp	r3, r6
  405784:	d1f7      	bne.n	405776 <strstr+0x1e2>
  405786:	465f      	mov	r7, fp
  405788:	1978      	adds	r0, r7, r5
  40578a:	b005      	add	sp, #20
  40578c:	e8bd 8ff0 	ldmia.w	sp!, {r4, r5, r6, r7, r8, r9, sl, fp, pc}
  405790:	f1c8 0201 	rsb	r2, r8, #1
  405794:	4415      	add	r5, r2
  405796:	441d      	add	r5, r3
  405798:	4638      	mov	r0, r7
  40579a:	e7ba      	b.n	405712 <strstr+0x17e>
  40579c:	9b03      	ldr	r3, [sp, #12]
  40579e:	4638      	mov	r0, r7
  4057a0:	441d      	add	r5, r3
  4057a2:	e7b6      	b.n	405712 <strstr+0x17e>
  4057a4:	780b      	ldrb	r3, [r1, #0]
  4057a6:	b913      	cbnz	r3, 4057ae <strstr+0x21a>
  4057a8:	4770      	bx	lr
  4057aa:	4641      	mov	r1, r8
  4057ac:	e790      	b.n	4056d0 <strstr+0x13c>
  4057ae:	2000      	movs	r0, #0
  4057b0:	4770      	bx	lr
  4057b2:	bf00      	nop

004057b4 <__sprint_r.part.0>:
  4057b4:	6e4b      	ldr	r3, [r1, #100]	; 0x64
  4057b6:	e92d 47f0 	stmdb	sp!, {r4, r5, r6, r7, r8, r9, sl, lr}
  4057ba:	049c      	lsls	r4, r3, #18
  4057bc:	4692      	mov	sl, r2
  4057be:	d52c      	bpl.n	40581a <__sprint_r.part.0+0x66>
  4057c0:	6893      	ldr	r3, [r2, #8]
  4057c2:	6812      	ldr	r2, [r2, #0]
  4057c4:	b33b      	cbz	r3, 405816 <__sprint_r.part.0+0x62>
  4057c6:	460f      	mov	r7, r1
  4057c8:	4680      	mov	r8, r0
  4057ca:	f102 0908 	add.w	r9, r2, #8
  4057ce:	e919 0060 	ldmdb	r9, {r5, r6}
  4057d2:	08b6      	lsrs	r6, r6, #2
  4057d4:	d017      	beq.n	405806 <__sprint_r.part.0+0x52>
  4057d6:	3d04      	subs	r5, #4
  4057d8:	2400      	movs	r4, #0
  4057da:	e001      	b.n	4057e0 <__sprint_r.part.0+0x2c>
  4057dc:	42a6      	cmp	r6, r4
  4057de:	d010      	beq.n	405802 <__sprint_r.part.0+0x4e>
  4057e0:	463a      	mov	r2, r7
  4057e2:	f855 1f04 	ldr.w	r1, [r5, #4]!
  4057e6:	4640      	mov	r0, r8
  4057e8:	f001 f96a 	bl	406ac0 <_fputwc_r>
  4057ec:	1c43      	adds	r3, r0, #1
  4057ee:	f104 0401 	add.w	r4, r4, #1
  4057f2:	d1f3      	bne.n	4057dc <__sprint_r.part.0+0x28>
  4057f4:	2300      	movs	r3, #0
  4057f6:	f8ca 3008 	str.w	r3, [sl, #8]
  4057fa:	f8ca 3004 	str.w	r3, [sl, #4]
  4057fe:	e8bd 87f0 	ldmia.w	sp!, {r4, r5, r6, r7, r8, r9, sl, pc}
  405802:	f8da 3008 	ldr.w	r3, [sl, #8]
  405806:	eba3 0386 	sub.w	r3, r3, r6, lsl #2
  40580a:	f8ca 3008 	str.w	r3, [sl, #8]
  40580e:	f109 0908 	add.w	r9, r9, #8
  405812:	2b00      	cmp	r3, #0
  405814:	d1db      	bne.n	4057ce <__sprint_r.part.0+0x1a>
  405816:	2000      	movs	r0, #0
  405818:	e7ec      	b.n	4057f4 <__sprint_r.part.0+0x40>
  40581a:	f001 fa99 	bl	406d50 <__sfvwrite_r>
  40581e:	2300      	movs	r3, #0
  405820:	f8ca 3008 	str.w	r3, [sl, #8]
  405824:	f8ca 3004 	str.w	r3, [sl, #4]
  405828:	e8bd 87f0 	ldmia.w	sp!, {r4, r5, r6, r7, r8, r9, sl, pc}

0040582c <_vfiprintf_r>:
  40582c:	e92d 4ff0 	stmdb	sp!, {r4, r5, r6, r7, r8, r9, sl, fp, lr}
  405830:	b0ab      	sub	sp, #172	; 0xac
  405832:	461c      	mov	r4, r3
  405834:	9100      	str	r1, [sp, #0]
  405836:	4690      	mov	r8, r2
  405838:	9304      	str	r3, [sp, #16]
  40583a:	9005      	str	r0, [sp, #20]
  40583c:	b118      	cbz	r0, 405846 <_vfiprintf_r+0x1a>
  40583e:	6b83      	ldr	r3, [r0, #56]	; 0x38
  405840:	2b00      	cmp	r3, #0
  405842:	f000 80de 	beq.w	405a02 <_vfiprintf_r+0x1d6>
  405846:	9800      	ldr	r0, [sp, #0]
  405848:	f9b0 100c 	ldrsh.w	r1, [r0, #12]
  40584c:	b28a      	uxth	r2, r1
  40584e:	0495      	lsls	r5, r2, #18
  405850:	d407      	bmi.n	405862 <_vfiprintf_r+0x36>
  405852:	6e43      	ldr	r3, [r0, #100]	; 0x64
  405854:	f441 5200 	orr.w	r2, r1, #8192	; 0x2000
  405858:	f423 5300 	bic.w	r3, r3, #8192	; 0x2000
  40585c:	8182      	strh	r2, [r0, #12]
  40585e:	6643      	str	r3, [r0, #100]	; 0x64
  405860:	b292      	uxth	r2, r2
  405862:	0711      	lsls	r1, r2, #28
  405864:	f140 80b1 	bpl.w	4059ca <_vfiprintf_r+0x19e>
  405868:	9b00      	ldr	r3, [sp, #0]
  40586a:	691b      	ldr	r3, [r3, #16]
  40586c:	2b00      	cmp	r3, #0
  40586e:	f000 80ac 	beq.w	4059ca <_vfiprintf_r+0x19e>
  405872:	f002 021a 	and.w	r2, r2, #26
  405876:	2a0a      	cmp	r2, #10
  405878:	f000 80b5 	beq.w	4059e6 <_vfiprintf_r+0x1ba>
  40587c:	2300      	movs	r3, #0
  40587e:	f10d 0b68 	add.w	fp, sp, #104	; 0x68
  405882:	9302      	str	r3, [sp, #8]
  405884:	930f      	str	r3, [sp, #60]	; 0x3c
  405886:	930e      	str	r3, [sp, #56]	; 0x38
  405888:	f8cd b034 	str.w	fp, [sp, #52]	; 0x34
  40588c:	46da      	mov	sl, fp
  40588e:	f898 3000 	ldrb.w	r3, [r8]
  405892:	4644      	mov	r4, r8
  405894:	b1fb      	cbz	r3, 4058d6 <_vfiprintf_r+0xaa>
  405896:	2b25      	cmp	r3, #37	; 0x25
  405898:	d102      	bne.n	4058a0 <_vfiprintf_r+0x74>
  40589a:	e01c      	b.n	4058d6 <_vfiprintf_r+0xaa>
  40589c:	2b25      	cmp	r3, #37	; 0x25
  40589e:	d003      	beq.n	4058a8 <_vfiprintf_r+0x7c>
  4058a0:	f814 3f01 	ldrb.w	r3, [r4, #1]!
  4058a4:	2b00      	cmp	r3, #0
  4058a6:	d1f9      	bne.n	40589c <_vfiprintf_r+0x70>
  4058a8:	ebc8 0504 	rsb	r5, r8, r4
  4058ac:	b19d      	cbz	r5, 4058d6 <_vfiprintf_r+0xaa>
  4058ae:	9b0e      	ldr	r3, [sp, #56]	; 0x38
  4058b0:	9a0f      	ldr	r2, [sp, #60]	; 0x3c
  4058b2:	f8ca 8000 	str.w	r8, [sl]
  4058b6:	3301      	adds	r3, #1
  4058b8:	442a      	add	r2, r5
  4058ba:	2b07      	cmp	r3, #7
  4058bc:	f8ca 5004 	str.w	r5, [sl, #4]
  4058c0:	920f      	str	r2, [sp, #60]	; 0x3c
  4058c2:	930e      	str	r3, [sp, #56]	; 0x38
  4058c4:	dd7b      	ble.n	4059be <_vfiprintf_r+0x192>
  4058c6:	2a00      	cmp	r2, #0
  4058c8:	f040 8528 	bne.w	40631c <_vfiprintf_r+0xaf0>
  4058cc:	9b02      	ldr	r3, [sp, #8]
  4058ce:	920e      	str	r2, [sp, #56]	; 0x38
  4058d0:	442b      	add	r3, r5
  4058d2:	46da      	mov	sl, fp
  4058d4:	9302      	str	r3, [sp, #8]
  4058d6:	7823      	ldrb	r3, [r4, #0]
  4058d8:	2b00      	cmp	r3, #0
  4058da:	f000 843e 	beq.w	40615a <_vfiprintf_r+0x92e>
  4058de:	2100      	movs	r1, #0
  4058e0:	f04f 0300 	mov.w	r3, #0
  4058e4:	f04f 32ff 	mov.w	r2, #4294967295
  4058e8:	f88d 302f 	strb.w	r3, [sp, #47]	; 0x2f
  4058ec:	f104 0801 	add.w	r8, r4, #1
  4058f0:	7863      	ldrb	r3, [r4, #1]
  4058f2:	9201      	str	r2, [sp, #4]
  4058f4:	4608      	mov	r0, r1
  4058f6:	460e      	mov	r6, r1
  4058f8:	460c      	mov	r4, r1
  4058fa:	f108 0801 	add.w	r8, r8, #1
  4058fe:	f1a3 0220 	sub.w	r2, r3, #32
  405902:	2a58      	cmp	r2, #88	; 0x58
  405904:	f200 8393 	bhi.w	40602e <_vfiprintf_r+0x802>
  405908:	e8df f012 	tbh	[pc, r2, lsl #1]
  40590c:	03910346 	.word	0x03910346
  405910:	034e0391 	.word	0x034e0391
  405914:	03910391 	.word	0x03910391
  405918:	03910391 	.word	0x03910391
  40591c:	03910391 	.word	0x03910391
  405920:	02670289 	.word	0x02670289
  405924:	00800391 	.word	0x00800391
  405928:	0391026c 	.word	0x0391026c
  40592c:	025901c6 	.word	0x025901c6
  405930:	02590259 	.word	0x02590259
  405934:	02590259 	.word	0x02590259
  405938:	02590259 	.word	0x02590259
  40593c:	02590259 	.word	0x02590259
  405940:	03910391 	.word	0x03910391
  405944:	03910391 	.word	0x03910391
  405948:	03910391 	.word	0x03910391
  40594c:	03910391 	.word	0x03910391
  405950:	03910391 	.word	0x03910391
  405954:	039101cb 	.word	0x039101cb
  405958:	03910391 	.word	0x03910391
  40595c:	03910391 	.word	0x03910391
  405960:	03910391 	.word	0x03910391
  405964:	03910391 	.word	0x03910391
  405968:	02140391 	.word	0x02140391
  40596c:	03910391 	.word	0x03910391
  405970:	03910391 	.word	0x03910391
  405974:	02ee0391 	.word	0x02ee0391
  405978:	03910391 	.word	0x03910391
  40597c:	03910311 	.word	0x03910311
  405980:	03910391 	.word	0x03910391
  405984:	03910391 	.word	0x03910391
  405988:	03910391 	.word	0x03910391
  40598c:	03910391 	.word	0x03910391
  405990:	03340391 	.word	0x03340391
  405994:	0391038a 	.word	0x0391038a
  405998:	03910391 	.word	0x03910391
  40599c:	038a0367 	.word	0x038a0367
  4059a0:	03910391 	.word	0x03910391
  4059a4:	0391036c 	.word	0x0391036c
  4059a8:	02950379 	.word	0x02950379
  4059ac:	02e90085 	.word	0x02e90085
  4059b0:	029b0391 	.word	0x029b0391
  4059b4:	02ba0391 	.word	0x02ba0391
  4059b8:	03910391 	.word	0x03910391
  4059bc:	0353      	.short	0x0353
  4059be:	f10a 0a08 	add.w	sl, sl, #8
  4059c2:	9b02      	ldr	r3, [sp, #8]
  4059c4:	442b      	add	r3, r5
  4059c6:	9302      	str	r3, [sp, #8]
  4059c8:	e785      	b.n	4058d6 <_vfiprintf_r+0xaa>
  4059ca:	9900      	ldr	r1, [sp, #0]
  4059cc:	9805      	ldr	r0, [sp, #20]
  4059ce:	f000 fe61 	bl	406694 <__swsetup_r>
  4059d2:	2800      	cmp	r0, #0
  4059d4:	f040 8558 	bne.w	406488 <_vfiprintf_r+0xc5c>
  4059d8:	9b00      	ldr	r3, [sp, #0]
  4059da:	899a      	ldrh	r2, [r3, #12]
  4059dc:	f002 021a 	and.w	r2, r2, #26
  4059e0:	2a0a      	cmp	r2, #10
  4059e2:	f47f af4b 	bne.w	40587c <_vfiprintf_r+0x50>
  4059e6:	9900      	ldr	r1, [sp, #0]
  4059e8:	f9b1 300e 	ldrsh.w	r3, [r1, #14]
  4059ec:	2b00      	cmp	r3, #0
  4059ee:	f6ff af45 	blt.w	40587c <_vfiprintf_r+0x50>
  4059f2:	4623      	mov	r3, r4
  4059f4:	4642      	mov	r2, r8
  4059f6:	9805      	ldr	r0, [sp, #20]
  4059f8:	f000 fe16 	bl	406628 <__sbprintf>
  4059fc:	b02b      	add	sp, #172	; 0xac
  4059fe:	e8bd 8ff0 	ldmia.w	sp!, {r4, r5, r6, r7, r8, r9, sl, fp, pc}
  405a02:	f000 fff3 	bl	4069ec <__sinit>
  405a06:	e71e      	b.n	405846 <_vfiprintf_r+0x1a>
  405a08:	4264      	negs	r4, r4
  405a0a:	9304      	str	r3, [sp, #16]
  405a0c:	f046 0604 	orr.w	r6, r6, #4
  405a10:	f898 3000 	ldrb.w	r3, [r8]
  405a14:	e771      	b.n	4058fa <_vfiprintf_r+0xce>
  405a16:	2130      	movs	r1, #48	; 0x30
  405a18:	9804      	ldr	r0, [sp, #16]
  405a1a:	f88d 1030 	strb.w	r1, [sp, #48]	; 0x30
  405a1e:	9901      	ldr	r1, [sp, #4]
  405a20:	9406      	str	r4, [sp, #24]
  405a22:	f04f 0300 	mov.w	r3, #0
  405a26:	2278      	movs	r2, #120	; 0x78
  405a28:	f88d 302f 	strb.w	r3, [sp, #47]	; 0x2f
  405a2c:	2900      	cmp	r1, #0
  405a2e:	4603      	mov	r3, r0
  405a30:	f88d 2031 	strb.w	r2, [sp, #49]	; 0x31
  405a34:	6804      	ldr	r4, [r0, #0]
  405a36:	f103 0304 	add.w	r3, r3, #4
  405a3a:	f04f 0500 	mov.w	r5, #0
  405a3e:	f046 0202 	orr.w	r2, r6, #2
  405a42:	f2c0 8525 	blt.w	406490 <_vfiprintf_r+0xc64>
  405a46:	f026 0680 	bic.w	r6, r6, #128	; 0x80
  405a4a:	ea54 0205 	orrs.w	r2, r4, r5
  405a4e:	f046 0602 	orr.w	r6, r6, #2
  405a52:	9304      	str	r3, [sp, #16]
  405a54:	f040 84bf 	bne.w	4063d6 <_vfiprintf_r+0xbaa>
  405a58:	48b3      	ldr	r0, [pc, #716]	; (405d28 <_vfiprintf_r+0x4fc>)
  405a5a:	9b01      	ldr	r3, [sp, #4]
  405a5c:	2b00      	cmp	r3, #0
  405a5e:	f040 841c 	bne.w	40629a <_vfiprintf_r+0xa6e>
  405a62:	4699      	mov	r9, r3
  405a64:	2300      	movs	r3, #0
  405a66:	9301      	str	r3, [sp, #4]
  405a68:	9303      	str	r3, [sp, #12]
  405a6a:	465f      	mov	r7, fp
  405a6c:	9b01      	ldr	r3, [sp, #4]
  405a6e:	9a03      	ldr	r2, [sp, #12]
  405a70:	4293      	cmp	r3, r2
  405a72:	bfb8      	it	lt
  405a74:	4613      	movlt	r3, r2
  405a76:	461d      	mov	r5, r3
  405a78:	f1b9 0f00 	cmp.w	r9, #0
  405a7c:	d000      	beq.n	405a80 <_vfiprintf_r+0x254>
  405a7e:	3501      	adds	r5, #1
  405a80:	f016 0302 	ands.w	r3, r6, #2
  405a84:	9307      	str	r3, [sp, #28]
  405a86:	bf18      	it	ne
  405a88:	3502      	addne	r5, #2
  405a8a:	f016 0384 	ands.w	r3, r6, #132	; 0x84
  405a8e:	9308      	str	r3, [sp, #32]
  405a90:	f040 82f1 	bne.w	406076 <_vfiprintf_r+0x84a>
  405a94:	9b06      	ldr	r3, [sp, #24]
  405a96:	1b5c      	subs	r4, r3, r5
  405a98:	2c00      	cmp	r4, #0
  405a9a:	f340 82ec 	ble.w	406076 <_vfiprintf_r+0x84a>
  405a9e:	2c10      	cmp	r4, #16
  405aa0:	f340 8556 	ble.w	406550 <_vfiprintf_r+0xd24>
  405aa4:	f8df 9284 	ldr.w	r9, [pc, #644]	; 405d2c <_vfiprintf_r+0x500>
  405aa8:	f8dd e038 	ldr.w	lr, [sp, #56]	; 0x38
  405aac:	9a0f      	ldr	r2, [sp, #60]	; 0x3c
  405aae:	46d4      	mov	ip, sl
  405ab0:	2310      	movs	r3, #16
  405ab2:	46c2      	mov	sl, r8
  405ab4:	4670      	mov	r0, lr
  405ab6:	46a8      	mov	r8, r5
  405ab8:	464d      	mov	r5, r9
  405aba:	f8dd 9014 	ldr.w	r9, [sp, #20]
  405abe:	e007      	b.n	405ad0 <_vfiprintf_r+0x2a4>
  405ac0:	f100 0e02 	add.w	lr, r0, #2
  405ac4:	f10c 0c08 	add.w	ip, ip, #8
  405ac8:	4608      	mov	r0, r1
  405aca:	3c10      	subs	r4, #16
  405acc:	2c10      	cmp	r4, #16
  405ace:	dd13      	ble.n	405af8 <_vfiprintf_r+0x2cc>
  405ad0:	1c41      	adds	r1, r0, #1
  405ad2:	3210      	adds	r2, #16
  405ad4:	2907      	cmp	r1, #7
  405ad6:	920f      	str	r2, [sp, #60]	; 0x3c
  405ad8:	f8cc 5000 	str.w	r5, [ip]
  405adc:	f8cc 3004 	str.w	r3, [ip, #4]
  405ae0:	910e      	str	r1, [sp, #56]	; 0x38
  405ae2:	dded      	ble.n	405ac0 <_vfiprintf_r+0x294>
  405ae4:	2a00      	cmp	r2, #0
  405ae6:	f040 82b7 	bne.w	406058 <_vfiprintf_r+0x82c>
  405aea:	3c10      	subs	r4, #16
  405aec:	2c10      	cmp	r4, #16
  405aee:	4610      	mov	r0, r2
  405af0:	f04f 0e01 	mov.w	lr, #1
  405af4:	46dc      	mov	ip, fp
  405af6:	dceb      	bgt.n	405ad0 <_vfiprintf_r+0x2a4>
  405af8:	46a9      	mov	r9, r5
  405afa:	4670      	mov	r0, lr
  405afc:	4645      	mov	r5, r8
  405afe:	46d0      	mov	r8, sl
  405b00:	46e2      	mov	sl, ip
  405b02:	4422      	add	r2, r4
  405b04:	2807      	cmp	r0, #7
  405b06:	920f      	str	r2, [sp, #60]	; 0x3c
  405b08:	f8ca 9000 	str.w	r9, [sl]
  405b0c:	f8ca 4004 	str.w	r4, [sl, #4]
  405b10:	900e      	str	r0, [sp, #56]	; 0x38
  405b12:	f300 8375 	bgt.w	406200 <_vfiprintf_r+0x9d4>
  405b16:	f89d 302f 	ldrb.w	r3, [sp, #47]	; 0x2f
  405b1a:	f10a 0a08 	add.w	sl, sl, #8
  405b1e:	f100 0e01 	add.w	lr, r0, #1
  405b22:	2b00      	cmp	r3, #0
  405b24:	f040 82b0 	bne.w	406088 <_vfiprintf_r+0x85c>
  405b28:	9b07      	ldr	r3, [sp, #28]
  405b2a:	2b00      	cmp	r3, #0
  405b2c:	f000 82c3 	beq.w	4060b6 <_vfiprintf_r+0x88a>
  405b30:	3202      	adds	r2, #2
  405b32:	a90c      	add	r1, sp, #48	; 0x30
  405b34:	2302      	movs	r3, #2
  405b36:	f1be 0f07 	cmp.w	lr, #7
  405b3a:	920f      	str	r2, [sp, #60]	; 0x3c
  405b3c:	f8cd e038 	str.w	lr, [sp, #56]	; 0x38
  405b40:	e88a 000a 	stmia.w	sl, {r1, r3}
  405b44:	f340 8378 	ble.w	406238 <_vfiprintf_r+0xa0c>
  405b48:	2a00      	cmp	r2, #0
  405b4a:	f040 840a 	bne.w	406362 <_vfiprintf_r+0xb36>
  405b4e:	9b08      	ldr	r3, [sp, #32]
  405b50:	2b80      	cmp	r3, #128	; 0x80
  405b52:	f04f 0e01 	mov.w	lr, #1
  405b56:	4610      	mov	r0, r2
  405b58:	46da      	mov	sl, fp
  405b5a:	f040 82b0 	bne.w	4060be <_vfiprintf_r+0x892>
  405b5e:	9b06      	ldr	r3, [sp, #24]
  405b60:	1b5c      	subs	r4, r3, r5
  405b62:	2c00      	cmp	r4, #0
  405b64:	f340 82ab 	ble.w	4060be <_vfiprintf_r+0x892>
  405b68:	2c10      	cmp	r4, #16
  405b6a:	f8df 91c4 	ldr.w	r9, [pc, #452]	; 405d30 <_vfiprintf_r+0x504>
  405b6e:	f340 850b 	ble.w	406588 <_vfiprintf_r+0xd5c>
  405b72:	46d6      	mov	lr, sl
  405b74:	2310      	movs	r3, #16
  405b76:	46c2      	mov	sl, r8
  405b78:	46a8      	mov	r8, r5
  405b7a:	464d      	mov	r5, r9
  405b7c:	f8dd 9014 	ldr.w	r9, [sp, #20]
  405b80:	e007      	b.n	405b92 <_vfiprintf_r+0x366>
  405b82:	f100 0c02 	add.w	ip, r0, #2
  405b86:	f10e 0e08 	add.w	lr, lr, #8
  405b8a:	4608      	mov	r0, r1
  405b8c:	3c10      	subs	r4, #16
  405b8e:	2c10      	cmp	r4, #16
  405b90:	dd13      	ble.n	405bba <_vfiprintf_r+0x38e>
  405b92:	1c41      	adds	r1, r0, #1
  405b94:	3210      	adds	r2, #16
  405b96:	2907      	cmp	r1, #7
  405b98:	920f      	str	r2, [sp, #60]	; 0x3c
  405b9a:	f8ce 5000 	str.w	r5, [lr]
  405b9e:	f8ce 3004 	str.w	r3, [lr, #4]
  405ba2:	910e      	str	r1, [sp, #56]	; 0x38
  405ba4:	dded      	ble.n	405b82 <_vfiprintf_r+0x356>
  405ba6:	2a00      	cmp	r2, #0
  405ba8:	f040 8315 	bne.w	4061d6 <_vfiprintf_r+0x9aa>
  405bac:	3c10      	subs	r4, #16
  405bae:	2c10      	cmp	r4, #16
  405bb0:	f04f 0c01 	mov.w	ip, #1
  405bb4:	4610      	mov	r0, r2
  405bb6:	46de      	mov	lr, fp
  405bb8:	dceb      	bgt.n	405b92 <_vfiprintf_r+0x366>
  405bba:	46a9      	mov	r9, r5
  405bbc:	4645      	mov	r5, r8
  405bbe:	46d0      	mov	r8, sl
  405bc0:	46f2      	mov	sl, lr
  405bc2:	4422      	add	r2, r4
  405bc4:	f1bc 0f07 	cmp.w	ip, #7
  405bc8:	920f      	str	r2, [sp, #60]	; 0x3c
  405bca:	f8ca 9000 	str.w	r9, [sl]
  405bce:	f8ca 4004 	str.w	r4, [sl, #4]
  405bd2:	f8cd c038 	str.w	ip, [sp, #56]	; 0x38
  405bd6:	f300 83d2 	bgt.w	40637e <_vfiprintf_r+0xb52>
  405bda:	9b01      	ldr	r3, [sp, #4]
  405bdc:	9903      	ldr	r1, [sp, #12]
  405bde:	1a5c      	subs	r4, r3, r1
  405be0:	2c00      	cmp	r4, #0
  405be2:	f10a 0a08 	add.w	sl, sl, #8
  405be6:	f10c 0e01 	add.w	lr, ip, #1
  405bea:	4660      	mov	r0, ip
  405bec:	f300 826d 	bgt.w	4060ca <_vfiprintf_r+0x89e>
  405bf0:	9903      	ldr	r1, [sp, #12]
  405bf2:	f8ca 7000 	str.w	r7, [sl]
  405bf6:	440a      	add	r2, r1
  405bf8:	f1be 0f07 	cmp.w	lr, #7
  405bfc:	920f      	str	r2, [sp, #60]	; 0x3c
  405bfe:	f8ca 1004 	str.w	r1, [sl, #4]
  405c02:	f8cd e038 	str.w	lr, [sp, #56]	; 0x38
  405c06:	f340 82ce 	ble.w	4061a6 <_vfiprintf_r+0x97a>
  405c0a:	2a00      	cmp	r2, #0
  405c0c:	f040 833a 	bne.w	406284 <_vfiprintf_r+0xa58>
  405c10:	0770      	lsls	r0, r6, #29
  405c12:	920e      	str	r2, [sp, #56]	; 0x38
  405c14:	d538      	bpl.n	405c88 <_vfiprintf_r+0x45c>
  405c16:	9b06      	ldr	r3, [sp, #24]
  405c18:	1b5c      	subs	r4, r3, r5
  405c1a:	2c00      	cmp	r4, #0
  405c1c:	dd34      	ble.n	405c88 <_vfiprintf_r+0x45c>
  405c1e:	46da      	mov	sl, fp
  405c20:	2c10      	cmp	r4, #16
  405c22:	f340 84ab 	ble.w	40657c <_vfiprintf_r+0xd50>
  405c26:	f8df 9104 	ldr.w	r9, [pc, #260]	; 405d2c <_vfiprintf_r+0x500>
  405c2a:	990e      	ldr	r1, [sp, #56]	; 0x38
  405c2c:	464f      	mov	r7, r9
  405c2e:	2610      	movs	r6, #16
  405c30:	f8dd 9014 	ldr.w	r9, [sp, #20]
  405c34:	e006      	b.n	405c44 <_vfiprintf_r+0x418>
  405c36:	1c88      	adds	r0, r1, #2
  405c38:	f10a 0a08 	add.w	sl, sl, #8
  405c3c:	4619      	mov	r1, r3
  405c3e:	3c10      	subs	r4, #16
  405c40:	2c10      	cmp	r4, #16
  405c42:	dd13      	ble.n	405c6c <_vfiprintf_r+0x440>
  405c44:	1c4b      	adds	r3, r1, #1
  405c46:	3210      	adds	r2, #16
  405c48:	2b07      	cmp	r3, #7
  405c4a:	920f      	str	r2, [sp, #60]	; 0x3c
  405c4c:	f8ca 7000 	str.w	r7, [sl]
  405c50:	f8ca 6004 	str.w	r6, [sl, #4]
  405c54:	930e      	str	r3, [sp, #56]	; 0x38
  405c56:	ddee      	ble.n	405c36 <_vfiprintf_r+0x40a>
  405c58:	2a00      	cmp	r2, #0
  405c5a:	f040 828e 	bne.w	40617a <_vfiprintf_r+0x94e>
  405c5e:	3c10      	subs	r4, #16
  405c60:	2c10      	cmp	r4, #16
  405c62:	f04f 0001 	mov.w	r0, #1
  405c66:	4611      	mov	r1, r2
  405c68:	46da      	mov	sl, fp
  405c6a:	dceb      	bgt.n	405c44 <_vfiprintf_r+0x418>
  405c6c:	46b9      	mov	r9, r7
  405c6e:	4422      	add	r2, r4
  405c70:	2807      	cmp	r0, #7
  405c72:	920f      	str	r2, [sp, #60]	; 0x3c
  405c74:	f8ca 9000 	str.w	r9, [sl]
  405c78:	f8ca 4004 	str.w	r4, [sl, #4]
  405c7c:	900e      	str	r0, [sp, #56]	; 0x38
  405c7e:	f340 829b 	ble.w	4061b8 <_vfiprintf_r+0x98c>
  405c82:	2a00      	cmp	r2, #0
  405c84:	f040 8425 	bne.w	4064d2 <_vfiprintf_r+0xca6>
  405c88:	9b02      	ldr	r3, [sp, #8]
  405c8a:	9a06      	ldr	r2, [sp, #24]
  405c8c:	42aa      	cmp	r2, r5
  405c8e:	bfac      	ite	ge
  405c90:	189b      	addge	r3, r3, r2
  405c92:	195b      	addlt	r3, r3, r5
  405c94:	9302      	str	r3, [sp, #8]
  405c96:	e299      	b.n	4061cc <_vfiprintf_r+0x9a0>
  405c98:	f046 0680 	orr.w	r6, r6, #128	; 0x80
  405c9c:	f898 3000 	ldrb.w	r3, [r8]
  405ca0:	e62b      	b.n	4058fa <_vfiprintf_r+0xce>
  405ca2:	9406      	str	r4, [sp, #24]
  405ca4:	2900      	cmp	r1, #0
  405ca6:	f040 84af 	bne.w	406608 <_vfiprintf_r+0xddc>
  405caa:	f046 0610 	orr.w	r6, r6, #16
  405cae:	06b3      	lsls	r3, r6, #26
  405cb0:	f140 8312 	bpl.w	4062d8 <_vfiprintf_r+0xaac>
  405cb4:	9904      	ldr	r1, [sp, #16]
  405cb6:	3107      	adds	r1, #7
  405cb8:	f021 0107 	bic.w	r1, r1, #7
  405cbc:	e9d1 2300 	ldrd	r2, r3, [r1]
  405cc0:	3108      	adds	r1, #8
  405cc2:	9104      	str	r1, [sp, #16]
  405cc4:	4614      	mov	r4, r2
  405cc6:	461d      	mov	r5, r3
  405cc8:	2a00      	cmp	r2, #0
  405cca:	f173 0300 	sbcs.w	r3, r3, #0
  405cce:	f2c0 8386 	blt.w	4063de <_vfiprintf_r+0xbb2>
  405cd2:	9b01      	ldr	r3, [sp, #4]
  405cd4:	f89d 902f 	ldrb.w	r9, [sp, #47]	; 0x2f
  405cd8:	2b00      	cmp	r3, #0
  405cda:	f2c0 831a 	blt.w	406312 <_vfiprintf_r+0xae6>
  405cde:	ea54 0305 	orrs.w	r3, r4, r5
  405ce2:	f026 0680 	bic.w	r6, r6, #128	; 0x80
  405ce6:	f000 80ed 	beq.w	405ec4 <_vfiprintf_r+0x698>
  405cea:	2d00      	cmp	r5, #0
  405cec:	bf08      	it	eq
  405cee:	2c0a      	cmpeq	r4, #10
  405cf0:	f0c0 80ed 	bcc.w	405ece <_vfiprintf_r+0x6a2>
  405cf4:	465f      	mov	r7, fp
  405cf6:	4620      	mov	r0, r4
  405cf8:	4629      	mov	r1, r5
  405cfa:	220a      	movs	r2, #10
  405cfc:	2300      	movs	r3, #0
  405cfe:	f002 f80f 	bl	407d20 <__aeabi_uldivmod>
  405d02:	3230      	adds	r2, #48	; 0x30
  405d04:	f807 2d01 	strb.w	r2, [r7, #-1]!
  405d08:	4620      	mov	r0, r4
  405d0a:	4629      	mov	r1, r5
  405d0c:	2300      	movs	r3, #0
  405d0e:	220a      	movs	r2, #10
  405d10:	f002 f806 	bl	407d20 <__aeabi_uldivmod>
  405d14:	4604      	mov	r4, r0
  405d16:	460d      	mov	r5, r1
  405d18:	ea54 0305 	orrs.w	r3, r4, r5
  405d1c:	d1eb      	bne.n	405cf6 <_vfiprintf_r+0x4ca>
  405d1e:	ebc7 030b 	rsb	r3, r7, fp
  405d22:	9303      	str	r3, [sp, #12]
  405d24:	e6a2      	b.n	405a6c <_vfiprintf_r+0x240>
  405d26:	bf00      	nop
  405d28:	0040934c 	.word	0x0040934c
  405d2c:	00409368 	.word	0x00409368
  405d30:	00409328 	.word	0x00409328
  405d34:	9406      	str	r4, [sp, #24]
  405d36:	2900      	cmp	r1, #0
  405d38:	f040 8462 	bne.w	406600 <_vfiprintf_r+0xdd4>
  405d3c:	f046 0610 	orr.w	r6, r6, #16
  405d40:	f016 0320 	ands.w	r3, r6, #32
  405d44:	f000 82ae 	beq.w	4062a4 <_vfiprintf_r+0xa78>
  405d48:	9b04      	ldr	r3, [sp, #16]
  405d4a:	3307      	adds	r3, #7
  405d4c:	f023 0307 	bic.w	r3, r3, #7
  405d50:	f04f 0200 	mov.w	r2, #0
  405d54:	f88d 202f 	strb.w	r2, [sp, #47]	; 0x2f
  405d58:	e9d3 4500 	ldrd	r4, r5, [r3]
  405d5c:	f103 0208 	add.w	r2, r3, #8
  405d60:	9b01      	ldr	r3, [sp, #4]
  405d62:	9204      	str	r2, [sp, #16]
  405d64:	2b00      	cmp	r3, #0
  405d66:	f2c0 8174 	blt.w	406052 <_vfiprintf_r+0x826>
  405d6a:	ea54 0305 	orrs.w	r3, r4, r5
  405d6e:	f026 0680 	bic.w	r6, r6, #128	; 0x80
  405d72:	f040 816e 	bne.w	406052 <_vfiprintf_r+0x826>
  405d76:	9b01      	ldr	r3, [sp, #4]
  405d78:	2b00      	cmp	r3, #0
  405d7a:	f000 8430 	beq.w	4065de <_vfiprintf_r+0xdb2>
  405d7e:	f04f 0900 	mov.w	r9, #0
  405d82:	2400      	movs	r4, #0
  405d84:	2500      	movs	r5, #0
  405d86:	465f      	mov	r7, fp
  405d88:	08e2      	lsrs	r2, r4, #3
  405d8a:	ea42 7245 	orr.w	r2, r2, r5, lsl #29
  405d8e:	08e9      	lsrs	r1, r5, #3
  405d90:	f004 0307 	and.w	r3, r4, #7
  405d94:	460d      	mov	r5, r1
  405d96:	4614      	mov	r4, r2
  405d98:	3330      	adds	r3, #48	; 0x30
  405d9a:	ea54 0205 	orrs.w	r2, r4, r5
  405d9e:	f807 3d01 	strb.w	r3, [r7, #-1]!
  405da2:	d1f1      	bne.n	405d88 <_vfiprintf_r+0x55c>
  405da4:	07f4      	lsls	r4, r6, #31
  405da6:	d5ba      	bpl.n	405d1e <_vfiprintf_r+0x4f2>
  405da8:	2b30      	cmp	r3, #48	; 0x30
  405daa:	d0b8      	beq.n	405d1e <_vfiprintf_r+0x4f2>
  405dac:	2230      	movs	r2, #48	; 0x30
  405dae:	1e7b      	subs	r3, r7, #1
  405db0:	f807 2c01 	strb.w	r2, [r7, #-1]
  405db4:	ebc3 020b 	rsb	r2, r3, fp
  405db8:	9203      	str	r2, [sp, #12]
  405dba:	461f      	mov	r7, r3
  405dbc:	e656      	b.n	405a6c <_vfiprintf_r+0x240>
  405dbe:	f1a3 0230 	sub.w	r2, r3, #48	; 0x30
  405dc2:	2400      	movs	r4, #0
  405dc4:	f818 3b01 	ldrb.w	r3, [r8], #1
  405dc8:	eb04 0484 	add.w	r4, r4, r4, lsl #2
  405dcc:	eb02 0444 	add.w	r4, r2, r4, lsl #1
  405dd0:	f1a3 0230 	sub.w	r2, r3, #48	; 0x30
  405dd4:	2a09      	cmp	r2, #9
  405dd6:	d9f5      	bls.n	405dc4 <_vfiprintf_r+0x598>
  405dd8:	e591      	b.n	4058fe <_vfiprintf_r+0xd2>
  405dda:	f898 3000 	ldrb.w	r3, [r8]
  405dde:	2101      	movs	r1, #1
  405de0:	202b      	movs	r0, #43	; 0x2b
  405de2:	e58a      	b.n	4058fa <_vfiprintf_r+0xce>
  405de4:	f898 3000 	ldrb.w	r3, [r8]
  405de8:	2b2a      	cmp	r3, #42	; 0x2a
  405dea:	f108 0501 	add.w	r5, r8, #1
  405dee:	f000 83dd 	beq.w	4065ac <_vfiprintf_r+0xd80>
  405df2:	f1a3 0230 	sub.w	r2, r3, #48	; 0x30
  405df6:	2a09      	cmp	r2, #9
  405df8:	46a8      	mov	r8, r5
  405dfa:	bf98      	it	ls
  405dfc:	2500      	movls	r5, #0
  405dfe:	f200 83ce 	bhi.w	40659e <_vfiprintf_r+0xd72>
  405e02:	f818 3b01 	ldrb.w	r3, [r8], #1
  405e06:	eb05 0585 	add.w	r5, r5, r5, lsl #2
  405e0a:	eb02 0545 	add.w	r5, r2, r5, lsl #1
  405e0e:	f1a3 0230 	sub.w	r2, r3, #48	; 0x30
  405e12:	2a09      	cmp	r2, #9
  405e14:	d9f5      	bls.n	405e02 <_vfiprintf_r+0x5d6>
  405e16:	ea45 72e5 	orr.w	r2, r5, r5, asr #31
  405e1a:	9201      	str	r2, [sp, #4]
  405e1c:	e56f      	b.n	4058fe <_vfiprintf_r+0xd2>
  405e1e:	9a04      	ldr	r2, [sp, #16]
  405e20:	6814      	ldr	r4, [r2, #0]
  405e22:	4613      	mov	r3, r2
  405e24:	2c00      	cmp	r4, #0
  405e26:	f103 0304 	add.w	r3, r3, #4
  405e2a:	f6ff aded 	blt.w	405a08 <_vfiprintf_r+0x1dc>
  405e2e:	9304      	str	r3, [sp, #16]
  405e30:	f898 3000 	ldrb.w	r3, [r8]
  405e34:	e561      	b.n	4058fa <_vfiprintf_r+0xce>
  405e36:	9406      	str	r4, [sp, #24]
  405e38:	2900      	cmp	r1, #0
  405e3a:	d081      	beq.n	405d40 <_vfiprintf_r+0x514>
  405e3c:	f88d 002f 	strb.w	r0, [sp, #47]	; 0x2f
  405e40:	e77e      	b.n	405d40 <_vfiprintf_r+0x514>
  405e42:	9a04      	ldr	r2, [sp, #16]
  405e44:	9406      	str	r4, [sp, #24]
  405e46:	6817      	ldr	r7, [r2, #0]
  405e48:	f04f 0300 	mov.w	r3, #0
  405e4c:	f88d 302f 	strb.w	r3, [sp, #47]	; 0x2f
  405e50:	1d14      	adds	r4, r2, #4
  405e52:	9b01      	ldr	r3, [sp, #4]
  405e54:	2f00      	cmp	r7, #0
  405e56:	f000 8386 	beq.w	406566 <_vfiprintf_r+0xd3a>
  405e5a:	2b00      	cmp	r3, #0
  405e5c:	f2c0 835f 	blt.w	40651e <_vfiprintf_r+0xcf2>
  405e60:	461a      	mov	r2, r3
  405e62:	2100      	movs	r1, #0
  405e64:	4638      	mov	r0, r7
  405e66:	f001 f9a3 	bl	4071b0 <memchr>
  405e6a:	2800      	cmp	r0, #0
  405e6c:	f000 838f 	beq.w	40658e <_vfiprintf_r+0xd62>
  405e70:	1bc3      	subs	r3, r0, r7
  405e72:	9303      	str	r3, [sp, #12]
  405e74:	2300      	movs	r3, #0
  405e76:	9404      	str	r4, [sp, #16]
  405e78:	f89d 902f 	ldrb.w	r9, [sp, #47]	; 0x2f
  405e7c:	9301      	str	r3, [sp, #4]
  405e7e:	e5f5      	b.n	405a6c <_vfiprintf_r+0x240>
  405e80:	9406      	str	r4, [sp, #24]
  405e82:	2900      	cmp	r1, #0
  405e84:	f040 83b9 	bne.w	4065fa <_vfiprintf_r+0xdce>
  405e88:	f016 0920 	ands.w	r9, r6, #32
  405e8c:	d135      	bne.n	405efa <_vfiprintf_r+0x6ce>
  405e8e:	f016 0310 	ands.w	r3, r6, #16
  405e92:	d103      	bne.n	405e9c <_vfiprintf_r+0x670>
  405e94:	f016 0940 	ands.w	r9, r6, #64	; 0x40
  405e98:	f040 832a 	bne.w	4064f0 <_vfiprintf_r+0xcc4>
  405e9c:	9a04      	ldr	r2, [sp, #16]
  405e9e:	4613      	mov	r3, r2
  405ea0:	6814      	ldr	r4, [r2, #0]
  405ea2:	9a01      	ldr	r2, [sp, #4]
  405ea4:	f88d 902f 	strb.w	r9, [sp, #47]	; 0x2f
  405ea8:	2a00      	cmp	r2, #0
  405eaa:	f103 0304 	add.w	r3, r3, #4
  405eae:	f04f 0500 	mov.w	r5, #0
  405eb2:	f2c0 8332 	blt.w	40651a <_vfiprintf_r+0xcee>
  405eb6:	ea54 0205 	orrs.w	r2, r4, r5
  405eba:	f026 0680 	bic.w	r6, r6, #128	; 0x80
  405ebe:	9304      	str	r3, [sp, #16]
  405ec0:	f47f af13 	bne.w	405cea <_vfiprintf_r+0x4be>
  405ec4:	9b01      	ldr	r3, [sp, #4]
  405ec6:	2b00      	cmp	r3, #0
  405ec8:	f43f adcc 	beq.w	405a64 <_vfiprintf_r+0x238>
  405ecc:	2400      	movs	r4, #0
  405ece:	af2a      	add	r7, sp, #168	; 0xa8
  405ed0:	3430      	adds	r4, #48	; 0x30
  405ed2:	f807 4d41 	strb.w	r4, [r7, #-65]!
  405ed6:	ebc7 030b 	rsb	r3, r7, fp
  405eda:	9303      	str	r3, [sp, #12]
  405edc:	e5c6      	b.n	405a6c <_vfiprintf_r+0x240>
  405ede:	f046 0620 	orr.w	r6, r6, #32
  405ee2:	f898 3000 	ldrb.w	r3, [r8]
  405ee6:	e508      	b.n	4058fa <_vfiprintf_r+0xce>
  405ee8:	9406      	str	r4, [sp, #24]
  405eea:	2900      	cmp	r1, #0
  405eec:	f040 836e 	bne.w	4065cc <_vfiprintf_r+0xda0>
  405ef0:	f046 0610 	orr.w	r6, r6, #16
  405ef4:	f016 0920 	ands.w	r9, r6, #32
  405ef8:	d0c9      	beq.n	405e8e <_vfiprintf_r+0x662>
  405efa:	9b04      	ldr	r3, [sp, #16]
  405efc:	3307      	adds	r3, #7
  405efe:	f023 0307 	bic.w	r3, r3, #7
  405f02:	f04f 0200 	mov.w	r2, #0
  405f06:	f88d 202f 	strb.w	r2, [sp, #47]	; 0x2f
  405f0a:	e9d3 4500 	ldrd	r4, r5, [r3]
  405f0e:	f103 0208 	add.w	r2, r3, #8
  405f12:	9b01      	ldr	r3, [sp, #4]
  405f14:	9204      	str	r2, [sp, #16]
  405f16:	2b00      	cmp	r3, #0
  405f18:	f2c0 81f9 	blt.w	40630e <_vfiprintf_r+0xae2>
  405f1c:	ea54 0305 	orrs.w	r3, r4, r5
  405f20:	f026 0680 	bic.w	r6, r6, #128	; 0x80
  405f24:	f04f 0900 	mov.w	r9, #0
  405f28:	f47f aedf 	bne.w	405cea <_vfiprintf_r+0x4be>
  405f2c:	e7ca      	b.n	405ec4 <_vfiprintf_r+0x698>
  405f2e:	9406      	str	r4, [sp, #24]
  405f30:	2900      	cmp	r1, #0
  405f32:	f040 8351 	bne.w	4065d8 <_vfiprintf_r+0xdac>
  405f36:	06b2      	lsls	r2, r6, #26
  405f38:	48ae      	ldr	r0, [pc, #696]	; (4061f4 <_vfiprintf_r+0x9c8>)
  405f3a:	d541      	bpl.n	405fc0 <_vfiprintf_r+0x794>
  405f3c:	9a04      	ldr	r2, [sp, #16]
  405f3e:	3207      	adds	r2, #7
  405f40:	f022 0207 	bic.w	r2, r2, #7
  405f44:	e9d2 4500 	ldrd	r4, r5, [r2]
  405f48:	f102 0108 	add.w	r1, r2, #8
  405f4c:	9104      	str	r1, [sp, #16]
  405f4e:	f016 0901 	ands.w	r9, r6, #1
  405f52:	f000 8177 	beq.w	406244 <_vfiprintf_r+0xa18>
  405f56:	ea54 0205 	orrs.w	r2, r4, r5
  405f5a:	f040 8226 	bne.w	4063aa <_vfiprintf_r+0xb7e>
  405f5e:	f04f 0300 	mov.w	r3, #0
  405f62:	f88d 302f 	strb.w	r3, [sp, #47]	; 0x2f
  405f66:	9b01      	ldr	r3, [sp, #4]
  405f68:	2b00      	cmp	r3, #0
  405f6a:	f2c0 8196 	blt.w	40629a <_vfiprintf_r+0xa6e>
  405f6e:	f026 0680 	bic.w	r6, r6, #128	; 0x80
  405f72:	e572      	b.n	405a5a <_vfiprintf_r+0x22e>
  405f74:	9a04      	ldr	r2, [sp, #16]
  405f76:	9406      	str	r4, [sp, #24]
  405f78:	6813      	ldr	r3, [r2, #0]
  405f7a:	f88d 3040 	strb.w	r3, [sp, #64]	; 0x40
  405f7e:	4613      	mov	r3, r2
  405f80:	f04f 0100 	mov.w	r1, #0
  405f84:	2501      	movs	r5, #1
  405f86:	3304      	adds	r3, #4
  405f88:	f88d 102f 	strb.w	r1, [sp, #47]	; 0x2f
  405f8c:	9304      	str	r3, [sp, #16]
  405f8e:	9503      	str	r5, [sp, #12]
  405f90:	af10      	add	r7, sp, #64	; 0x40
  405f92:	2300      	movs	r3, #0
  405f94:	9301      	str	r3, [sp, #4]
  405f96:	e573      	b.n	405a80 <_vfiprintf_r+0x254>
  405f98:	f898 3000 	ldrb.w	r3, [r8]
  405f9c:	2800      	cmp	r0, #0
  405f9e:	f47f acac 	bne.w	4058fa <_vfiprintf_r+0xce>
  405fa2:	2101      	movs	r1, #1
  405fa4:	2020      	movs	r0, #32
  405fa6:	e4a8      	b.n	4058fa <_vfiprintf_r+0xce>
  405fa8:	f046 0601 	orr.w	r6, r6, #1
  405fac:	f898 3000 	ldrb.w	r3, [r8]
  405fb0:	e4a3      	b.n	4058fa <_vfiprintf_r+0xce>
  405fb2:	9406      	str	r4, [sp, #24]
  405fb4:	2900      	cmp	r1, #0
  405fb6:	f040 830c 	bne.w	4065d2 <_vfiprintf_r+0xda6>
  405fba:	06b2      	lsls	r2, r6, #26
  405fbc:	488e      	ldr	r0, [pc, #568]	; (4061f8 <_vfiprintf_r+0x9cc>)
  405fbe:	d4bd      	bmi.n	405f3c <_vfiprintf_r+0x710>
  405fc0:	9904      	ldr	r1, [sp, #16]
  405fc2:	06f7      	lsls	r7, r6, #27
  405fc4:	460a      	mov	r2, r1
  405fc6:	f100 819d 	bmi.w	406304 <_vfiprintf_r+0xad8>
  405fca:	0675      	lsls	r5, r6, #25
  405fcc:	f140 819a 	bpl.w	406304 <_vfiprintf_r+0xad8>
  405fd0:	3204      	adds	r2, #4
  405fd2:	880c      	ldrh	r4, [r1, #0]
  405fd4:	9204      	str	r2, [sp, #16]
  405fd6:	2500      	movs	r5, #0
  405fd8:	e7b9      	b.n	405f4e <_vfiprintf_r+0x722>
  405fda:	f046 0640 	orr.w	r6, r6, #64	; 0x40
  405fde:	f898 3000 	ldrb.w	r3, [r8]
  405fe2:	e48a      	b.n	4058fa <_vfiprintf_r+0xce>
  405fe4:	f898 3000 	ldrb.w	r3, [r8]
  405fe8:	2b6c      	cmp	r3, #108	; 0x6c
  405fea:	bf03      	ittte	eq
  405fec:	f898 3001 	ldrbeq.w	r3, [r8, #1]
  405ff0:	f046 0620 	orreq.w	r6, r6, #32
  405ff4:	f108 0801 	addeq.w	r8, r8, #1
  405ff8:	f046 0610 	orrne.w	r6, r6, #16
  405ffc:	e47d      	b.n	4058fa <_vfiprintf_r+0xce>
  405ffe:	2900      	cmp	r1, #0
  406000:	f040 8309 	bne.w	406616 <_vfiprintf_r+0xdea>
  406004:	06b4      	lsls	r4, r6, #26
  406006:	f140 821c 	bpl.w	406442 <_vfiprintf_r+0xc16>
  40600a:	9a04      	ldr	r2, [sp, #16]
  40600c:	9902      	ldr	r1, [sp, #8]
  40600e:	6813      	ldr	r3, [r2, #0]
  406010:	17cd      	asrs	r5, r1, #31
  406012:	4608      	mov	r0, r1
  406014:	3204      	adds	r2, #4
  406016:	4629      	mov	r1, r5
  406018:	9204      	str	r2, [sp, #16]
  40601a:	e9c3 0100 	strd	r0, r1, [r3]
  40601e:	e436      	b.n	40588e <_vfiprintf_r+0x62>
  406020:	9406      	str	r4, [sp, #24]
  406022:	2900      	cmp	r1, #0
  406024:	f43f ae43 	beq.w	405cae <_vfiprintf_r+0x482>
  406028:	f88d 002f 	strb.w	r0, [sp, #47]	; 0x2f
  40602c:	e63f      	b.n	405cae <_vfiprintf_r+0x482>
  40602e:	9406      	str	r4, [sp, #24]
  406030:	2900      	cmp	r1, #0
  406032:	f040 82ed 	bne.w	406610 <_vfiprintf_r+0xde4>
  406036:	2b00      	cmp	r3, #0
  406038:	f000 808f 	beq.w	40615a <_vfiprintf_r+0x92e>
  40603c:	2501      	movs	r5, #1
  40603e:	f88d 3040 	strb.w	r3, [sp, #64]	; 0x40
  406042:	f04f 0300 	mov.w	r3, #0
  406046:	f88d 302f 	strb.w	r3, [sp, #47]	; 0x2f
  40604a:	9503      	str	r5, [sp, #12]
  40604c:	af10      	add	r7, sp, #64	; 0x40
  40604e:	e7a0      	b.n	405f92 <_vfiprintf_r+0x766>
  406050:	9304      	str	r3, [sp, #16]
  406052:	f04f 0900 	mov.w	r9, #0
  406056:	e696      	b.n	405d86 <_vfiprintf_r+0x55a>
  406058:	aa0d      	add	r2, sp, #52	; 0x34
  40605a:	9900      	ldr	r1, [sp, #0]
  40605c:	9309      	str	r3, [sp, #36]	; 0x24
  40605e:	4648      	mov	r0, r9
  406060:	f7ff fba8 	bl	4057b4 <__sprint_r.part.0>
  406064:	2800      	cmp	r0, #0
  406066:	d17f      	bne.n	406168 <_vfiprintf_r+0x93c>
  406068:	980e      	ldr	r0, [sp, #56]	; 0x38
  40606a:	9a0f      	ldr	r2, [sp, #60]	; 0x3c
  40606c:	9b09      	ldr	r3, [sp, #36]	; 0x24
  40606e:	f100 0e01 	add.w	lr, r0, #1
  406072:	46dc      	mov	ip, fp
  406074:	e529      	b.n	405aca <_vfiprintf_r+0x29e>
  406076:	980e      	ldr	r0, [sp, #56]	; 0x38
  406078:	9a0f      	ldr	r2, [sp, #60]	; 0x3c
  40607a:	f100 0e01 	add.w	lr, r0, #1
  40607e:	f89d 302f 	ldrb.w	r3, [sp, #47]	; 0x2f
  406082:	2b00      	cmp	r3, #0
  406084:	f43f ad50 	beq.w	405b28 <_vfiprintf_r+0x2fc>
  406088:	3201      	adds	r2, #1
  40608a:	f10d 012f 	add.w	r1, sp, #47	; 0x2f
  40608e:	2301      	movs	r3, #1
  406090:	f1be 0f07 	cmp.w	lr, #7
  406094:	920f      	str	r2, [sp, #60]	; 0x3c
  406096:	f8cd e038 	str.w	lr, [sp, #56]	; 0x38
  40609a:	e88a 000a 	stmia.w	sl, {r1, r3}
  40609e:	f340 80bf 	ble.w	406220 <_vfiprintf_r+0x9f4>
  4060a2:	2a00      	cmp	r2, #0
  4060a4:	f040 814e 	bne.w	406344 <_vfiprintf_r+0xb18>
  4060a8:	9907      	ldr	r1, [sp, #28]
  4060aa:	2900      	cmp	r1, #0
  4060ac:	f040 80be 	bne.w	40622c <_vfiprintf_r+0xa00>
  4060b0:	469e      	mov	lr, r3
  4060b2:	4610      	mov	r0, r2
  4060b4:	46da      	mov	sl, fp
  4060b6:	9b08      	ldr	r3, [sp, #32]
  4060b8:	2b80      	cmp	r3, #128	; 0x80
  4060ba:	f43f ad50 	beq.w	405b5e <_vfiprintf_r+0x332>
  4060be:	9b01      	ldr	r3, [sp, #4]
  4060c0:	9903      	ldr	r1, [sp, #12]
  4060c2:	1a5c      	subs	r4, r3, r1
  4060c4:	2c00      	cmp	r4, #0
  4060c6:	f77f ad93 	ble.w	405bf0 <_vfiprintf_r+0x3c4>
  4060ca:	2c10      	cmp	r4, #16
  4060cc:	f8df 912c 	ldr.w	r9, [pc, #300]	; 4061fc <_vfiprintf_r+0x9d0>
  4060d0:	dd25      	ble.n	40611e <_vfiprintf_r+0x8f2>
  4060d2:	46d4      	mov	ip, sl
  4060d4:	2310      	movs	r3, #16
  4060d6:	46c2      	mov	sl, r8
  4060d8:	46a8      	mov	r8, r5
  4060da:	464d      	mov	r5, r9
  4060dc:	f8dd 9014 	ldr.w	r9, [sp, #20]
  4060e0:	e007      	b.n	4060f2 <_vfiprintf_r+0x8c6>
  4060e2:	f100 0e02 	add.w	lr, r0, #2
  4060e6:	f10c 0c08 	add.w	ip, ip, #8
  4060ea:	4608      	mov	r0, r1
  4060ec:	3c10      	subs	r4, #16
  4060ee:	2c10      	cmp	r4, #16
  4060f0:	dd11      	ble.n	406116 <_vfiprintf_r+0x8ea>
  4060f2:	1c41      	adds	r1, r0, #1
  4060f4:	3210      	adds	r2, #16
  4060f6:	2907      	cmp	r1, #7
  4060f8:	920f      	str	r2, [sp, #60]	; 0x3c
  4060fa:	f8cc 5000 	str.w	r5, [ip]
  4060fe:	f8cc 3004 	str.w	r3, [ip, #4]
  406102:	910e      	str	r1, [sp, #56]	; 0x38
  406104:	dded      	ble.n	4060e2 <_vfiprintf_r+0x8b6>
  406106:	b9d2      	cbnz	r2, 40613e <_vfiprintf_r+0x912>
  406108:	3c10      	subs	r4, #16
  40610a:	2c10      	cmp	r4, #16
  40610c:	f04f 0e01 	mov.w	lr, #1
  406110:	4610      	mov	r0, r2
  406112:	46dc      	mov	ip, fp
  406114:	dced      	bgt.n	4060f2 <_vfiprintf_r+0x8c6>
  406116:	46a9      	mov	r9, r5
  406118:	4645      	mov	r5, r8
  40611a:	46d0      	mov	r8, sl
  40611c:	46e2      	mov	sl, ip
  40611e:	4422      	add	r2, r4
  406120:	f1be 0f07 	cmp.w	lr, #7
  406124:	920f      	str	r2, [sp, #60]	; 0x3c
  406126:	f8ca 9000 	str.w	r9, [sl]
  40612a:	f8ca 4004 	str.w	r4, [sl, #4]
  40612e:	f8cd e038 	str.w	lr, [sp, #56]	; 0x38
  406132:	dc2e      	bgt.n	406192 <_vfiprintf_r+0x966>
  406134:	f10a 0a08 	add.w	sl, sl, #8
  406138:	f10e 0e01 	add.w	lr, lr, #1
  40613c:	e558      	b.n	405bf0 <_vfiprintf_r+0x3c4>
  40613e:	aa0d      	add	r2, sp, #52	; 0x34
  406140:	9900      	ldr	r1, [sp, #0]
  406142:	9301      	str	r3, [sp, #4]
  406144:	4648      	mov	r0, r9
  406146:	f7ff fb35 	bl	4057b4 <__sprint_r.part.0>
  40614a:	b968      	cbnz	r0, 406168 <_vfiprintf_r+0x93c>
  40614c:	980e      	ldr	r0, [sp, #56]	; 0x38
  40614e:	9a0f      	ldr	r2, [sp, #60]	; 0x3c
  406150:	9b01      	ldr	r3, [sp, #4]
  406152:	f100 0e01 	add.w	lr, r0, #1
  406156:	46dc      	mov	ip, fp
  406158:	e7c8      	b.n	4060ec <_vfiprintf_r+0x8c0>
  40615a:	9b0f      	ldr	r3, [sp, #60]	; 0x3c
  40615c:	b123      	cbz	r3, 406168 <_vfiprintf_r+0x93c>
  40615e:	9805      	ldr	r0, [sp, #20]
  406160:	9900      	ldr	r1, [sp, #0]
  406162:	aa0d      	add	r2, sp, #52	; 0x34
  406164:	f7ff fb26 	bl	4057b4 <__sprint_r.part.0>
  406168:	9b00      	ldr	r3, [sp, #0]
  40616a:	899b      	ldrh	r3, [r3, #12]
  40616c:	065a      	lsls	r2, r3, #25
  40616e:	f100 818b 	bmi.w	406488 <_vfiprintf_r+0xc5c>
  406172:	9802      	ldr	r0, [sp, #8]
  406174:	b02b      	add	sp, #172	; 0xac
  406176:	e8bd 8ff0 	ldmia.w	sp!, {r4, r5, r6, r7, r8, r9, sl, fp, pc}
  40617a:	aa0d      	add	r2, sp, #52	; 0x34
  40617c:	9900      	ldr	r1, [sp, #0]
  40617e:	4648      	mov	r0, r9
  406180:	f7ff fb18 	bl	4057b4 <__sprint_r.part.0>
  406184:	2800      	cmp	r0, #0
  406186:	d1ef      	bne.n	406168 <_vfiprintf_r+0x93c>
  406188:	990e      	ldr	r1, [sp, #56]	; 0x38
  40618a:	9a0f      	ldr	r2, [sp, #60]	; 0x3c
  40618c:	1c48      	adds	r0, r1, #1
  40618e:	46da      	mov	sl, fp
  406190:	e555      	b.n	405c3e <_vfiprintf_r+0x412>
  406192:	2a00      	cmp	r2, #0
  406194:	f040 80fb 	bne.w	40638e <_vfiprintf_r+0xb62>
  406198:	9a03      	ldr	r2, [sp, #12]
  40619a:	921b      	str	r2, [sp, #108]	; 0x6c
  40619c:	2301      	movs	r3, #1
  40619e:	920f      	str	r2, [sp, #60]	; 0x3c
  4061a0:	971a      	str	r7, [sp, #104]	; 0x68
  4061a2:	930e      	str	r3, [sp, #56]	; 0x38
  4061a4:	46da      	mov	sl, fp
  4061a6:	f10a 0a08 	add.w	sl, sl, #8
  4061aa:	0771      	lsls	r1, r6, #29
  4061ac:	d504      	bpl.n	4061b8 <_vfiprintf_r+0x98c>
  4061ae:	9b06      	ldr	r3, [sp, #24]
  4061b0:	1b5c      	subs	r4, r3, r5
  4061b2:	2c00      	cmp	r4, #0
  4061b4:	f73f ad34 	bgt.w	405c20 <_vfiprintf_r+0x3f4>
  4061b8:	9b02      	ldr	r3, [sp, #8]
  4061ba:	9906      	ldr	r1, [sp, #24]
  4061bc:	42a9      	cmp	r1, r5
  4061be:	bfac      	ite	ge
  4061c0:	185b      	addge	r3, r3, r1
  4061c2:	195b      	addlt	r3, r3, r5
  4061c4:	9302      	str	r3, [sp, #8]
  4061c6:	2a00      	cmp	r2, #0
  4061c8:	f040 80b3 	bne.w	406332 <_vfiprintf_r+0xb06>
  4061cc:	2300      	movs	r3, #0
  4061ce:	930e      	str	r3, [sp, #56]	; 0x38
  4061d0:	46da      	mov	sl, fp
  4061d2:	f7ff bb5c 	b.w	40588e <_vfiprintf_r+0x62>
  4061d6:	aa0d      	add	r2, sp, #52	; 0x34
  4061d8:	9900      	ldr	r1, [sp, #0]
  4061da:	9307      	str	r3, [sp, #28]
  4061dc:	4648      	mov	r0, r9
  4061de:	f7ff fae9 	bl	4057b4 <__sprint_r.part.0>
  4061e2:	2800      	cmp	r0, #0
  4061e4:	d1c0      	bne.n	406168 <_vfiprintf_r+0x93c>
  4061e6:	980e      	ldr	r0, [sp, #56]	; 0x38
  4061e8:	9a0f      	ldr	r2, [sp, #60]	; 0x3c
  4061ea:	9b07      	ldr	r3, [sp, #28]
  4061ec:	f100 0c01 	add.w	ip, r0, #1
  4061f0:	46de      	mov	lr, fp
  4061f2:	e4cb      	b.n	405b8c <_vfiprintf_r+0x360>
  4061f4:	00409338 	.word	0x00409338
  4061f8:	0040934c 	.word	0x0040934c
  4061fc:	00409328 	.word	0x00409328
  406200:	2a00      	cmp	r2, #0
  406202:	f040 8133 	bne.w	40646c <_vfiprintf_r+0xc40>
  406206:	f89d 302f 	ldrb.w	r3, [sp, #47]	; 0x2f
  40620a:	2b00      	cmp	r3, #0
  40620c:	f000 80f5 	beq.w	4063fa <_vfiprintf_r+0xbce>
  406210:	2301      	movs	r3, #1
  406212:	f10d 012f 	add.w	r1, sp, #47	; 0x2f
  406216:	461a      	mov	r2, r3
  406218:	931b      	str	r3, [sp, #108]	; 0x6c
  40621a:	469e      	mov	lr, r3
  40621c:	911a      	str	r1, [sp, #104]	; 0x68
  40621e:	46da      	mov	sl, fp
  406220:	4670      	mov	r0, lr
  406222:	f10a 0a08 	add.w	sl, sl, #8
  406226:	f10e 0e01 	add.w	lr, lr, #1
  40622a:	e47d      	b.n	405b28 <_vfiprintf_r+0x2fc>
  40622c:	a90c      	add	r1, sp, #48	; 0x30
  40622e:	2202      	movs	r2, #2
  406230:	469e      	mov	lr, r3
  406232:	911a      	str	r1, [sp, #104]	; 0x68
  406234:	921b      	str	r2, [sp, #108]	; 0x6c
  406236:	46da      	mov	sl, fp
  406238:	4670      	mov	r0, lr
  40623a:	f10a 0a08 	add.w	sl, sl, #8
  40623e:	f10e 0e01 	add.w	lr, lr, #1
  406242:	e738      	b.n	4060b6 <_vfiprintf_r+0x88a>
  406244:	9b01      	ldr	r3, [sp, #4]
  406246:	f88d 902f 	strb.w	r9, [sp, #47]	; 0x2f
  40624a:	2b00      	cmp	r3, #0
  40624c:	f2c0 812a 	blt.w	4064a4 <_vfiprintf_r+0xc78>
  406250:	ea54 0305 	orrs.w	r3, r4, r5
  406254:	f026 0680 	bic.w	r6, r6, #128	; 0x80
  406258:	f43f abff 	beq.w	405a5a <_vfiprintf_r+0x22e>
  40625c:	465f      	mov	r7, fp
  40625e:	0923      	lsrs	r3, r4, #4
  406260:	f004 010f 	and.w	r1, r4, #15
  406264:	ea43 7305 	orr.w	r3, r3, r5, lsl #28
  406268:	092a      	lsrs	r2, r5, #4
  40626a:	461c      	mov	r4, r3
  40626c:	4615      	mov	r5, r2
  40626e:	5c43      	ldrb	r3, [r0, r1]
  406270:	f807 3d01 	strb.w	r3, [r7, #-1]!
  406274:	ea54 0305 	orrs.w	r3, r4, r5
  406278:	d1f1      	bne.n	40625e <_vfiprintf_r+0xa32>
  40627a:	ebc7 030b 	rsb	r3, r7, fp
  40627e:	9303      	str	r3, [sp, #12]
  406280:	f7ff bbf4 	b.w	405a6c <_vfiprintf_r+0x240>
  406284:	aa0d      	add	r2, sp, #52	; 0x34
  406286:	9900      	ldr	r1, [sp, #0]
  406288:	9805      	ldr	r0, [sp, #20]
  40628a:	f7ff fa93 	bl	4057b4 <__sprint_r.part.0>
  40628e:	2800      	cmp	r0, #0
  406290:	f47f af6a 	bne.w	406168 <_vfiprintf_r+0x93c>
  406294:	9a0f      	ldr	r2, [sp, #60]	; 0x3c
  406296:	46da      	mov	sl, fp
  406298:	e787      	b.n	4061aa <_vfiprintf_r+0x97e>
  40629a:	f04f 0900 	mov.w	r9, #0
  40629e:	2400      	movs	r4, #0
  4062a0:	2500      	movs	r5, #0
  4062a2:	e7db      	b.n	40625c <_vfiprintf_r+0xa30>
  4062a4:	f016 0210 	ands.w	r2, r6, #16
  4062a8:	f000 80b2 	beq.w	406410 <_vfiprintf_r+0xbe4>
  4062ac:	9904      	ldr	r1, [sp, #16]
  4062ae:	f88d 302f 	strb.w	r3, [sp, #47]	; 0x2f
  4062b2:	460a      	mov	r2, r1
  4062b4:	680c      	ldr	r4, [r1, #0]
  4062b6:	9901      	ldr	r1, [sp, #4]
  4062b8:	2900      	cmp	r1, #0
  4062ba:	f102 0204 	add.w	r2, r2, #4
  4062be:	f04f 0500 	mov.w	r5, #0
  4062c2:	f2c0 8159 	blt.w	406578 <_vfiprintf_r+0xd4c>
  4062c6:	ea54 0105 	orrs.w	r1, r4, r5
  4062ca:	f026 0680 	bic.w	r6, r6, #128	; 0x80
  4062ce:	9204      	str	r2, [sp, #16]
  4062d0:	f43f ad51 	beq.w	405d76 <_vfiprintf_r+0x54a>
  4062d4:	4699      	mov	r9, r3
  4062d6:	e556      	b.n	405d86 <_vfiprintf_r+0x55a>
  4062d8:	06f7      	lsls	r7, r6, #27
  4062da:	d40a      	bmi.n	4062f2 <_vfiprintf_r+0xac6>
  4062dc:	0675      	lsls	r5, r6, #25
  4062de:	d508      	bpl.n	4062f2 <_vfiprintf_r+0xac6>
  4062e0:	9904      	ldr	r1, [sp, #16]
  4062e2:	f9b1 4000 	ldrsh.w	r4, [r1]
  4062e6:	3104      	adds	r1, #4
  4062e8:	17e5      	asrs	r5, r4, #31
  4062ea:	4622      	mov	r2, r4
  4062ec:	462b      	mov	r3, r5
  4062ee:	9104      	str	r1, [sp, #16]
  4062f0:	e4ea      	b.n	405cc8 <_vfiprintf_r+0x49c>
  4062f2:	9a04      	ldr	r2, [sp, #16]
  4062f4:	6814      	ldr	r4, [r2, #0]
  4062f6:	4613      	mov	r3, r2
  4062f8:	3304      	adds	r3, #4
  4062fa:	17e5      	asrs	r5, r4, #31
  4062fc:	9304      	str	r3, [sp, #16]
  4062fe:	4622      	mov	r2, r4
  406300:	462b      	mov	r3, r5
  406302:	e4e1      	b.n	405cc8 <_vfiprintf_r+0x49c>
  406304:	6814      	ldr	r4, [r2, #0]
  406306:	3204      	adds	r2, #4
  406308:	9204      	str	r2, [sp, #16]
  40630a:	2500      	movs	r5, #0
  40630c:	e61f      	b.n	405f4e <_vfiprintf_r+0x722>
  40630e:	f04f 0900 	mov.w	r9, #0
  406312:	ea54 0305 	orrs.w	r3, r4, r5
  406316:	f47f ace8 	bne.w	405cea <_vfiprintf_r+0x4be>
  40631a:	e5d8      	b.n	405ece <_vfiprintf_r+0x6a2>
  40631c:	aa0d      	add	r2, sp, #52	; 0x34
  40631e:	9900      	ldr	r1, [sp, #0]
  406320:	9805      	ldr	r0, [sp, #20]
  406322:	f7ff fa47 	bl	4057b4 <__sprint_r.part.0>
  406326:	2800      	cmp	r0, #0
  406328:	f47f af1e 	bne.w	406168 <_vfiprintf_r+0x93c>
  40632c:	46da      	mov	sl, fp
  40632e:	f7ff bb48 	b.w	4059c2 <_vfiprintf_r+0x196>
  406332:	aa0d      	add	r2, sp, #52	; 0x34
  406334:	9900      	ldr	r1, [sp, #0]
  406336:	9805      	ldr	r0, [sp, #20]
  406338:	f7ff fa3c 	bl	4057b4 <__sprint_r.part.0>
  40633c:	2800      	cmp	r0, #0
  40633e:	f43f af45 	beq.w	4061cc <_vfiprintf_r+0x9a0>
  406342:	e711      	b.n	406168 <_vfiprintf_r+0x93c>
  406344:	aa0d      	add	r2, sp, #52	; 0x34
  406346:	9900      	ldr	r1, [sp, #0]
  406348:	9805      	ldr	r0, [sp, #20]
  40634a:	f7ff fa33 	bl	4057b4 <__sprint_r.part.0>
  40634e:	2800      	cmp	r0, #0
  406350:	f47f af0a 	bne.w	406168 <_vfiprintf_r+0x93c>
  406354:	980e      	ldr	r0, [sp, #56]	; 0x38
  406356:	9a0f      	ldr	r2, [sp, #60]	; 0x3c
  406358:	f100 0e01 	add.w	lr, r0, #1
  40635c:	46da      	mov	sl, fp
  40635e:	f7ff bbe3 	b.w	405b28 <_vfiprintf_r+0x2fc>
  406362:	aa0d      	add	r2, sp, #52	; 0x34
  406364:	9900      	ldr	r1, [sp, #0]
  406366:	9805      	ldr	r0, [sp, #20]
  406368:	f7ff fa24 	bl	4057b4 <__sprint_r.part.0>
  40636c:	2800      	cmp	r0, #0
  40636e:	f47f aefb 	bne.w	406168 <_vfiprintf_r+0x93c>
  406372:	980e      	ldr	r0, [sp, #56]	; 0x38
  406374:	9a0f      	ldr	r2, [sp, #60]	; 0x3c
  406376:	f100 0e01 	add.w	lr, r0, #1
  40637a:	46da      	mov	sl, fp
  40637c:	e69b      	b.n	4060b6 <_vfiprintf_r+0x88a>
  40637e:	2a00      	cmp	r2, #0
  406380:	f040 80d8 	bne.w	406534 <_vfiprintf_r+0xd08>
  406384:	f04f 0e01 	mov.w	lr, #1
  406388:	4610      	mov	r0, r2
  40638a:	46da      	mov	sl, fp
  40638c:	e697      	b.n	4060be <_vfiprintf_r+0x892>
  40638e:	aa0d      	add	r2, sp, #52	; 0x34
  406390:	9900      	ldr	r1, [sp, #0]
  406392:	9805      	ldr	r0, [sp, #20]
  406394:	f7ff fa0e 	bl	4057b4 <__sprint_r.part.0>
  406398:	2800      	cmp	r0, #0
  40639a:	f47f aee5 	bne.w	406168 <_vfiprintf_r+0x93c>
  40639e:	9b0e      	ldr	r3, [sp, #56]	; 0x38
  4063a0:	9a0f      	ldr	r2, [sp, #60]	; 0x3c
  4063a2:	f103 0e01 	add.w	lr, r3, #1
  4063a6:	46da      	mov	sl, fp
  4063a8:	e422      	b.n	405bf0 <_vfiprintf_r+0x3c4>
  4063aa:	2230      	movs	r2, #48	; 0x30
  4063ac:	f88d 2030 	strb.w	r2, [sp, #48]	; 0x30
  4063b0:	9a01      	ldr	r2, [sp, #4]
  4063b2:	f88d 3031 	strb.w	r3, [sp, #49]	; 0x31
  4063b6:	2a00      	cmp	r2, #0
  4063b8:	f04f 0300 	mov.w	r3, #0
  4063bc:	f88d 302f 	strb.w	r3, [sp, #47]	; 0x2f
  4063c0:	f046 0302 	orr.w	r3, r6, #2
  4063c4:	f2c0 80cb 	blt.w	40655e <_vfiprintf_r+0xd32>
  4063c8:	f026 0680 	bic.w	r6, r6, #128	; 0x80
  4063cc:	f046 0602 	orr.w	r6, r6, #2
  4063d0:	f04f 0900 	mov.w	r9, #0
  4063d4:	e742      	b.n	40625c <_vfiprintf_r+0xa30>
  4063d6:	f04f 0900 	mov.w	r9, #0
  4063da:	4890      	ldr	r0, [pc, #576]	; (40661c <_vfiprintf_r+0xdf0>)
  4063dc:	e73e      	b.n	40625c <_vfiprintf_r+0xa30>
  4063de:	9b01      	ldr	r3, [sp, #4]
  4063e0:	4264      	negs	r4, r4
  4063e2:	f04f 092d 	mov.w	r9, #45	; 0x2d
  4063e6:	eb65 0545 	sbc.w	r5, r5, r5, lsl #1
  4063ea:	2b00      	cmp	r3, #0
  4063ec:	f88d 902f 	strb.w	r9, [sp, #47]	; 0x2f
  4063f0:	f6ff ac7b 	blt.w	405cea <_vfiprintf_r+0x4be>
  4063f4:	f026 0680 	bic.w	r6, r6, #128	; 0x80
  4063f8:	e477      	b.n	405cea <_vfiprintf_r+0x4be>
  4063fa:	9b07      	ldr	r3, [sp, #28]
  4063fc:	2b00      	cmp	r3, #0
  4063fe:	d072      	beq.n	4064e6 <_vfiprintf_r+0xcba>
  406400:	ab0c      	add	r3, sp, #48	; 0x30
  406402:	2202      	movs	r2, #2
  406404:	931a      	str	r3, [sp, #104]	; 0x68
  406406:	921b      	str	r2, [sp, #108]	; 0x6c
  406408:	f04f 0e01 	mov.w	lr, #1
  40640c:	46da      	mov	sl, fp
  40640e:	e713      	b.n	406238 <_vfiprintf_r+0xa0c>
  406410:	f016 0940 	ands.w	r9, r6, #64	; 0x40
  406414:	d048      	beq.n	4064a8 <_vfiprintf_r+0xc7c>
  406416:	9904      	ldr	r1, [sp, #16]
  406418:	f88d 202f 	strb.w	r2, [sp, #47]	; 0x2f
  40641c:	460b      	mov	r3, r1
  40641e:	880c      	ldrh	r4, [r1, #0]
  406420:	9901      	ldr	r1, [sp, #4]
  406422:	2900      	cmp	r1, #0
  406424:	f103 0304 	add.w	r3, r3, #4
  406428:	f04f 0500 	mov.w	r5, #0
  40642c:	f6ff ae10 	blt.w	406050 <_vfiprintf_r+0x824>
  406430:	ea54 0105 	orrs.w	r1, r4, r5
  406434:	f026 0680 	bic.w	r6, r6, #128	; 0x80
  406438:	9304      	str	r3, [sp, #16]
  40643a:	f43f ac9c 	beq.w	405d76 <_vfiprintf_r+0x54a>
  40643e:	4691      	mov	r9, r2
  406440:	e4a1      	b.n	405d86 <_vfiprintf_r+0x55a>
  406442:	06f0      	lsls	r0, r6, #27
  406444:	d40a      	bmi.n	40645c <_vfiprintf_r+0xc30>
  406446:	0671      	lsls	r1, r6, #25
  406448:	d508      	bpl.n	40645c <_vfiprintf_r+0xc30>
  40644a:	9a04      	ldr	r2, [sp, #16]
  40644c:	6813      	ldr	r3, [r2, #0]
  40644e:	3204      	adds	r2, #4
  406450:	9204      	str	r2, [sp, #16]
  406452:	f8bd 2008 	ldrh.w	r2, [sp, #8]
  406456:	801a      	strh	r2, [r3, #0]
  406458:	f7ff ba19 	b.w	40588e <_vfiprintf_r+0x62>
  40645c:	9a04      	ldr	r2, [sp, #16]
  40645e:	6813      	ldr	r3, [r2, #0]
  406460:	3204      	adds	r2, #4
  406462:	9204      	str	r2, [sp, #16]
  406464:	9a02      	ldr	r2, [sp, #8]
  406466:	601a      	str	r2, [r3, #0]
  406468:	f7ff ba11 	b.w	40588e <_vfiprintf_r+0x62>
  40646c:	aa0d      	add	r2, sp, #52	; 0x34
  40646e:	9900      	ldr	r1, [sp, #0]
  406470:	9805      	ldr	r0, [sp, #20]
  406472:	f7ff f99f 	bl	4057b4 <__sprint_r.part.0>
  406476:	2800      	cmp	r0, #0
  406478:	f47f ae76 	bne.w	406168 <_vfiprintf_r+0x93c>
  40647c:	980e      	ldr	r0, [sp, #56]	; 0x38
  40647e:	9a0f      	ldr	r2, [sp, #60]	; 0x3c
  406480:	f100 0e01 	add.w	lr, r0, #1
  406484:	46da      	mov	sl, fp
  406486:	e5fa      	b.n	40607e <_vfiprintf_r+0x852>
  406488:	f04f 30ff 	mov.w	r0, #4294967295
  40648c:	f7ff bab6 	b.w	4059fc <_vfiprintf_r+0x1d0>
  406490:	4862      	ldr	r0, [pc, #392]	; (40661c <_vfiprintf_r+0xdf0>)
  406492:	4616      	mov	r6, r2
  406494:	ea54 0205 	orrs.w	r2, r4, r5
  406498:	9304      	str	r3, [sp, #16]
  40649a:	f04f 0900 	mov.w	r9, #0
  40649e:	f47f aedd 	bne.w	40625c <_vfiprintf_r+0xa30>
  4064a2:	e6fc      	b.n	40629e <_vfiprintf_r+0xa72>
  4064a4:	9b04      	ldr	r3, [sp, #16]
  4064a6:	e7f5      	b.n	406494 <_vfiprintf_r+0xc68>
  4064a8:	9a04      	ldr	r2, [sp, #16]
  4064aa:	f88d 902f 	strb.w	r9, [sp, #47]	; 0x2f
  4064ae:	4613      	mov	r3, r2
  4064b0:	6814      	ldr	r4, [r2, #0]
  4064b2:	9a01      	ldr	r2, [sp, #4]
  4064b4:	2a00      	cmp	r2, #0
  4064b6:	f103 0304 	add.w	r3, r3, #4
  4064ba:	f04f 0500 	mov.w	r5, #0
  4064be:	f6ff adc7 	blt.w	406050 <_vfiprintf_r+0x824>
  4064c2:	ea54 0205 	orrs.w	r2, r4, r5
  4064c6:	f026 0680 	bic.w	r6, r6, #128	; 0x80
  4064ca:	9304      	str	r3, [sp, #16]
  4064cc:	f47f ac5b 	bne.w	405d86 <_vfiprintf_r+0x55a>
  4064d0:	e451      	b.n	405d76 <_vfiprintf_r+0x54a>
  4064d2:	aa0d      	add	r2, sp, #52	; 0x34
  4064d4:	9900      	ldr	r1, [sp, #0]
  4064d6:	9805      	ldr	r0, [sp, #20]
  4064d8:	f7ff f96c 	bl	4057b4 <__sprint_r.part.0>
  4064dc:	2800      	cmp	r0, #0
  4064de:	f47f ae43 	bne.w	406168 <_vfiprintf_r+0x93c>
  4064e2:	9a0f      	ldr	r2, [sp, #60]	; 0x3c
  4064e4:	e668      	b.n	4061b8 <_vfiprintf_r+0x98c>
  4064e6:	4610      	mov	r0, r2
  4064e8:	f04f 0e01 	mov.w	lr, #1
  4064ec:	46da      	mov	sl, fp
  4064ee:	e5e6      	b.n	4060be <_vfiprintf_r+0x892>
  4064f0:	9904      	ldr	r1, [sp, #16]
  4064f2:	f88d 302f 	strb.w	r3, [sp, #47]	; 0x2f
  4064f6:	460a      	mov	r2, r1
  4064f8:	880c      	ldrh	r4, [r1, #0]
  4064fa:	9901      	ldr	r1, [sp, #4]
  4064fc:	2900      	cmp	r1, #0
  4064fe:	f102 0204 	add.w	r2, r2, #4
  406502:	f04f 0500 	mov.w	r5, #0
  406506:	db4e      	blt.n	4065a6 <_vfiprintf_r+0xd7a>
  406508:	ea54 0105 	orrs.w	r1, r4, r5
  40650c:	f026 0680 	bic.w	r6, r6, #128	; 0x80
  406510:	9204      	str	r2, [sp, #16]
  406512:	4699      	mov	r9, r3
  406514:	f47f abe9 	bne.w	405cea <_vfiprintf_r+0x4be>
  406518:	e4d4      	b.n	405ec4 <_vfiprintf_r+0x698>
  40651a:	9304      	str	r3, [sp, #16]
  40651c:	e6f9      	b.n	406312 <_vfiprintf_r+0xae6>
  40651e:	4638      	mov	r0, r7
  406520:	9404      	str	r4, [sp, #16]
  406522:	f7fe fe6d 	bl	405200 <strlen>
  406526:	2300      	movs	r3, #0
  406528:	9003      	str	r0, [sp, #12]
  40652a:	f89d 902f 	ldrb.w	r9, [sp, #47]	; 0x2f
  40652e:	9301      	str	r3, [sp, #4]
  406530:	f7ff ba9c 	b.w	405a6c <_vfiprintf_r+0x240>
  406534:	aa0d      	add	r2, sp, #52	; 0x34
  406536:	9900      	ldr	r1, [sp, #0]
  406538:	9805      	ldr	r0, [sp, #20]
  40653a:	f7ff f93b 	bl	4057b4 <__sprint_r.part.0>
  40653e:	2800      	cmp	r0, #0
  406540:	f47f ae12 	bne.w	406168 <_vfiprintf_r+0x93c>
  406544:	980e      	ldr	r0, [sp, #56]	; 0x38
  406546:	9a0f      	ldr	r2, [sp, #60]	; 0x3c
  406548:	f100 0e01 	add.w	lr, r0, #1
  40654c:	46da      	mov	sl, fp
  40654e:	e5b6      	b.n	4060be <_vfiprintf_r+0x892>
  406550:	980e      	ldr	r0, [sp, #56]	; 0x38
  406552:	9a0f      	ldr	r2, [sp, #60]	; 0x3c
  406554:	f8df 90cc 	ldr.w	r9, [pc, #204]	; 406624 <_vfiprintf_r+0xdf8>
  406558:	3001      	adds	r0, #1
  40655a:	f7ff bad2 	b.w	405b02 <_vfiprintf_r+0x2d6>
  40655e:	461e      	mov	r6, r3
  406560:	f04f 0900 	mov.w	r9, #0
  406564:	e67a      	b.n	40625c <_vfiprintf_r+0xa30>
  406566:	2b06      	cmp	r3, #6
  406568:	bf28      	it	cs
  40656a:	2306      	movcs	r3, #6
  40656c:	9303      	str	r3, [sp, #12]
  40656e:	9404      	str	r4, [sp, #16]
  406570:	ea23 75e3 	bic.w	r5, r3, r3, asr #31
  406574:	4f2a      	ldr	r7, [pc, #168]	; (406620 <_vfiprintf_r+0xdf4>)
  406576:	e50c      	b.n	405f92 <_vfiprintf_r+0x766>
  406578:	9204      	str	r2, [sp, #16]
  40657a:	e56a      	b.n	406052 <_vfiprintf_r+0x826>
  40657c:	980e      	ldr	r0, [sp, #56]	; 0x38
  40657e:	f8df 90a4 	ldr.w	r9, [pc, #164]	; 406624 <_vfiprintf_r+0xdf8>
  406582:	3001      	adds	r0, #1
  406584:	f7ff bb73 	b.w	405c6e <_vfiprintf_r+0x442>
  406588:	46f4      	mov	ip, lr
  40658a:	f7ff bb1a 	b.w	405bc2 <_vfiprintf_r+0x396>
  40658e:	9b01      	ldr	r3, [sp, #4]
  406590:	f89d 902f 	ldrb.w	r9, [sp, #47]	; 0x2f
  406594:	9303      	str	r3, [sp, #12]
  406596:	9404      	str	r4, [sp, #16]
  406598:	9001      	str	r0, [sp, #4]
  40659a:	f7ff ba67 	b.w	405a6c <_vfiprintf_r+0x240>
  40659e:	2200      	movs	r2, #0
  4065a0:	9201      	str	r2, [sp, #4]
  4065a2:	f7ff b9ac 	b.w	4058fe <_vfiprintf_r+0xd2>
  4065a6:	9204      	str	r2, [sp, #16]
  4065a8:	4699      	mov	r9, r3
  4065aa:	e6b2      	b.n	406312 <_vfiprintf_r+0xae6>
  4065ac:	9a04      	ldr	r2, [sp, #16]
  4065ae:	6813      	ldr	r3, [r2, #0]
  4065b0:	9301      	str	r3, [sp, #4]
  4065b2:	3204      	adds	r2, #4
  4065b4:	2b00      	cmp	r3, #0
  4065b6:	9204      	str	r2, [sp, #16]
  4065b8:	f898 3001 	ldrb.w	r3, [r8, #1]
  4065bc:	46a8      	mov	r8, r5
  4065be:	f6bf a99c 	bge.w	4058fa <_vfiprintf_r+0xce>
  4065c2:	f04f 32ff 	mov.w	r2, #4294967295
  4065c6:	9201      	str	r2, [sp, #4]
  4065c8:	f7ff b997 	b.w	4058fa <_vfiprintf_r+0xce>
  4065cc:	f88d 002f 	strb.w	r0, [sp, #47]	; 0x2f
  4065d0:	e48e      	b.n	405ef0 <_vfiprintf_r+0x6c4>
  4065d2:	f88d 002f 	strb.w	r0, [sp, #47]	; 0x2f
  4065d6:	e4f0      	b.n	405fba <_vfiprintf_r+0x78e>
  4065d8:	f88d 002f 	strb.w	r0, [sp, #47]	; 0x2f
  4065dc:	e4ab      	b.n	405f36 <_vfiprintf_r+0x70a>
  4065de:	4699      	mov	r9, r3
  4065e0:	07f3      	lsls	r3, r6, #31
  4065e2:	d505      	bpl.n	4065f0 <_vfiprintf_r+0xdc4>
  4065e4:	af2a      	add	r7, sp, #168	; 0xa8
  4065e6:	2330      	movs	r3, #48	; 0x30
  4065e8:	f807 3d41 	strb.w	r3, [r7, #-65]!
  4065ec:	f7ff bb97 	b.w	405d1e <_vfiprintf_r+0x4f2>
  4065f0:	9b01      	ldr	r3, [sp, #4]
  4065f2:	9303      	str	r3, [sp, #12]
  4065f4:	465f      	mov	r7, fp
  4065f6:	f7ff ba39 	b.w	405a6c <_vfiprintf_r+0x240>
  4065fa:	f88d 002f 	strb.w	r0, [sp, #47]	; 0x2f
  4065fe:	e443      	b.n	405e88 <_vfiprintf_r+0x65c>
  406600:	f88d 002f 	strb.w	r0, [sp, #47]	; 0x2f
  406604:	f7ff bb9a 	b.w	405d3c <_vfiprintf_r+0x510>
  406608:	f88d 002f 	strb.w	r0, [sp, #47]	; 0x2f
  40660c:	f7ff bb4d 	b.w	405caa <_vfiprintf_r+0x47e>
  406610:	f88d 002f 	strb.w	r0, [sp, #47]	; 0x2f
  406614:	e50f      	b.n	406036 <_vfiprintf_r+0x80a>
  406616:	f88d 002f 	strb.w	r0, [sp, #47]	; 0x2f
  40661a:	e4f3      	b.n	406004 <_vfiprintf_r+0x7d8>
  40661c:	0040934c 	.word	0x0040934c
  406620:	00409360 	.word	0x00409360
  406624:	00409368 	.word	0x00409368

00406628 <__sbprintf>:
  406628:	b5f0      	push	{r4, r5, r6, r7, lr}
  40662a:	460c      	mov	r4, r1
  40662c:	f2ad 4d6c 	subw	sp, sp, #1132	; 0x46c
  406630:	8989      	ldrh	r1, [r1, #12]
  406632:	6e66      	ldr	r6, [r4, #100]	; 0x64
  406634:	89e5      	ldrh	r5, [r4, #14]
  406636:	9619      	str	r6, [sp, #100]	; 0x64
  406638:	f021 0102 	bic.w	r1, r1, #2
  40663c:	6a66      	ldr	r6, [r4, #36]	; 0x24
  40663e:	f8ad 500e 	strh.w	r5, [sp, #14]
  406642:	2500      	movs	r5, #0
  406644:	69e7      	ldr	r7, [r4, #28]
  406646:	f8ad 100c 	strh.w	r1, [sp, #12]
  40664a:	9609      	str	r6, [sp, #36]	; 0x24
  40664c:	9506      	str	r5, [sp, #24]
  40664e:	ae1a      	add	r6, sp, #104	; 0x68
  406650:	f44f 6580 	mov.w	r5, #1024	; 0x400
  406654:	4669      	mov	r1, sp
  406656:	9600      	str	r6, [sp, #0]
  406658:	9604      	str	r6, [sp, #16]
  40665a:	9502      	str	r5, [sp, #8]
  40665c:	9505      	str	r5, [sp, #20]
  40665e:	9707      	str	r7, [sp, #28]
  406660:	4606      	mov	r6, r0
  406662:	f7ff f8e3 	bl	40582c <_vfiprintf_r>
  406666:	1e05      	subs	r5, r0, #0
  406668:	db07      	blt.n	40667a <__sbprintf+0x52>
  40666a:	4630      	mov	r0, r6
  40666c:	4669      	mov	r1, sp
  40666e:	f000 f929 	bl	4068c4 <_fflush_r>
  406672:	2800      	cmp	r0, #0
  406674:	bf18      	it	ne
  406676:	f04f 35ff 	movne.w	r5, #4294967295
  40667a:	f8bd 300c 	ldrh.w	r3, [sp, #12]
  40667e:	065b      	lsls	r3, r3, #25
  406680:	d503      	bpl.n	40668a <__sbprintf+0x62>
  406682:	89a3      	ldrh	r3, [r4, #12]
  406684:	f043 0340 	orr.w	r3, r3, #64	; 0x40
  406688:	81a3      	strh	r3, [r4, #12]
  40668a:	4628      	mov	r0, r5
  40668c:	f20d 4d6c 	addw	sp, sp, #1132	; 0x46c
  406690:	bdf0      	pop	{r4, r5, r6, r7, pc}
  406692:	bf00      	nop

00406694 <__swsetup_r>:
  406694:	b538      	push	{r3, r4, r5, lr}
  406696:	4b30      	ldr	r3, [pc, #192]	; (406758 <__swsetup_r+0xc4>)
  406698:	681b      	ldr	r3, [r3, #0]
  40669a:	4605      	mov	r5, r0
  40669c:	460c      	mov	r4, r1
  40669e:	b113      	cbz	r3, 4066a6 <__swsetup_r+0x12>
  4066a0:	6b9a      	ldr	r2, [r3, #56]	; 0x38
  4066a2:	2a00      	cmp	r2, #0
  4066a4:	d038      	beq.n	406718 <__swsetup_r+0x84>
  4066a6:	f9b4 200c 	ldrsh.w	r2, [r4, #12]
  4066aa:	b293      	uxth	r3, r2
  4066ac:	0718      	lsls	r0, r3, #28
  4066ae:	d50c      	bpl.n	4066ca <__swsetup_r+0x36>
  4066b0:	6920      	ldr	r0, [r4, #16]
  4066b2:	b1a8      	cbz	r0, 4066e0 <__swsetup_r+0x4c>
  4066b4:	f013 0201 	ands.w	r2, r3, #1
  4066b8:	d01e      	beq.n	4066f8 <__swsetup_r+0x64>
  4066ba:	6963      	ldr	r3, [r4, #20]
  4066bc:	2200      	movs	r2, #0
  4066be:	425b      	negs	r3, r3
  4066c0:	61a3      	str	r3, [r4, #24]
  4066c2:	60a2      	str	r2, [r4, #8]
  4066c4:	b1f0      	cbz	r0, 406704 <__swsetup_r+0x70>
  4066c6:	2000      	movs	r0, #0
  4066c8:	bd38      	pop	{r3, r4, r5, pc}
  4066ca:	06d9      	lsls	r1, r3, #27
  4066cc:	d53c      	bpl.n	406748 <__swsetup_r+0xb4>
  4066ce:	0758      	lsls	r0, r3, #29
  4066d0:	d426      	bmi.n	406720 <__swsetup_r+0x8c>
  4066d2:	6920      	ldr	r0, [r4, #16]
  4066d4:	f042 0308 	orr.w	r3, r2, #8
  4066d8:	81a3      	strh	r3, [r4, #12]
  4066da:	b29b      	uxth	r3, r3
  4066dc:	2800      	cmp	r0, #0
  4066de:	d1e9      	bne.n	4066b4 <__swsetup_r+0x20>
  4066e0:	f403 7220 	and.w	r2, r3, #640	; 0x280
  4066e4:	f5b2 7f00 	cmp.w	r2, #512	; 0x200
  4066e8:	d0e4      	beq.n	4066b4 <__swsetup_r+0x20>
  4066ea:	4628      	mov	r0, r5
  4066ec:	4621      	mov	r1, r4
  4066ee:	f000 fd15 	bl	40711c <__smakebuf_r>
  4066f2:	89a3      	ldrh	r3, [r4, #12]
  4066f4:	6920      	ldr	r0, [r4, #16]
  4066f6:	e7dd      	b.n	4066b4 <__swsetup_r+0x20>
  4066f8:	0799      	lsls	r1, r3, #30
  4066fa:	bf58      	it	pl
  4066fc:	6962      	ldrpl	r2, [r4, #20]
  4066fe:	60a2      	str	r2, [r4, #8]
  406700:	2800      	cmp	r0, #0
  406702:	d1e0      	bne.n	4066c6 <__swsetup_r+0x32>
  406704:	f9b4 300c 	ldrsh.w	r3, [r4, #12]
  406708:	061a      	lsls	r2, r3, #24
  40670a:	d5dd      	bpl.n	4066c8 <__swsetup_r+0x34>
  40670c:	f043 0340 	orr.w	r3, r3, #64	; 0x40
  406710:	81a3      	strh	r3, [r4, #12]
  406712:	f04f 30ff 	mov.w	r0, #4294967295
  406716:	bd38      	pop	{r3, r4, r5, pc}
  406718:	4618      	mov	r0, r3
  40671a:	f000 f967 	bl	4069ec <__sinit>
  40671e:	e7c2      	b.n	4066a6 <__swsetup_r+0x12>
  406720:	6b21      	ldr	r1, [r4, #48]	; 0x30
  406722:	b151      	cbz	r1, 40673a <__swsetup_r+0xa6>
  406724:	f104 0340 	add.w	r3, r4, #64	; 0x40
  406728:	4299      	cmp	r1, r3
  40672a:	d004      	beq.n	406736 <__swsetup_r+0xa2>
  40672c:	4628      	mov	r0, r5
  40672e:	f000 fa27 	bl	406b80 <_free_r>
  406732:	f9b4 200c 	ldrsh.w	r2, [r4, #12]
  406736:	2300      	movs	r3, #0
  406738:	6323      	str	r3, [r4, #48]	; 0x30
  40673a:	2300      	movs	r3, #0
  40673c:	6920      	ldr	r0, [r4, #16]
  40673e:	6063      	str	r3, [r4, #4]
  406740:	f022 0224 	bic.w	r2, r2, #36	; 0x24
  406744:	6020      	str	r0, [r4, #0]
  406746:	e7c5      	b.n	4066d4 <__swsetup_r+0x40>
  406748:	f042 0240 	orr.w	r2, r2, #64	; 0x40
  40674c:	2309      	movs	r3, #9
  40674e:	602b      	str	r3, [r5, #0]
  406750:	f04f 30ff 	mov.w	r0, #4294967295
  406754:	81a2      	strh	r2, [r4, #12]
  406756:	bd38      	pop	{r3, r4, r5, pc}
  406758:	20400448 	.word	0x20400448

0040675c <register_fini>:
  40675c:	4b02      	ldr	r3, [pc, #8]	; (406768 <register_fini+0xc>)
  40675e:	b113      	cbz	r3, 406766 <register_fini+0xa>
  406760:	4802      	ldr	r0, [pc, #8]	; (40676c <register_fini+0x10>)
  406762:	f000 b805 	b.w	406770 <atexit>
  406766:	4770      	bx	lr
  406768:	00000000 	.word	0x00000000
  40676c:	00406a01 	.word	0x00406a01

00406770 <atexit>:
  406770:	2300      	movs	r3, #0
  406772:	4601      	mov	r1, r0
  406774:	461a      	mov	r2, r3
  406776:	4618      	mov	r0, r3
  406778:	f001 b9da 	b.w	407b30 <__register_exitproc>

0040677c <__sflush_r>:
  40677c:	f9b1 300c 	ldrsh.w	r3, [r1, #12]
  406780:	b29a      	uxth	r2, r3
  406782:	e92d 41f0 	stmdb	sp!, {r4, r5, r6, r7, r8, lr}
  406786:	460d      	mov	r5, r1
  406788:	0711      	lsls	r1, r2, #28
  40678a:	4680      	mov	r8, r0
  40678c:	d43c      	bmi.n	406808 <__sflush_r+0x8c>
  40678e:	686a      	ldr	r2, [r5, #4]
  406790:	f443 6300 	orr.w	r3, r3, #2048	; 0x800
  406794:	2a00      	cmp	r2, #0
  406796:	81ab      	strh	r3, [r5, #12]
  406798:	dd73      	ble.n	406882 <__sflush_r+0x106>
  40679a:	6aac      	ldr	r4, [r5, #40]	; 0x28
  40679c:	2c00      	cmp	r4, #0
  40679e:	d04b      	beq.n	406838 <__sflush_r+0xbc>
  4067a0:	b29b      	uxth	r3, r3
  4067a2:	f403 5280 	and.w	r2, r3, #4096	; 0x1000
  4067a6:	2100      	movs	r1, #0
  4067a8:	b292      	uxth	r2, r2
  4067aa:	f8d8 6000 	ldr.w	r6, [r8]
  4067ae:	f8c8 1000 	str.w	r1, [r8]
  4067b2:	2a00      	cmp	r2, #0
  4067b4:	d069      	beq.n	40688a <__sflush_r+0x10e>
  4067b6:	6d2a      	ldr	r2, [r5, #80]	; 0x50
  4067b8:	075f      	lsls	r7, r3, #29
  4067ba:	d505      	bpl.n	4067c8 <__sflush_r+0x4c>
  4067bc:	6869      	ldr	r1, [r5, #4]
  4067be:	6b2b      	ldr	r3, [r5, #48]	; 0x30
  4067c0:	1a52      	subs	r2, r2, r1
  4067c2:	b10b      	cbz	r3, 4067c8 <__sflush_r+0x4c>
  4067c4:	6beb      	ldr	r3, [r5, #60]	; 0x3c
  4067c6:	1ad2      	subs	r2, r2, r3
  4067c8:	2300      	movs	r3, #0
  4067ca:	69e9      	ldr	r1, [r5, #28]
  4067cc:	4640      	mov	r0, r8
  4067ce:	47a0      	blx	r4
  4067d0:	1c44      	adds	r4, r0, #1
  4067d2:	d03c      	beq.n	40684e <__sflush_r+0xd2>
  4067d4:	f9b5 300c 	ldrsh.w	r3, [r5, #12]
  4067d8:	692a      	ldr	r2, [r5, #16]
  4067da:	602a      	str	r2, [r5, #0]
  4067dc:	f423 6300 	bic.w	r3, r3, #2048	; 0x800
  4067e0:	2200      	movs	r2, #0
  4067e2:	81ab      	strh	r3, [r5, #12]
  4067e4:	04db      	lsls	r3, r3, #19
  4067e6:	606a      	str	r2, [r5, #4]
  4067e8:	d449      	bmi.n	40687e <__sflush_r+0x102>
  4067ea:	6b29      	ldr	r1, [r5, #48]	; 0x30
  4067ec:	f8c8 6000 	str.w	r6, [r8]
  4067f0:	b311      	cbz	r1, 406838 <__sflush_r+0xbc>
  4067f2:	f105 0340 	add.w	r3, r5, #64	; 0x40
  4067f6:	4299      	cmp	r1, r3
  4067f8:	d002      	beq.n	406800 <__sflush_r+0x84>
  4067fa:	4640      	mov	r0, r8
  4067fc:	f000 f9c0 	bl	406b80 <_free_r>
  406800:	2000      	movs	r0, #0
  406802:	6328      	str	r0, [r5, #48]	; 0x30
  406804:	e8bd 81f0 	ldmia.w	sp!, {r4, r5, r6, r7, r8, pc}
  406808:	692e      	ldr	r6, [r5, #16]
  40680a:	b1ae      	cbz	r6, 406838 <__sflush_r+0xbc>
  40680c:	682c      	ldr	r4, [r5, #0]
  40680e:	602e      	str	r6, [r5, #0]
  406810:	0790      	lsls	r0, r2, #30
  406812:	bf0c      	ite	eq
  406814:	696b      	ldreq	r3, [r5, #20]
  406816:	2300      	movne	r3, #0
  406818:	1ba4      	subs	r4, r4, r6
  40681a:	60ab      	str	r3, [r5, #8]
  40681c:	e00a      	b.n	406834 <__sflush_r+0xb8>
  40681e:	4623      	mov	r3, r4
  406820:	4632      	mov	r2, r6
  406822:	6a6f      	ldr	r7, [r5, #36]	; 0x24
  406824:	69e9      	ldr	r1, [r5, #28]
  406826:	4640      	mov	r0, r8
  406828:	47b8      	blx	r7
  40682a:	2800      	cmp	r0, #0
  40682c:	eba4 0400 	sub.w	r4, r4, r0
  406830:	4406      	add	r6, r0
  406832:	dd04      	ble.n	40683e <__sflush_r+0xc2>
  406834:	2c00      	cmp	r4, #0
  406836:	dcf2      	bgt.n	40681e <__sflush_r+0xa2>
  406838:	2000      	movs	r0, #0
  40683a:	e8bd 81f0 	ldmia.w	sp!, {r4, r5, r6, r7, r8, pc}
  40683e:	89ab      	ldrh	r3, [r5, #12]
  406840:	f043 0340 	orr.w	r3, r3, #64	; 0x40
  406844:	81ab      	strh	r3, [r5, #12]
  406846:	f04f 30ff 	mov.w	r0, #4294967295
  40684a:	e8bd 81f0 	ldmia.w	sp!, {r4, r5, r6, r7, r8, pc}
  40684e:	f8d8 2000 	ldr.w	r2, [r8]
  406852:	2a1d      	cmp	r2, #29
  406854:	d8f3      	bhi.n	40683e <__sflush_r+0xc2>
  406856:	4b1a      	ldr	r3, [pc, #104]	; (4068c0 <__sflush_r+0x144>)
  406858:	40d3      	lsrs	r3, r2
  40685a:	f003 0301 	and.w	r3, r3, #1
  40685e:	f083 0401 	eor.w	r4, r3, #1
  406862:	2b00      	cmp	r3, #0
  406864:	d0eb      	beq.n	40683e <__sflush_r+0xc2>
  406866:	f9b5 300c 	ldrsh.w	r3, [r5, #12]
  40686a:	6929      	ldr	r1, [r5, #16]
  40686c:	6029      	str	r1, [r5, #0]
  40686e:	f423 6300 	bic.w	r3, r3, #2048	; 0x800
  406872:	04d9      	lsls	r1, r3, #19
  406874:	606c      	str	r4, [r5, #4]
  406876:	81ab      	strh	r3, [r5, #12]
  406878:	d5b7      	bpl.n	4067ea <__sflush_r+0x6e>
  40687a:	2a00      	cmp	r2, #0
  40687c:	d1b5      	bne.n	4067ea <__sflush_r+0x6e>
  40687e:	6528      	str	r0, [r5, #80]	; 0x50
  406880:	e7b3      	b.n	4067ea <__sflush_r+0x6e>
  406882:	6bea      	ldr	r2, [r5, #60]	; 0x3c
  406884:	2a00      	cmp	r2, #0
  406886:	dc88      	bgt.n	40679a <__sflush_r+0x1e>
  406888:	e7d6      	b.n	406838 <__sflush_r+0xbc>
  40688a:	2301      	movs	r3, #1
  40688c:	69e9      	ldr	r1, [r5, #28]
  40688e:	4640      	mov	r0, r8
  406890:	47a0      	blx	r4
  406892:	1c43      	adds	r3, r0, #1
  406894:	4602      	mov	r2, r0
  406896:	d002      	beq.n	40689e <__sflush_r+0x122>
  406898:	89ab      	ldrh	r3, [r5, #12]
  40689a:	6aac      	ldr	r4, [r5, #40]	; 0x28
  40689c:	e78c      	b.n	4067b8 <__sflush_r+0x3c>
  40689e:	f8d8 3000 	ldr.w	r3, [r8]
  4068a2:	2b00      	cmp	r3, #0
  4068a4:	d0f8      	beq.n	406898 <__sflush_r+0x11c>
  4068a6:	2b1d      	cmp	r3, #29
  4068a8:	d001      	beq.n	4068ae <__sflush_r+0x132>
  4068aa:	2b16      	cmp	r3, #22
  4068ac:	d102      	bne.n	4068b4 <__sflush_r+0x138>
  4068ae:	f8c8 6000 	str.w	r6, [r8]
  4068b2:	e7c1      	b.n	406838 <__sflush_r+0xbc>
  4068b4:	89ab      	ldrh	r3, [r5, #12]
  4068b6:	f043 0340 	orr.w	r3, r3, #64	; 0x40
  4068ba:	81ab      	strh	r3, [r5, #12]
  4068bc:	e8bd 81f0 	ldmia.w	sp!, {r4, r5, r6, r7, r8, pc}
  4068c0:	20400001 	.word	0x20400001

004068c4 <_fflush_r>:
  4068c4:	b510      	push	{r4, lr}
  4068c6:	4604      	mov	r4, r0
  4068c8:	b082      	sub	sp, #8
  4068ca:	b108      	cbz	r0, 4068d0 <_fflush_r+0xc>
  4068cc:	6b83      	ldr	r3, [r0, #56]	; 0x38
  4068ce:	b153      	cbz	r3, 4068e6 <_fflush_r+0x22>
  4068d0:	f9b1 000c 	ldrsh.w	r0, [r1, #12]
  4068d4:	b908      	cbnz	r0, 4068da <_fflush_r+0x16>
  4068d6:	b002      	add	sp, #8
  4068d8:	bd10      	pop	{r4, pc}
  4068da:	4620      	mov	r0, r4
  4068dc:	b002      	add	sp, #8
  4068de:	e8bd 4010 	ldmia.w	sp!, {r4, lr}
  4068e2:	f7ff bf4b 	b.w	40677c <__sflush_r>
  4068e6:	9101      	str	r1, [sp, #4]
  4068e8:	f000 f880 	bl	4069ec <__sinit>
  4068ec:	9901      	ldr	r1, [sp, #4]
  4068ee:	e7ef      	b.n	4068d0 <_fflush_r+0xc>

004068f0 <_cleanup_r>:
  4068f0:	4901      	ldr	r1, [pc, #4]	; (4068f8 <_cleanup_r+0x8>)
  4068f2:	f000 bbaf 	b.w	407054 <_fwalk_reent>
  4068f6:	bf00      	nop
  4068f8:	00407bf9 	.word	0x00407bf9

004068fc <__sinit.part.1>:
  4068fc:	e92d 4ff0 	stmdb	sp!, {r4, r5, r6, r7, r8, r9, sl, fp, lr}
  406900:	4b35      	ldr	r3, [pc, #212]	; (4069d8 <__sinit.part.1+0xdc>)
  406902:	6845      	ldr	r5, [r0, #4]
  406904:	63c3      	str	r3, [r0, #60]	; 0x3c
  406906:	2400      	movs	r4, #0
  406908:	4607      	mov	r7, r0
  40690a:	f500 723b 	add.w	r2, r0, #748	; 0x2ec
  40690e:	2304      	movs	r3, #4
  406910:	2103      	movs	r1, #3
  406912:	f8c0 12e4 	str.w	r1, [r0, #740]	; 0x2e4
  406916:	f8c0 22e8 	str.w	r2, [r0, #744]	; 0x2e8
  40691a:	f8c0 42e0 	str.w	r4, [r0, #736]	; 0x2e0
  40691e:	b083      	sub	sp, #12
  406920:	602c      	str	r4, [r5, #0]
  406922:	606c      	str	r4, [r5, #4]
  406924:	60ac      	str	r4, [r5, #8]
  406926:	666c      	str	r4, [r5, #100]	; 0x64
  406928:	81ec      	strh	r4, [r5, #14]
  40692a:	612c      	str	r4, [r5, #16]
  40692c:	616c      	str	r4, [r5, #20]
  40692e:	61ac      	str	r4, [r5, #24]
  406930:	81ab      	strh	r3, [r5, #12]
  406932:	4621      	mov	r1, r4
  406934:	f105 005c 	add.w	r0, r5, #92	; 0x5c
  406938:	2208      	movs	r2, #8
  40693a:	f7fe f997 	bl	404c6c <memset>
  40693e:	68be      	ldr	r6, [r7, #8]
  406940:	f8df b098 	ldr.w	fp, [pc, #152]	; 4069dc <__sinit.part.1+0xe0>
  406944:	f8df a098 	ldr.w	sl, [pc, #152]	; 4069e0 <__sinit.part.1+0xe4>
  406948:	f8df 9098 	ldr.w	r9, [pc, #152]	; 4069e4 <__sinit.part.1+0xe8>
  40694c:	f8df 8098 	ldr.w	r8, [pc, #152]	; 4069e8 <__sinit.part.1+0xec>
  406950:	f8c5 b020 	str.w	fp, [r5, #32]
  406954:	2301      	movs	r3, #1
  406956:	2209      	movs	r2, #9
  406958:	f8c5 a024 	str.w	sl, [r5, #36]	; 0x24
  40695c:	f8c5 9028 	str.w	r9, [r5, #40]	; 0x28
  406960:	f8c5 802c 	str.w	r8, [r5, #44]	; 0x2c
  406964:	61ed      	str	r5, [r5, #28]
  406966:	4621      	mov	r1, r4
  406968:	81f3      	strh	r3, [r6, #14]
  40696a:	81b2      	strh	r2, [r6, #12]
  40696c:	f106 005c 	add.w	r0, r6, #92	; 0x5c
  406970:	6034      	str	r4, [r6, #0]
  406972:	6074      	str	r4, [r6, #4]
  406974:	60b4      	str	r4, [r6, #8]
  406976:	6674      	str	r4, [r6, #100]	; 0x64
  406978:	6134      	str	r4, [r6, #16]
  40697a:	6174      	str	r4, [r6, #20]
  40697c:	61b4      	str	r4, [r6, #24]
  40697e:	2208      	movs	r2, #8
  406980:	9301      	str	r3, [sp, #4]
  406982:	f7fe f973 	bl	404c6c <memset>
  406986:	68fd      	ldr	r5, [r7, #12]
  406988:	61f6      	str	r6, [r6, #28]
  40698a:	2012      	movs	r0, #18
  40698c:	2202      	movs	r2, #2
  40698e:	f8c6 b020 	str.w	fp, [r6, #32]
  406992:	f8c6 a024 	str.w	sl, [r6, #36]	; 0x24
  406996:	f8c6 9028 	str.w	r9, [r6, #40]	; 0x28
  40699a:	f8c6 802c 	str.w	r8, [r6, #44]	; 0x2c
  40699e:	4621      	mov	r1, r4
  4069a0:	81a8      	strh	r0, [r5, #12]
  4069a2:	81ea      	strh	r2, [r5, #14]
  4069a4:	602c      	str	r4, [r5, #0]
  4069a6:	606c      	str	r4, [r5, #4]
  4069a8:	60ac      	str	r4, [r5, #8]
  4069aa:	666c      	str	r4, [r5, #100]	; 0x64
  4069ac:	612c      	str	r4, [r5, #16]
  4069ae:	616c      	str	r4, [r5, #20]
  4069b0:	61ac      	str	r4, [r5, #24]
  4069b2:	f105 005c 	add.w	r0, r5, #92	; 0x5c
  4069b6:	2208      	movs	r2, #8
  4069b8:	f7fe f958 	bl	404c6c <memset>
  4069bc:	9b01      	ldr	r3, [sp, #4]
  4069be:	61ed      	str	r5, [r5, #28]
  4069c0:	f8c5 b020 	str.w	fp, [r5, #32]
  4069c4:	f8c5 a024 	str.w	sl, [r5, #36]	; 0x24
  4069c8:	f8c5 9028 	str.w	r9, [r5, #40]	; 0x28
  4069cc:	f8c5 802c 	str.w	r8, [r5, #44]	; 0x2c
  4069d0:	63bb      	str	r3, [r7, #56]	; 0x38
  4069d2:	b003      	add	sp, #12
  4069d4:	e8bd 8ff0 	ldmia.w	sp!, {r4, r5, r6, r7, r8, r9, sl, fp, pc}
  4069d8:	004068f1 	.word	0x004068f1
  4069dc:	00407891 	.word	0x00407891
  4069e0:	004078b5 	.word	0x004078b5
  4069e4:	004078f1 	.word	0x004078f1
  4069e8:	00407911 	.word	0x00407911

004069ec <__sinit>:
  4069ec:	6b83      	ldr	r3, [r0, #56]	; 0x38
  4069ee:	b103      	cbz	r3, 4069f2 <__sinit+0x6>
  4069f0:	4770      	bx	lr
  4069f2:	f7ff bf83 	b.w	4068fc <__sinit.part.1>
  4069f6:	bf00      	nop

004069f8 <__sfp_lock_acquire>:
  4069f8:	4770      	bx	lr
  4069fa:	bf00      	nop

004069fc <__sfp_lock_release>:
  4069fc:	4770      	bx	lr
  4069fe:	bf00      	nop

00406a00 <__libc_fini_array>:
  406a00:	b538      	push	{r3, r4, r5, lr}
  406a02:	4d07      	ldr	r5, [pc, #28]	; (406a20 <__libc_fini_array+0x20>)
  406a04:	4c07      	ldr	r4, [pc, #28]	; (406a24 <__libc_fini_array+0x24>)
  406a06:	1b2c      	subs	r4, r5, r4
  406a08:	10a4      	asrs	r4, r4, #2
  406a0a:	d005      	beq.n	406a18 <__libc_fini_array+0x18>
  406a0c:	3c01      	subs	r4, #1
  406a0e:	f855 3d04 	ldr.w	r3, [r5, #-4]!
  406a12:	4798      	blx	r3
  406a14:	2c00      	cmp	r4, #0
  406a16:	d1f9      	bne.n	406a0c <__libc_fini_array+0xc>
  406a18:	e8bd 4038 	ldmia.w	sp!, {r3, r4, r5, lr}
  406a1c:	f002 bcb6 	b.w	40938c <_fini>
  406a20:	0040939c 	.word	0x0040939c
  406a24:	00409398 	.word	0x00409398

00406a28 <__fputwc>:
  406a28:	e92d 47f0 	stmdb	sp!, {r4, r5, r6, r7, r8, r9, sl, lr}
  406a2c:	b082      	sub	sp, #8
  406a2e:	4680      	mov	r8, r0
  406a30:	4689      	mov	r9, r1
  406a32:	4614      	mov	r4, r2
  406a34:	f000 fb3c 	bl	4070b0 <__locale_mb_cur_max>
  406a38:	2801      	cmp	r0, #1
  406a3a:	d033      	beq.n	406aa4 <__fputwc+0x7c>
  406a3c:	f104 035c 	add.w	r3, r4, #92	; 0x5c
  406a40:	464a      	mov	r2, r9
  406a42:	a901      	add	r1, sp, #4
  406a44:	4640      	mov	r0, r8
  406a46:	f001 f825 	bl	407a94 <_wcrtomb_r>
  406a4a:	f1b0 3fff 	cmp.w	r0, #4294967295
  406a4e:	4682      	mov	sl, r0
  406a50:	d021      	beq.n	406a96 <__fputwc+0x6e>
  406a52:	b388      	cbz	r0, 406ab8 <__fputwc+0x90>
  406a54:	f89d 6004 	ldrb.w	r6, [sp, #4]
  406a58:	2500      	movs	r5, #0
  406a5a:	e008      	b.n	406a6e <__fputwc+0x46>
  406a5c:	6823      	ldr	r3, [r4, #0]
  406a5e:	1c5a      	adds	r2, r3, #1
  406a60:	6022      	str	r2, [r4, #0]
  406a62:	701e      	strb	r6, [r3, #0]
  406a64:	3501      	adds	r5, #1
  406a66:	4555      	cmp	r5, sl
  406a68:	d226      	bcs.n	406ab8 <__fputwc+0x90>
  406a6a:	ab01      	add	r3, sp, #4
  406a6c:	5d5e      	ldrb	r6, [r3, r5]
  406a6e:	68a3      	ldr	r3, [r4, #8]
  406a70:	3b01      	subs	r3, #1
  406a72:	2b00      	cmp	r3, #0
  406a74:	60a3      	str	r3, [r4, #8]
  406a76:	daf1      	bge.n	406a5c <__fputwc+0x34>
  406a78:	69a7      	ldr	r7, [r4, #24]
  406a7a:	42bb      	cmp	r3, r7
  406a7c:	4631      	mov	r1, r6
  406a7e:	4622      	mov	r2, r4
  406a80:	4640      	mov	r0, r8
  406a82:	db01      	blt.n	406a88 <__fputwc+0x60>
  406a84:	2e0a      	cmp	r6, #10
  406a86:	d1e9      	bne.n	406a5c <__fputwc+0x34>
  406a88:	f000 ffae 	bl	4079e8 <__swbuf_r>
  406a8c:	1c43      	adds	r3, r0, #1
  406a8e:	d1e9      	bne.n	406a64 <__fputwc+0x3c>
  406a90:	b002      	add	sp, #8
  406a92:	e8bd 87f0 	ldmia.w	sp!, {r4, r5, r6, r7, r8, r9, sl, pc}
  406a96:	89a3      	ldrh	r3, [r4, #12]
  406a98:	f043 0340 	orr.w	r3, r3, #64	; 0x40
  406a9c:	81a3      	strh	r3, [r4, #12]
  406a9e:	b002      	add	sp, #8
  406aa0:	e8bd 87f0 	ldmia.w	sp!, {r4, r5, r6, r7, r8, r9, sl, pc}
  406aa4:	f109 33ff 	add.w	r3, r9, #4294967295
  406aa8:	2bfe      	cmp	r3, #254	; 0xfe
  406aaa:	d8c7      	bhi.n	406a3c <__fputwc+0x14>
  406aac:	fa5f f689 	uxtb.w	r6, r9
  406ab0:	4682      	mov	sl, r0
  406ab2:	f88d 6004 	strb.w	r6, [sp, #4]
  406ab6:	e7cf      	b.n	406a58 <__fputwc+0x30>
  406ab8:	4648      	mov	r0, r9
  406aba:	b002      	add	sp, #8
  406abc:	e8bd 87f0 	ldmia.w	sp!, {r4, r5, r6, r7, r8, r9, sl, pc}

00406ac0 <_fputwc_r>:
  406ac0:	f9b2 300c 	ldrsh.w	r3, [r2, #12]
  406ac4:	f413 5f00 	tst.w	r3, #8192	; 0x2000
  406ac8:	d10a      	bne.n	406ae0 <_fputwc_r+0x20>
  406aca:	b410      	push	{r4}
  406acc:	6e54      	ldr	r4, [r2, #100]	; 0x64
  406ace:	f443 5300 	orr.w	r3, r3, #8192	; 0x2000
  406ad2:	f444 5400 	orr.w	r4, r4, #8192	; 0x2000
  406ad6:	6654      	str	r4, [r2, #100]	; 0x64
  406ad8:	8193      	strh	r3, [r2, #12]
  406ada:	bc10      	pop	{r4}
  406adc:	f7ff bfa4 	b.w	406a28 <__fputwc>
  406ae0:	f7ff bfa2 	b.w	406a28 <__fputwc>

00406ae4 <_malloc_trim_r>:
  406ae4:	b5f8      	push	{r3, r4, r5, r6, r7, lr}
  406ae6:	4f23      	ldr	r7, [pc, #140]	; (406b74 <_malloc_trim_r+0x90>)
  406ae8:	460c      	mov	r4, r1
  406aea:	4606      	mov	r6, r0
  406aec:	f7fe f90c 	bl	404d08 <__malloc_lock>
  406af0:	68bb      	ldr	r3, [r7, #8]
  406af2:	685d      	ldr	r5, [r3, #4]
  406af4:	f025 0503 	bic.w	r5, r5, #3
  406af8:	1b29      	subs	r1, r5, r4
  406afa:	f601 71ef 	addw	r1, r1, #4079	; 0xfef
  406afe:	f421 617f 	bic.w	r1, r1, #4080	; 0xff0
  406b02:	f021 010f 	bic.w	r1, r1, #15
  406b06:	f5a1 5480 	sub.w	r4, r1, #4096	; 0x1000
  406b0a:	f5b4 5f80 	cmp.w	r4, #4096	; 0x1000
  406b0e:	db07      	blt.n	406b20 <_malloc_trim_r+0x3c>
  406b10:	2100      	movs	r1, #0
  406b12:	4630      	mov	r0, r6
  406b14:	f7fe f938 	bl	404d88 <_sbrk_r>
  406b18:	68bb      	ldr	r3, [r7, #8]
  406b1a:	442b      	add	r3, r5
  406b1c:	4298      	cmp	r0, r3
  406b1e:	d004      	beq.n	406b2a <_malloc_trim_r+0x46>
  406b20:	4630      	mov	r0, r6
  406b22:	f7fe f8f3 	bl	404d0c <__malloc_unlock>
  406b26:	2000      	movs	r0, #0
  406b28:	bdf8      	pop	{r3, r4, r5, r6, r7, pc}
  406b2a:	4261      	negs	r1, r4
  406b2c:	4630      	mov	r0, r6
  406b2e:	f7fe f92b 	bl	404d88 <_sbrk_r>
  406b32:	3001      	adds	r0, #1
  406b34:	d00d      	beq.n	406b52 <_malloc_trim_r+0x6e>
  406b36:	4b10      	ldr	r3, [pc, #64]	; (406b78 <_malloc_trim_r+0x94>)
  406b38:	68ba      	ldr	r2, [r7, #8]
  406b3a:	6819      	ldr	r1, [r3, #0]
  406b3c:	1b2d      	subs	r5, r5, r4
  406b3e:	f045 0501 	orr.w	r5, r5, #1
  406b42:	4630      	mov	r0, r6
  406b44:	1b09      	subs	r1, r1, r4
  406b46:	6055      	str	r5, [r2, #4]
  406b48:	6019      	str	r1, [r3, #0]
  406b4a:	f7fe f8df 	bl	404d0c <__malloc_unlock>
  406b4e:	2001      	movs	r0, #1
  406b50:	bdf8      	pop	{r3, r4, r5, r6, r7, pc}
  406b52:	2100      	movs	r1, #0
  406b54:	4630      	mov	r0, r6
  406b56:	f7fe f917 	bl	404d88 <_sbrk_r>
  406b5a:	68ba      	ldr	r2, [r7, #8]
  406b5c:	1a83      	subs	r3, r0, r2
  406b5e:	2b0f      	cmp	r3, #15
  406b60:	ddde      	ble.n	406b20 <_malloc_trim_r+0x3c>
  406b62:	4c06      	ldr	r4, [pc, #24]	; (406b7c <_malloc_trim_r+0x98>)
  406b64:	4904      	ldr	r1, [pc, #16]	; (406b78 <_malloc_trim_r+0x94>)
  406b66:	6824      	ldr	r4, [r4, #0]
  406b68:	f043 0301 	orr.w	r3, r3, #1
  406b6c:	1b00      	subs	r0, r0, r4
  406b6e:	6053      	str	r3, [r2, #4]
  406b70:	6008      	str	r0, [r1, #0]
  406b72:	e7d5      	b.n	406b20 <_malloc_trim_r+0x3c>
  406b74:	2040044c 	.word	0x2040044c
  406b78:	20400f20 	.word	0x20400f20
  406b7c:	20400858 	.word	0x20400858

00406b80 <_free_r>:
  406b80:	2900      	cmp	r1, #0
  406b82:	d045      	beq.n	406c10 <_free_r+0x90>
  406b84:	e92d 41f0 	stmdb	sp!, {r4, r5, r6, r7, r8, lr}
  406b88:	460d      	mov	r5, r1
  406b8a:	4680      	mov	r8, r0
  406b8c:	f7fe f8bc 	bl	404d08 <__malloc_lock>
  406b90:	f855 7c04 	ldr.w	r7, [r5, #-4]
  406b94:	496a      	ldr	r1, [pc, #424]	; (406d40 <_free_r+0x1c0>)
  406b96:	f027 0301 	bic.w	r3, r7, #1
  406b9a:	f1a5 0408 	sub.w	r4, r5, #8
  406b9e:	18e2      	adds	r2, r4, r3
  406ba0:	688e      	ldr	r6, [r1, #8]
  406ba2:	6850      	ldr	r0, [r2, #4]
  406ba4:	42b2      	cmp	r2, r6
  406ba6:	f020 0003 	bic.w	r0, r0, #3
  406baa:	d062      	beq.n	406c72 <_free_r+0xf2>
  406bac:	07fe      	lsls	r6, r7, #31
  406bae:	6050      	str	r0, [r2, #4]
  406bb0:	d40b      	bmi.n	406bca <_free_r+0x4a>
  406bb2:	f855 7c08 	ldr.w	r7, [r5, #-8]
  406bb6:	1be4      	subs	r4, r4, r7
  406bb8:	f101 0e08 	add.w	lr, r1, #8
  406bbc:	68a5      	ldr	r5, [r4, #8]
  406bbe:	4575      	cmp	r5, lr
  406bc0:	443b      	add	r3, r7
  406bc2:	d06f      	beq.n	406ca4 <_free_r+0x124>
  406bc4:	68e7      	ldr	r7, [r4, #12]
  406bc6:	60ef      	str	r7, [r5, #12]
  406bc8:	60bd      	str	r5, [r7, #8]
  406bca:	1815      	adds	r5, r2, r0
  406bcc:	686d      	ldr	r5, [r5, #4]
  406bce:	07ed      	lsls	r5, r5, #31
  406bd0:	d542      	bpl.n	406c58 <_free_r+0xd8>
  406bd2:	f043 0201 	orr.w	r2, r3, #1
  406bd6:	6062      	str	r2, [r4, #4]
  406bd8:	50e3      	str	r3, [r4, r3]
  406bda:	f5b3 7f00 	cmp.w	r3, #512	; 0x200
  406bde:	d218      	bcs.n	406c12 <_free_r+0x92>
  406be0:	08db      	lsrs	r3, r3, #3
  406be2:	1c5a      	adds	r2, r3, #1
  406be4:	684d      	ldr	r5, [r1, #4]
  406be6:	f851 7032 	ldr.w	r7, [r1, r2, lsl #3]
  406bea:	60a7      	str	r7, [r4, #8]
  406bec:	2001      	movs	r0, #1
  406bee:	109b      	asrs	r3, r3, #2
  406bf0:	fa00 f303 	lsl.w	r3, r0, r3
  406bf4:	eb01 00c2 	add.w	r0, r1, r2, lsl #3
  406bf8:	431d      	orrs	r5, r3
  406bfa:	3808      	subs	r0, #8
  406bfc:	60e0      	str	r0, [r4, #12]
  406bfe:	604d      	str	r5, [r1, #4]
  406c00:	f841 4032 	str.w	r4, [r1, r2, lsl #3]
  406c04:	60fc      	str	r4, [r7, #12]
  406c06:	4640      	mov	r0, r8
  406c08:	e8bd 41f0 	ldmia.w	sp!, {r4, r5, r6, r7, r8, lr}
  406c0c:	f7fe b87e 	b.w	404d0c <__malloc_unlock>
  406c10:	4770      	bx	lr
  406c12:	0a5a      	lsrs	r2, r3, #9
  406c14:	2a04      	cmp	r2, #4
  406c16:	d853      	bhi.n	406cc0 <_free_r+0x140>
  406c18:	099a      	lsrs	r2, r3, #6
  406c1a:	f102 0739 	add.w	r7, r2, #57	; 0x39
  406c1e:	007f      	lsls	r7, r7, #1
  406c20:	f102 0538 	add.w	r5, r2, #56	; 0x38
  406c24:	eb01 0087 	add.w	r0, r1, r7, lsl #2
  406c28:	f851 2027 	ldr.w	r2, [r1, r7, lsl #2]
  406c2c:	4944      	ldr	r1, [pc, #272]	; (406d40 <_free_r+0x1c0>)
  406c2e:	3808      	subs	r0, #8
  406c30:	4290      	cmp	r0, r2
  406c32:	d04d      	beq.n	406cd0 <_free_r+0x150>
  406c34:	6851      	ldr	r1, [r2, #4]
  406c36:	f021 0103 	bic.w	r1, r1, #3
  406c3a:	428b      	cmp	r3, r1
  406c3c:	d202      	bcs.n	406c44 <_free_r+0xc4>
  406c3e:	6892      	ldr	r2, [r2, #8]
  406c40:	4290      	cmp	r0, r2
  406c42:	d1f7      	bne.n	406c34 <_free_r+0xb4>
  406c44:	68d0      	ldr	r0, [r2, #12]
  406c46:	60e0      	str	r0, [r4, #12]
  406c48:	60a2      	str	r2, [r4, #8]
  406c4a:	6084      	str	r4, [r0, #8]
  406c4c:	60d4      	str	r4, [r2, #12]
  406c4e:	4640      	mov	r0, r8
  406c50:	e8bd 41f0 	ldmia.w	sp!, {r4, r5, r6, r7, r8, lr}
  406c54:	f7fe b85a 	b.w	404d0c <__malloc_unlock>
  406c58:	6895      	ldr	r5, [r2, #8]
  406c5a:	4f3a      	ldr	r7, [pc, #232]	; (406d44 <_free_r+0x1c4>)
  406c5c:	42bd      	cmp	r5, r7
  406c5e:	4403      	add	r3, r0
  406c60:	d03f      	beq.n	406ce2 <_free_r+0x162>
  406c62:	68d0      	ldr	r0, [r2, #12]
  406c64:	60e8      	str	r0, [r5, #12]
  406c66:	f043 0201 	orr.w	r2, r3, #1
  406c6a:	6085      	str	r5, [r0, #8]
  406c6c:	6062      	str	r2, [r4, #4]
  406c6e:	50e3      	str	r3, [r4, r3]
  406c70:	e7b3      	b.n	406bda <_free_r+0x5a>
  406c72:	07ff      	lsls	r7, r7, #31
  406c74:	4403      	add	r3, r0
  406c76:	d407      	bmi.n	406c88 <_free_r+0x108>
  406c78:	f855 2c08 	ldr.w	r2, [r5, #-8]
  406c7c:	1aa4      	subs	r4, r4, r2
  406c7e:	4413      	add	r3, r2
  406c80:	68a0      	ldr	r0, [r4, #8]
  406c82:	68e2      	ldr	r2, [r4, #12]
  406c84:	60c2      	str	r2, [r0, #12]
  406c86:	6090      	str	r0, [r2, #8]
  406c88:	4a2f      	ldr	r2, [pc, #188]	; (406d48 <_free_r+0x1c8>)
  406c8a:	6812      	ldr	r2, [r2, #0]
  406c8c:	f043 0001 	orr.w	r0, r3, #1
  406c90:	4293      	cmp	r3, r2
  406c92:	6060      	str	r0, [r4, #4]
  406c94:	608c      	str	r4, [r1, #8]
  406c96:	d3b6      	bcc.n	406c06 <_free_r+0x86>
  406c98:	4b2c      	ldr	r3, [pc, #176]	; (406d4c <_free_r+0x1cc>)
  406c9a:	4640      	mov	r0, r8
  406c9c:	6819      	ldr	r1, [r3, #0]
  406c9e:	f7ff ff21 	bl	406ae4 <_malloc_trim_r>
  406ca2:	e7b0      	b.n	406c06 <_free_r+0x86>
  406ca4:	1811      	adds	r1, r2, r0
  406ca6:	6849      	ldr	r1, [r1, #4]
  406ca8:	07c9      	lsls	r1, r1, #31
  406caa:	d444      	bmi.n	406d36 <_free_r+0x1b6>
  406cac:	6891      	ldr	r1, [r2, #8]
  406cae:	68d2      	ldr	r2, [r2, #12]
  406cb0:	60ca      	str	r2, [r1, #12]
  406cb2:	4403      	add	r3, r0
  406cb4:	f043 0001 	orr.w	r0, r3, #1
  406cb8:	6091      	str	r1, [r2, #8]
  406cba:	6060      	str	r0, [r4, #4]
  406cbc:	50e3      	str	r3, [r4, r3]
  406cbe:	e7a2      	b.n	406c06 <_free_r+0x86>
  406cc0:	2a14      	cmp	r2, #20
  406cc2:	d817      	bhi.n	406cf4 <_free_r+0x174>
  406cc4:	f102 075c 	add.w	r7, r2, #92	; 0x5c
  406cc8:	007f      	lsls	r7, r7, #1
  406cca:	f102 055b 	add.w	r5, r2, #91	; 0x5b
  406cce:	e7a9      	b.n	406c24 <_free_r+0xa4>
  406cd0:	10aa      	asrs	r2, r5, #2
  406cd2:	684b      	ldr	r3, [r1, #4]
  406cd4:	2501      	movs	r5, #1
  406cd6:	fa05 f202 	lsl.w	r2, r5, r2
  406cda:	4313      	orrs	r3, r2
  406cdc:	604b      	str	r3, [r1, #4]
  406cde:	4602      	mov	r2, r0
  406ce0:	e7b1      	b.n	406c46 <_free_r+0xc6>
  406ce2:	f043 0201 	orr.w	r2, r3, #1
  406ce6:	614c      	str	r4, [r1, #20]
  406ce8:	610c      	str	r4, [r1, #16]
  406cea:	60e5      	str	r5, [r4, #12]
  406cec:	60a5      	str	r5, [r4, #8]
  406cee:	6062      	str	r2, [r4, #4]
  406cf0:	50e3      	str	r3, [r4, r3]
  406cf2:	e788      	b.n	406c06 <_free_r+0x86>
  406cf4:	2a54      	cmp	r2, #84	; 0x54
  406cf6:	d806      	bhi.n	406d06 <_free_r+0x186>
  406cf8:	0b1a      	lsrs	r2, r3, #12
  406cfa:	f102 076f 	add.w	r7, r2, #111	; 0x6f
  406cfe:	007f      	lsls	r7, r7, #1
  406d00:	f102 056e 	add.w	r5, r2, #110	; 0x6e
  406d04:	e78e      	b.n	406c24 <_free_r+0xa4>
  406d06:	f5b2 7faa 	cmp.w	r2, #340	; 0x154
  406d0a:	d806      	bhi.n	406d1a <_free_r+0x19a>
  406d0c:	0bda      	lsrs	r2, r3, #15
  406d0e:	f102 0778 	add.w	r7, r2, #120	; 0x78
  406d12:	007f      	lsls	r7, r7, #1
  406d14:	f102 0577 	add.w	r5, r2, #119	; 0x77
  406d18:	e784      	b.n	406c24 <_free_r+0xa4>
  406d1a:	f240 5054 	movw	r0, #1364	; 0x554
  406d1e:	4282      	cmp	r2, r0
  406d20:	d806      	bhi.n	406d30 <_free_r+0x1b0>
  406d22:	0c9a      	lsrs	r2, r3, #18
  406d24:	f102 077d 	add.w	r7, r2, #125	; 0x7d
  406d28:	007f      	lsls	r7, r7, #1
  406d2a:	f102 057c 	add.w	r5, r2, #124	; 0x7c
  406d2e:	e779      	b.n	406c24 <_free_r+0xa4>
  406d30:	27fe      	movs	r7, #254	; 0xfe
  406d32:	257e      	movs	r5, #126	; 0x7e
  406d34:	e776      	b.n	406c24 <_free_r+0xa4>
  406d36:	f043 0201 	orr.w	r2, r3, #1
  406d3a:	6062      	str	r2, [r4, #4]
  406d3c:	50e3      	str	r3, [r4, r3]
  406d3e:	e762      	b.n	406c06 <_free_r+0x86>
  406d40:	2040044c 	.word	0x2040044c
  406d44:	20400454 	.word	0x20400454
  406d48:	20400854 	.word	0x20400854
  406d4c:	20400f1c 	.word	0x20400f1c

00406d50 <__sfvwrite_r>:
  406d50:	6893      	ldr	r3, [r2, #8]
  406d52:	2b00      	cmp	r3, #0
  406d54:	d076      	beq.n	406e44 <__sfvwrite_r+0xf4>
  406d56:	e92d 4ff0 	stmdb	sp!, {r4, r5, r6, r7, r8, r9, sl, fp, lr}
  406d5a:	898b      	ldrh	r3, [r1, #12]
  406d5c:	b085      	sub	sp, #20
  406d5e:	460c      	mov	r4, r1
  406d60:	0719      	lsls	r1, r3, #28
  406d62:	9001      	str	r0, [sp, #4]
  406d64:	4616      	mov	r6, r2
  406d66:	d529      	bpl.n	406dbc <__sfvwrite_r+0x6c>
  406d68:	6922      	ldr	r2, [r4, #16]
  406d6a:	b33a      	cbz	r2, 406dbc <__sfvwrite_r+0x6c>
  406d6c:	f003 0802 	and.w	r8, r3, #2
  406d70:	fa1f f088 	uxth.w	r0, r8
  406d74:	6835      	ldr	r5, [r6, #0]
  406d76:	2800      	cmp	r0, #0
  406d78:	d02f      	beq.n	406dda <__sfvwrite_r+0x8a>
  406d7a:	f04f 0900 	mov.w	r9, #0
  406d7e:	4fb4      	ldr	r7, [pc, #720]	; (407050 <__sfvwrite_r+0x300>)
  406d80:	46c8      	mov	r8, r9
  406d82:	46b2      	mov	sl, r6
  406d84:	45b8      	cmp	r8, r7
  406d86:	4643      	mov	r3, r8
  406d88:	464a      	mov	r2, r9
  406d8a:	bf28      	it	cs
  406d8c:	463b      	movcs	r3, r7
  406d8e:	9801      	ldr	r0, [sp, #4]
  406d90:	f1b8 0f00 	cmp.w	r8, #0
  406d94:	d050      	beq.n	406e38 <__sfvwrite_r+0xe8>
  406d96:	69e1      	ldr	r1, [r4, #28]
  406d98:	6a66      	ldr	r6, [r4, #36]	; 0x24
  406d9a:	47b0      	blx	r6
  406d9c:	2800      	cmp	r0, #0
  406d9e:	dd71      	ble.n	406e84 <__sfvwrite_r+0x134>
  406da0:	f8da 3008 	ldr.w	r3, [sl, #8]
  406da4:	1a1b      	subs	r3, r3, r0
  406da6:	4481      	add	r9, r0
  406da8:	ebc0 0808 	rsb	r8, r0, r8
  406dac:	f8ca 3008 	str.w	r3, [sl, #8]
  406db0:	2b00      	cmp	r3, #0
  406db2:	d1e7      	bne.n	406d84 <__sfvwrite_r+0x34>
  406db4:	2000      	movs	r0, #0
  406db6:	b005      	add	sp, #20
  406db8:	e8bd 8ff0 	ldmia.w	sp!, {r4, r5, r6, r7, r8, r9, sl, fp, pc}
  406dbc:	4621      	mov	r1, r4
  406dbe:	9801      	ldr	r0, [sp, #4]
  406dc0:	f7ff fc68 	bl	406694 <__swsetup_r>
  406dc4:	2800      	cmp	r0, #0
  406dc6:	f040 813a 	bne.w	40703e <__sfvwrite_r+0x2ee>
  406dca:	89a3      	ldrh	r3, [r4, #12]
  406dcc:	6835      	ldr	r5, [r6, #0]
  406dce:	f003 0802 	and.w	r8, r3, #2
  406dd2:	fa1f f088 	uxth.w	r0, r8
  406dd6:	2800      	cmp	r0, #0
  406dd8:	d1cf      	bne.n	406d7a <__sfvwrite_r+0x2a>
  406dda:	f013 0901 	ands.w	r9, r3, #1
  406dde:	d15b      	bne.n	406e98 <__sfvwrite_r+0x148>
  406de0:	464f      	mov	r7, r9
  406de2:	9602      	str	r6, [sp, #8]
  406de4:	b31f      	cbz	r7, 406e2e <__sfvwrite_r+0xde>
  406de6:	059a      	lsls	r2, r3, #22
  406de8:	f8d4 8008 	ldr.w	r8, [r4, #8]
  406dec:	d52c      	bpl.n	406e48 <__sfvwrite_r+0xf8>
  406dee:	4547      	cmp	r7, r8
  406df0:	46c2      	mov	sl, r8
  406df2:	f0c0 80a4 	bcc.w	406f3e <__sfvwrite_r+0x1ee>
  406df6:	f413 6f90 	tst.w	r3, #1152	; 0x480
  406dfa:	f040 80b1 	bne.w	406f60 <__sfvwrite_r+0x210>
  406dfe:	6820      	ldr	r0, [r4, #0]
  406e00:	4652      	mov	r2, sl
  406e02:	4649      	mov	r1, r9
  406e04:	f000 faf0 	bl	4073e8 <memmove>
  406e08:	68a0      	ldr	r0, [r4, #8]
  406e0a:	6823      	ldr	r3, [r4, #0]
  406e0c:	ebc8 0000 	rsb	r0, r8, r0
  406e10:	4453      	add	r3, sl
  406e12:	60a0      	str	r0, [r4, #8]
  406e14:	6023      	str	r3, [r4, #0]
  406e16:	4638      	mov	r0, r7
  406e18:	9a02      	ldr	r2, [sp, #8]
  406e1a:	6893      	ldr	r3, [r2, #8]
  406e1c:	1a1b      	subs	r3, r3, r0
  406e1e:	4481      	add	r9, r0
  406e20:	1a3f      	subs	r7, r7, r0
  406e22:	6093      	str	r3, [r2, #8]
  406e24:	2b00      	cmp	r3, #0
  406e26:	d0c5      	beq.n	406db4 <__sfvwrite_r+0x64>
  406e28:	89a3      	ldrh	r3, [r4, #12]
  406e2a:	2f00      	cmp	r7, #0
  406e2c:	d1db      	bne.n	406de6 <__sfvwrite_r+0x96>
  406e2e:	f8d5 9000 	ldr.w	r9, [r5]
  406e32:	686f      	ldr	r7, [r5, #4]
  406e34:	3508      	adds	r5, #8
  406e36:	e7d5      	b.n	406de4 <__sfvwrite_r+0x94>
  406e38:	f8d5 9000 	ldr.w	r9, [r5]
  406e3c:	f8d5 8004 	ldr.w	r8, [r5, #4]
  406e40:	3508      	adds	r5, #8
  406e42:	e79f      	b.n	406d84 <__sfvwrite_r+0x34>
  406e44:	2000      	movs	r0, #0
  406e46:	4770      	bx	lr
  406e48:	6820      	ldr	r0, [r4, #0]
  406e4a:	6923      	ldr	r3, [r4, #16]
  406e4c:	4298      	cmp	r0, r3
  406e4e:	d803      	bhi.n	406e58 <__sfvwrite_r+0x108>
  406e50:	6961      	ldr	r1, [r4, #20]
  406e52:	428f      	cmp	r7, r1
  406e54:	f080 80b7 	bcs.w	406fc6 <__sfvwrite_r+0x276>
  406e58:	45b8      	cmp	r8, r7
  406e5a:	bf28      	it	cs
  406e5c:	46b8      	movcs	r8, r7
  406e5e:	4642      	mov	r2, r8
  406e60:	4649      	mov	r1, r9
  406e62:	f000 fac1 	bl	4073e8 <memmove>
  406e66:	68a3      	ldr	r3, [r4, #8]
  406e68:	6822      	ldr	r2, [r4, #0]
  406e6a:	ebc8 0303 	rsb	r3, r8, r3
  406e6e:	4442      	add	r2, r8
  406e70:	60a3      	str	r3, [r4, #8]
  406e72:	6022      	str	r2, [r4, #0]
  406e74:	2b00      	cmp	r3, #0
  406e76:	d149      	bne.n	406f0c <__sfvwrite_r+0x1bc>
  406e78:	4621      	mov	r1, r4
  406e7a:	9801      	ldr	r0, [sp, #4]
  406e7c:	f7ff fd22 	bl	4068c4 <_fflush_r>
  406e80:	2800      	cmp	r0, #0
  406e82:	d043      	beq.n	406f0c <__sfvwrite_r+0x1bc>
  406e84:	f9b4 300c 	ldrsh.w	r3, [r4, #12]
  406e88:	f043 0340 	orr.w	r3, r3, #64	; 0x40
  406e8c:	f04f 30ff 	mov.w	r0, #4294967295
  406e90:	81a3      	strh	r3, [r4, #12]
  406e92:	b005      	add	sp, #20
  406e94:	e8bd 8ff0 	ldmia.w	sp!, {r4, r5, r6, r7, r8, r9, sl, fp, pc}
  406e98:	4680      	mov	r8, r0
  406e9a:	9002      	str	r0, [sp, #8]
  406e9c:	4682      	mov	sl, r0
  406e9e:	4681      	mov	r9, r0
  406ea0:	f1b9 0f00 	cmp.w	r9, #0
  406ea4:	d02a      	beq.n	406efc <__sfvwrite_r+0x1ac>
  406ea6:	9b02      	ldr	r3, [sp, #8]
  406ea8:	2b00      	cmp	r3, #0
  406eaa:	d04c      	beq.n	406f46 <__sfvwrite_r+0x1f6>
  406eac:	6820      	ldr	r0, [r4, #0]
  406eae:	6923      	ldr	r3, [r4, #16]
  406eb0:	6962      	ldr	r2, [r4, #20]
  406eb2:	45c8      	cmp	r8, r9
  406eb4:	46c3      	mov	fp, r8
  406eb6:	bf28      	it	cs
  406eb8:	46cb      	movcs	fp, r9
  406eba:	4298      	cmp	r0, r3
  406ebc:	465f      	mov	r7, fp
  406ebe:	d904      	bls.n	406eca <__sfvwrite_r+0x17a>
  406ec0:	68a3      	ldr	r3, [r4, #8]
  406ec2:	4413      	add	r3, r2
  406ec4:	459b      	cmp	fp, r3
  406ec6:	f300 8090 	bgt.w	406fea <__sfvwrite_r+0x29a>
  406eca:	4593      	cmp	fp, r2
  406ecc:	db20      	blt.n	406f10 <__sfvwrite_r+0x1c0>
  406ece:	4613      	mov	r3, r2
  406ed0:	6a67      	ldr	r7, [r4, #36]	; 0x24
  406ed2:	69e1      	ldr	r1, [r4, #28]
  406ed4:	9801      	ldr	r0, [sp, #4]
  406ed6:	4652      	mov	r2, sl
  406ed8:	47b8      	blx	r7
  406eda:	1e07      	subs	r7, r0, #0
  406edc:	ddd2      	ble.n	406e84 <__sfvwrite_r+0x134>
  406ede:	ebb8 0807 	subs.w	r8, r8, r7
  406ee2:	d023      	beq.n	406f2c <__sfvwrite_r+0x1dc>
  406ee4:	68b3      	ldr	r3, [r6, #8]
  406ee6:	1bdb      	subs	r3, r3, r7
  406ee8:	44ba      	add	sl, r7
  406eea:	ebc7 0909 	rsb	r9, r7, r9
  406eee:	60b3      	str	r3, [r6, #8]
  406ef0:	2b00      	cmp	r3, #0
  406ef2:	f43f af5f 	beq.w	406db4 <__sfvwrite_r+0x64>
  406ef6:	f1b9 0f00 	cmp.w	r9, #0
  406efa:	d1d4      	bne.n	406ea6 <__sfvwrite_r+0x156>
  406efc:	2300      	movs	r3, #0
  406efe:	f8d5 a000 	ldr.w	sl, [r5]
  406f02:	f8d5 9004 	ldr.w	r9, [r5, #4]
  406f06:	9302      	str	r3, [sp, #8]
  406f08:	3508      	adds	r5, #8
  406f0a:	e7c9      	b.n	406ea0 <__sfvwrite_r+0x150>
  406f0c:	4640      	mov	r0, r8
  406f0e:	e783      	b.n	406e18 <__sfvwrite_r+0xc8>
  406f10:	465a      	mov	r2, fp
  406f12:	4651      	mov	r1, sl
  406f14:	f000 fa68 	bl	4073e8 <memmove>
  406f18:	68a2      	ldr	r2, [r4, #8]
  406f1a:	6823      	ldr	r3, [r4, #0]
  406f1c:	ebcb 0202 	rsb	r2, fp, r2
  406f20:	445b      	add	r3, fp
  406f22:	ebb8 0807 	subs.w	r8, r8, r7
  406f26:	60a2      	str	r2, [r4, #8]
  406f28:	6023      	str	r3, [r4, #0]
  406f2a:	d1db      	bne.n	406ee4 <__sfvwrite_r+0x194>
  406f2c:	4621      	mov	r1, r4
  406f2e:	9801      	ldr	r0, [sp, #4]
  406f30:	f7ff fcc8 	bl	4068c4 <_fflush_r>
  406f34:	2800      	cmp	r0, #0
  406f36:	d1a5      	bne.n	406e84 <__sfvwrite_r+0x134>
  406f38:	f8cd 8008 	str.w	r8, [sp, #8]
  406f3c:	e7d2      	b.n	406ee4 <__sfvwrite_r+0x194>
  406f3e:	6820      	ldr	r0, [r4, #0]
  406f40:	46b8      	mov	r8, r7
  406f42:	46ba      	mov	sl, r7
  406f44:	e75c      	b.n	406e00 <__sfvwrite_r+0xb0>
  406f46:	464a      	mov	r2, r9
  406f48:	210a      	movs	r1, #10
  406f4a:	4650      	mov	r0, sl
  406f4c:	f000 f930 	bl	4071b0 <memchr>
  406f50:	2800      	cmp	r0, #0
  406f52:	d06f      	beq.n	407034 <__sfvwrite_r+0x2e4>
  406f54:	3001      	adds	r0, #1
  406f56:	2301      	movs	r3, #1
  406f58:	ebca 0800 	rsb	r8, sl, r0
  406f5c:	9302      	str	r3, [sp, #8]
  406f5e:	e7a5      	b.n	406eac <__sfvwrite_r+0x15c>
  406f60:	6962      	ldr	r2, [r4, #20]
  406f62:	6820      	ldr	r0, [r4, #0]
  406f64:	6921      	ldr	r1, [r4, #16]
  406f66:	eb02 0842 	add.w	r8, r2, r2, lsl #1
  406f6a:	ebc1 0a00 	rsb	sl, r1, r0
  406f6e:	eb08 78d8 	add.w	r8, r8, r8, lsr #31
  406f72:	f10a 0001 	add.w	r0, sl, #1
  406f76:	ea4f 0868 	mov.w	r8, r8, asr #1
  406f7a:	4438      	add	r0, r7
  406f7c:	4540      	cmp	r0, r8
  406f7e:	4642      	mov	r2, r8
  406f80:	bf84      	itt	hi
  406f82:	4680      	movhi	r8, r0
  406f84:	4642      	movhi	r2, r8
  406f86:	055b      	lsls	r3, r3, #21
  406f88:	d542      	bpl.n	407010 <__sfvwrite_r+0x2c0>
  406f8a:	4611      	mov	r1, r2
  406f8c:	9801      	ldr	r0, [sp, #4]
  406f8e:	f7fd fbb5 	bl	4046fc <_malloc_r>
  406f92:	4683      	mov	fp, r0
  406f94:	2800      	cmp	r0, #0
  406f96:	d055      	beq.n	407044 <__sfvwrite_r+0x2f4>
  406f98:	4652      	mov	r2, sl
  406f9a:	6921      	ldr	r1, [r4, #16]
  406f9c:	f000 f98a 	bl	4072b4 <memcpy>
  406fa0:	89a3      	ldrh	r3, [r4, #12]
  406fa2:	f423 6390 	bic.w	r3, r3, #1152	; 0x480
  406fa6:	f043 0380 	orr.w	r3, r3, #128	; 0x80
  406faa:	81a3      	strh	r3, [r4, #12]
  406fac:	ebca 0308 	rsb	r3, sl, r8
  406fb0:	eb0b 000a 	add.w	r0, fp, sl
  406fb4:	f8c4 8014 	str.w	r8, [r4, #20]
  406fb8:	f8c4 b010 	str.w	fp, [r4, #16]
  406fbc:	6020      	str	r0, [r4, #0]
  406fbe:	60a3      	str	r3, [r4, #8]
  406fc0:	46b8      	mov	r8, r7
  406fc2:	46ba      	mov	sl, r7
  406fc4:	e71c      	b.n	406e00 <__sfvwrite_r+0xb0>
  406fc6:	f06f 4300 	mvn.w	r3, #2147483648	; 0x80000000
  406fca:	42bb      	cmp	r3, r7
  406fcc:	bf28      	it	cs
  406fce:	463b      	movcs	r3, r7
  406fd0:	464a      	mov	r2, r9
  406fd2:	fb93 f3f1 	sdiv	r3, r3, r1
  406fd6:	9801      	ldr	r0, [sp, #4]
  406fd8:	6a66      	ldr	r6, [r4, #36]	; 0x24
  406fda:	fb01 f303 	mul.w	r3, r1, r3
  406fde:	69e1      	ldr	r1, [r4, #28]
  406fe0:	47b0      	blx	r6
  406fe2:	2800      	cmp	r0, #0
  406fe4:	f73f af18 	bgt.w	406e18 <__sfvwrite_r+0xc8>
  406fe8:	e74c      	b.n	406e84 <__sfvwrite_r+0x134>
  406fea:	461a      	mov	r2, r3
  406fec:	4651      	mov	r1, sl
  406fee:	9303      	str	r3, [sp, #12]
  406ff0:	f000 f9fa 	bl	4073e8 <memmove>
  406ff4:	6822      	ldr	r2, [r4, #0]
  406ff6:	9b03      	ldr	r3, [sp, #12]
  406ff8:	9801      	ldr	r0, [sp, #4]
  406ffa:	441a      	add	r2, r3
  406ffc:	6022      	str	r2, [r4, #0]
  406ffe:	4621      	mov	r1, r4
  407000:	f7ff fc60 	bl	4068c4 <_fflush_r>
  407004:	9b03      	ldr	r3, [sp, #12]
  407006:	2800      	cmp	r0, #0
  407008:	f47f af3c 	bne.w	406e84 <__sfvwrite_r+0x134>
  40700c:	461f      	mov	r7, r3
  40700e:	e766      	b.n	406ede <__sfvwrite_r+0x18e>
  407010:	9801      	ldr	r0, [sp, #4]
  407012:	f000 fa4d 	bl	4074b0 <_realloc_r>
  407016:	4683      	mov	fp, r0
  407018:	2800      	cmp	r0, #0
  40701a:	d1c7      	bne.n	406fac <__sfvwrite_r+0x25c>
  40701c:	9d01      	ldr	r5, [sp, #4]
  40701e:	6921      	ldr	r1, [r4, #16]
  407020:	4628      	mov	r0, r5
  407022:	f7ff fdad 	bl	406b80 <_free_r>
  407026:	f9b4 300c 	ldrsh.w	r3, [r4, #12]
  40702a:	220c      	movs	r2, #12
  40702c:	f023 0380 	bic.w	r3, r3, #128	; 0x80
  407030:	602a      	str	r2, [r5, #0]
  407032:	e729      	b.n	406e88 <__sfvwrite_r+0x138>
  407034:	2301      	movs	r3, #1
  407036:	f109 0801 	add.w	r8, r9, #1
  40703a:	9302      	str	r3, [sp, #8]
  40703c:	e736      	b.n	406eac <__sfvwrite_r+0x15c>
  40703e:	f04f 30ff 	mov.w	r0, #4294967295
  407042:	e6b8      	b.n	406db6 <__sfvwrite_r+0x66>
  407044:	9a01      	ldr	r2, [sp, #4]
  407046:	230c      	movs	r3, #12
  407048:	6013      	str	r3, [r2, #0]
  40704a:	f9b4 300c 	ldrsh.w	r3, [r4, #12]
  40704e:	e71b      	b.n	406e88 <__sfvwrite_r+0x138>
  407050:	7ffffc00 	.word	0x7ffffc00

00407054 <_fwalk_reent>:
  407054:	e92d 43f8 	stmdb	sp!, {r3, r4, r5, r6, r7, r8, r9, lr}
  407058:	f510 7738 	adds.w	r7, r0, #736	; 0x2e0
  40705c:	d01f      	beq.n	40709e <_fwalk_reent+0x4a>
  40705e:	4688      	mov	r8, r1
  407060:	4606      	mov	r6, r0
  407062:	f04f 0900 	mov.w	r9, #0
  407066:	687d      	ldr	r5, [r7, #4]
  407068:	68bc      	ldr	r4, [r7, #8]
  40706a:	3d01      	subs	r5, #1
  40706c:	d411      	bmi.n	407092 <_fwalk_reent+0x3e>
  40706e:	89a3      	ldrh	r3, [r4, #12]
  407070:	2b01      	cmp	r3, #1
  407072:	f105 35ff 	add.w	r5, r5, #4294967295
  407076:	d908      	bls.n	40708a <_fwalk_reent+0x36>
  407078:	f9b4 300e 	ldrsh.w	r3, [r4, #14]
  40707c:	3301      	adds	r3, #1
  40707e:	4621      	mov	r1, r4
  407080:	4630      	mov	r0, r6
  407082:	d002      	beq.n	40708a <_fwalk_reent+0x36>
  407084:	47c0      	blx	r8
  407086:	ea49 0900 	orr.w	r9, r9, r0
  40708a:	1c6b      	adds	r3, r5, #1
  40708c:	f104 0468 	add.w	r4, r4, #104	; 0x68
  407090:	d1ed      	bne.n	40706e <_fwalk_reent+0x1a>
  407092:	683f      	ldr	r7, [r7, #0]
  407094:	2f00      	cmp	r7, #0
  407096:	d1e6      	bne.n	407066 <_fwalk_reent+0x12>
  407098:	4648      	mov	r0, r9
  40709a:	e8bd 83f8 	ldmia.w	sp!, {r3, r4, r5, r6, r7, r8, r9, pc}
  40709e:	46b9      	mov	r9, r7
  4070a0:	4648      	mov	r0, r9
  4070a2:	e8bd 83f8 	ldmia.w	sp!, {r3, r4, r5, r6, r7, r8, r9, pc}
  4070a6:	bf00      	nop

004070a8 <__locale_charset>:
  4070a8:	4800      	ldr	r0, [pc, #0]	; (4070ac <__locale_charset+0x4>)
  4070aa:	4770      	bx	lr
  4070ac:	2040085c 	.word	0x2040085c

004070b0 <__locale_mb_cur_max>:
  4070b0:	4b01      	ldr	r3, [pc, #4]	; (4070b8 <__locale_mb_cur_max+0x8>)
  4070b2:	6818      	ldr	r0, [r3, #0]
  4070b4:	4770      	bx	lr
  4070b6:	bf00      	nop
  4070b8:	2040087c 	.word	0x2040087c

004070bc <__swhatbuf_r>:
  4070bc:	b570      	push	{r4, r5, r6, lr}
  4070be:	460d      	mov	r5, r1
  4070c0:	f9b1 100e 	ldrsh.w	r1, [r1, #14]
  4070c4:	2900      	cmp	r1, #0
  4070c6:	b090      	sub	sp, #64	; 0x40
  4070c8:	4614      	mov	r4, r2
  4070ca:	461e      	mov	r6, r3
  4070cc:	db14      	blt.n	4070f8 <__swhatbuf_r+0x3c>
  4070ce:	aa01      	add	r2, sp, #4
  4070d0:	f000 fdd4 	bl	407c7c <_fstat_r>
  4070d4:	2800      	cmp	r0, #0
  4070d6:	db0f      	blt.n	4070f8 <__swhatbuf_r+0x3c>
  4070d8:	9a02      	ldr	r2, [sp, #8]
  4070da:	f402 4270 	and.w	r2, r2, #61440	; 0xf000
  4070de:	f5a2 5200 	sub.w	r2, r2, #8192	; 0x2000
  4070e2:	fab2 f282 	clz	r2, r2
  4070e6:	0952      	lsrs	r2, r2, #5
  4070e8:	f44f 6380 	mov.w	r3, #1024	; 0x400
  4070ec:	f44f 6000 	mov.w	r0, #2048	; 0x800
  4070f0:	6032      	str	r2, [r6, #0]
  4070f2:	6023      	str	r3, [r4, #0]
  4070f4:	b010      	add	sp, #64	; 0x40
  4070f6:	bd70      	pop	{r4, r5, r6, pc}
  4070f8:	89a8      	ldrh	r0, [r5, #12]
  4070fa:	f000 0080 	and.w	r0, r0, #128	; 0x80
  4070fe:	b282      	uxth	r2, r0
  407100:	2000      	movs	r0, #0
  407102:	6030      	str	r0, [r6, #0]
  407104:	b11a      	cbz	r2, 40710e <__swhatbuf_r+0x52>
  407106:	2340      	movs	r3, #64	; 0x40
  407108:	6023      	str	r3, [r4, #0]
  40710a:	b010      	add	sp, #64	; 0x40
  40710c:	bd70      	pop	{r4, r5, r6, pc}
  40710e:	f44f 6380 	mov.w	r3, #1024	; 0x400
  407112:	4610      	mov	r0, r2
  407114:	6023      	str	r3, [r4, #0]
  407116:	b010      	add	sp, #64	; 0x40
  407118:	bd70      	pop	{r4, r5, r6, pc}
  40711a:	bf00      	nop

0040711c <__smakebuf_r>:
  40711c:	898a      	ldrh	r2, [r1, #12]
  40711e:	0792      	lsls	r2, r2, #30
  407120:	460b      	mov	r3, r1
  407122:	d506      	bpl.n	407132 <__smakebuf_r+0x16>
  407124:	f101 0243 	add.w	r2, r1, #67	; 0x43
  407128:	2101      	movs	r1, #1
  40712a:	601a      	str	r2, [r3, #0]
  40712c:	611a      	str	r2, [r3, #16]
  40712e:	6159      	str	r1, [r3, #20]
  407130:	4770      	bx	lr
  407132:	b5f0      	push	{r4, r5, r6, r7, lr}
  407134:	b083      	sub	sp, #12
  407136:	ab01      	add	r3, sp, #4
  407138:	466a      	mov	r2, sp
  40713a:	460c      	mov	r4, r1
  40713c:	4605      	mov	r5, r0
  40713e:	f7ff ffbd 	bl	4070bc <__swhatbuf_r>
  407142:	9900      	ldr	r1, [sp, #0]
  407144:	4606      	mov	r6, r0
  407146:	4628      	mov	r0, r5
  407148:	f7fd fad8 	bl	4046fc <_malloc_r>
  40714c:	f9b4 300c 	ldrsh.w	r3, [r4, #12]
  407150:	b1d0      	cbz	r0, 407188 <__smakebuf_r+0x6c>
  407152:	9a01      	ldr	r2, [sp, #4]
  407154:	4f12      	ldr	r7, [pc, #72]	; (4071a0 <__smakebuf_r+0x84>)
  407156:	9900      	ldr	r1, [sp, #0]
  407158:	63ef      	str	r7, [r5, #60]	; 0x3c
  40715a:	f043 0380 	orr.w	r3, r3, #128	; 0x80
  40715e:	81a3      	strh	r3, [r4, #12]
  407160:	6020      	str	r0, [r4, #0]
  407162:	6120      	str	r0, [r4, #16]
  407164:	6161      	str	r1, [r4, #20]
  407166:	b91a      	cbnz	r2, 407170 <__smakebuf_r+0x54>
  407168:	4333      	orrs	r3, r6
  40716a:	81a3      	strh	r3, [r4, #12]
  40716c:	b003      	add	sp, #12
  40716e:	bdf0      	pop	{r4, r5, r6, r7, pc}
  407170:	4628      	mov	r0, r5
  407172:	f9b4 100e 	ldrsh.w	r1, [r4, #14]
  407176:	f000 fd95 	bl	407ca4 <_isatty_r>
  40717a:	f9b4 300c 	ldrsh.w	r3, [r4, #12]
  40717e:	2800      	cmp	r0, #0
  407180:	d0f2      	beq.n	407168 <__smakebuf_r+0x4c>
  407182:	f043 0301 	orr.w	r3, r3, #1
  407186:	e7ef      	b.n	407168 <__smakebuf_r+0x4c>
  407188:	059a      	lsls	r2, r3, #22
  40718a:	d4ef      	bmi.n	40716c <__smakebuf_r+0x50>
  40718c:	f104 0243 	add.w	r2, r4, #67	; 0x43
  407190:	f043 0302 	orr.w	r3, r3, #2
  407194:	2101      	movs	r1, #1
  407196:	81a3      	strh	r3, [r4, #12]
  407198:	6022      	str	r2, [r4, #0]
  40719a:	6122      	str	r2, [r4, #16]
  40719c:	6161      	str	r1, [r4, #20]
  40719e:	e7e5      	b.n	40716c <__smakebuf_r+0x50>
  4071a0:	004068f1 	.word	0x004068f1
	...

004071b0 <memchr>:
  4071b0:	f001 01ff 	and.w	r1, r1, #255	; 0xff
  4071b4:	2a10      	cmp	r2, #16
  4071b6:	db2b      	blt.n	407210 <memchr+0x60>
  4071b8:	f010 0f07 	tst.w	r0, #7
  4071bc:	d008      	beq.n	4071d0 <memchr+0x20>
  4071be:	f810 3b01 	ldrb.w	r3, [r0], #1
  4071c2:	3a01      	subs	r2, #1
  4071c4:	428b      	cmp	r3, r1
  4071c6:	d02d      	beq.n	407224 <memchr+0x74>
  4071c8:	f010 0f07 	tst.w	r0, #7
  4071cc:	b342      	cbz	r2, 407220 <memchr+0x70>
  4071ce:	d1f6      	bne.n	4071be <memchr+0xe>
  4071d0:	b4f0      	push	{r4, r5, r6, r7}
  4071d2:	ea41 2101 	orr.w	r1, r1, r1, lsl #8
  4071d6:	ea41 4101 	orr.w	r1, r1, r1, lsl #16
  4071da:	f022 0407 	bic.w	r4, r2, #7
  4071de:	f07f 0700 	mvns.w	r7, #0
  4071e2:	2300      	movs	r3, #0
  4071e4:	e8f0 5602 	ldrd	r5, r6, [r0], #8
  4071e8:	3c08      	subs	r4, #8
  4071ea:	ea85 0501 	eor.w	r5, r5, r1
  4071ee:	ea86 0601 	eor.w	r6, r6, r1
  4071f2:	fa85 f547 	uadd8	r5, r5, r7
  4071f6:	faa3 f587 	sel	r5, r3, r7
  4071fa:	fa86 f647 	uadd8	r6, r6, r7
  4071fe:	faa5 f687 	sel	r6, r5, r7
  407202:	b98e      	cbnz	r6, 407228 <memchr+0x78>
  407204:	d1ee      	bne.n	4071e4 <memchr+0x34>
  407206:	bcf0      	pop	{r4, r5, r6, r7}
  407208:	f001 01ff 	and.w	r1, r1, #255	; 0xff
  40720c:	f002 0207 	and.w	r2, r2, #7
  407210:	b132      	cbz	r2, 407220 <memchr+0x70>
  407212:	f810 3b01 	ldrb.w	r3, [r0], #1
  407216:	3a01      	subs	r2, #1
  407218:	ea83 0301 	eor.w	r3, r3, r1
  40721c:	b113      	cbz	r3, 407224 <memchr+0x74>
  40721e:	d1f8      	bne.n	407212 <memchr+0x62>
  407220:	2000      	movs	r0, #0
  407222:	4770      	bx	lr
  407224:	3801      	subs	r0, #1
  407226:	4770      	bx	lr
  407228:	2d00      	cmp	r5, #0
  40722a:	bf06      	itte	eq
  40722c:	4635      	moveq	r5, r6
  40722e:	3803      	subeq	r0, #3
  407230:	3807      	subne	r0, #7
  407232:	f015 0f01 	tst.w	r5, #1
  407236:	d107      	bne.n	407248 <memchr+0x98>
  407238:	3001      	adds	r0, #1
  40723a:	f415 7f80 	tst.w	r5, #256	; 0x100
  40723e:	bf02      	ittt	eq
  407240:	3001      	addeq	r0, #1
  407242:	f415 3fc0 	tsteq.w	r5, #98304	; 0x18000
  407246:	3001      	addeq	r0, #1
  407248:	bcf0      	pop	{r4, r5, r6, r7}
  40724a:	3801      	subs	r0, #1
  40724c:	4770      	bx	lr
  40724e:	bf00      	nop

00407250 <memcmp>:
  407250:	2a03      	cmp	r2, #3
  407252:	b470      	push	{r4, r5, r6}
  407254:	d926      	bls.n	4072a4 <memcmp+0x54>
  407256:	ea40 0301 	orr.w	r3, r0, r1
  40725a:	079b      	lsls	r3, r3, #30
  40725c:	d011      	beq.n	407282 <memcmp+0x32>
  40725e:	7804      	ldrb	r4, [r0, #0]
  407260:	780d      	ldrb	r5, [r1, #0]
  407262:	42ac      	cmp	r4, r5
  407264:	d122      	bne.n	4072ac <memcmp+0x5c>
  407266:	4402      	add	r2, r0
  407268:	1c43      	adds	r3, r0, #1
  40726a:	e005      	b.n	407278 <memcmp+0x28>
  40726c:	f813 4b01 	ldrb.w	r4, [r3], #1
  407270:	f811 5f01 	ldrb.w	r5, [r1, #1]!
  407274:	42ac      	cmp	r4, r5
  407276:	d119      	bne.n	4072ac <memcmp+0x5c>
  407278:	4293      	cmp	r3, r2
  40727a:	d1f7      	bne.n	40726c <memcmp+0x1c>
  40727c:	2000      	movs	r0, #0
  40727e:	bc70      	pop	{r4, r5, r6}
  407280:	4770      	bx	lr
  407282:	460c      	mov	r4, r1
  407284:	4603      	mov	r3, r0
  407286:	681e      	ldr	r6, [r3, #0]
  407288:	6825      	ldr	r5, [r4, #0]
  40728a:	42ae      	cmp	r6, r5
  40728c:	4618      	mov	r0, r3
  40728e:	4621      	mov	r1, r4
  407290:	f103 0304 	add.w	r3, r3, #4
  407294:	f104 0404 	add.w	r4, r4, #4
  407298:	d1e1      	bne.n	40725e <memcmp+0xe>
  40729a:	3a04      	subs	r2, #4
  40729c:	2a03      	cmp	r2, #3
  40729e:	4618      	mov	r0, r3
  4072a0:	4621      	mov	r1, r4
  4072a2:	d8f0      	bhi.n	407286 <memcmp+0x36>
  4072a4:	2a00      	cmp	r2, #0
  4072a6:	d1da      	bne.n	40725e <memcmp+0xe>
  4072a8:	4610      	mov	r0, r2
  4072aa:	e7e8      	b.n	40727e <memcmp+0x2e>
  4072ac:	1b60      	subs	r0, r4, r5
  4072ae:	bc70      	pop	{r4, r5, r6}
  4072b0:	4770      	bx	lr
  4072b2:	bf00      	nop

004072b4 <memcpy>:
  4072b4:	4684      	mov	ip, r0
  4072b6:	ea41 0300 	orr.w	r3, r1, r0
  4072ba:	f013 0303 	ands.w	r3, r3, #3
  4072be:	d16d      	bne.n	40739c <memcpy+0xe8>
  4072c0:	3a40      	subs	r2, #64	; 0x40
  4072c2:	d341      	bcc.n	407348 <memcpy+0x94>
  4072c4:	f851 3b04 	ldr.w	r3, [r1], #4
  4072c8:	f840 3b04 	str.w	r3, [r0], #4
  4072cc:	f851 3b04 	ldr.w	r3, [r1], #4
  4072d0:	f840 3b04 	str.w	r3, [r0], #4
  4072d4:	f851 3b04 	ldr.w	r3, [r1], #4
  4072d8:	f840 3b04 	str.w	r3, [r0], #4
  4072dc:	f851 3b04 	ldr.w	r3, [r1], #4
  4072e0:	f840 3b04 	str.w	r3, [r0], #4
  4072e4:	f851 3b04 	ldr.w	r3, [r1], #4
  4072e8:	f840 3b04 	str.w	r3, [r0], #4
  4072ec:	f851 3b04 	ldr.w	r3, [r1], #4
  4072f0:	f840 3b04 	str.w	r3, [r0], #4
  4072f4:	f851 3b04 	ldr.w	r3, [r1], #4
  4072f8:	f840 3b04 	str.w	r3, [r0], #4
  4072fc:	f851 3b04 	ldr.w	r3, [r1], #4
  407300:	f840 3b04 	str.w	r3, [r0], #4
  407304:	f851 3b04 	ldr.w	r3, [r1], #4
  407308:	f840 3b04 	str.w	r3, [r0], #4
  40730c:	f851 3b04 	ldr.w	r3, [r1], #4
  407310:	f840 3b04 	str.w	r3, [r0], #4
  407314:	f851 3b04 	ldr.w	r3, [r1], #4
  407318:	f840 3b04 	str.w	r3, [r0], #4
  40731c:	f851 3b04 	ldr.w	r3, [r1], #4
  407320:	f840 3b04 	str.w	r3, [r0], #4
  407324:	f851 3b04 	ldr.w	r3, [r1], #4
  407328:	f840 3b04 	str.w	r3, [r0], #4
  40732c:	f851 3b04 	ldr.w	r3, [r1], #4
  407330:	f840 3b04 	str.w	r3, [r0], #4
  407334:	f851 3b04 	ldr.w	r3, [r1], #4
  407338:	f840 3b04 	str.w	r3, [r0], #4
  40733c:	f851 3b04 	ldr.w	r3, [r1], #4
  407340:	f840 3b04 	str.w	r3, [r0], #4
  407344:	3a40      	subs	r2, #64	; 0x40
  407346:	d2bd      	bcs.n	4072c4 <memcpy+0x10>
  407348:	3230      	adds	r2, #48	; 0x30
  40734a:	d311      	bcc.n	407370 <memcpy+0xbc>
  40734c:	f851 3b04 	ldr.w	r3, [r1], #4
  407350:	f840 3b04 	str.w	r3, [r0], #4
  407354:	f851 3b04 	ldr.w	r3, [r1], #4
  407358:	f840 3b04 	str.w	r3, [r0], #4
  40735c:	f851 3b04 	ldr.w	r3, [r1], #4
  407360:	f840 3b04 	str.w	r3, [r0], #4
  407364:	f851 3b04 	ldr.w	r3, [r1], #4
  407368:	f840 3b04 	str.w	r3, [r0], #4
  40736c:	3a10      	subs	r2, #16
  40736e:	d2ed      	bcs.n	40734c <memcpy+0x98>
  407370:	320c      	adds	r2, #12
  407372:	d305      	bcc.n	407380 <memcpy+0xcc>
  407374:	f851 3b04 	ldr.w	r3, [r1], #4
  407378:	f840 3b04 	str.w	r3, [r0], #4
  40737c:	3a04      	subs	r2, #4
  40737e:	d2f9      	bcs.n	407374 <memcpy+0xc0>
  407380:	3204      	adds	r2, #4
  407382:	d008      	beq.n	407396 <memcpy+0xe2>
  407384:	07d2      	lsls	r2, r2, #31
  407386:	bf1c      	itt	ne
  407388:	f811 3b01 	ldrbne.w	r3, [r1], #1
  40738c:	f800 3b01 	strbne.w	r3, [r0], #1
  407390:	d301      	bcc.n	407396 <memcpy+0xe2>
  407392:	880b      	ldrh	r3, [r1, #0]
  407394:	8003      	strh	r3, [r0, #0]
  407396:	4660      	mov	r0, ip
  407398:	4770      	bx	lr
  40739a:	bf00      	nop
  40739c:	2a08      	cmp	r2, #8
  40739e:	d313      	bcc.n	4073c8 <memcpy+0x114>
  4073a0:	078b      	lsls	r3, r1, #30
  4073a2:	d08d      	beq.n	4072c0 <memcpy+0xc>
  4073a4:	f010 0303 	ands.w	r3, r0, #3
  4073a8:	d08a      	beq.n	4072c0 <memcpy+0xc>
  4073aa:	f1c3 0304 	rsb	r3, r3, #4
  4073ae:	1ad2      	subs	r2, r2, r3
  4073b0:	07db      	lsls	r3, r3, #31
  4073b2:	bf1c      	itt	ne
  4073b4:	f811 3b01 	ldrbne.w	r3, [r1], #1
  4073b8:	f800 3b01 	strbne.w	r3, [r0], #1
  4073bc:	d380      	bcc.n	4072c0 <memcpy+0xc>
  4073be:	f831 3b02 	ldrh.w	r3, [r1], #2
  4073c2:	f820 3b02 	strh.w	r3, [r0], #2
  4073c6:	e77b      	b.n	4072c0 <memcpy+0xc>
  4073c8:	3a04      	subs	r2, #4
  4073ca:	d3d9      	bcc.n	407380 <memcpy+0xcc>
  4073cc:	3a01      	subs	r2, #1
  4073ce:	f811 3b01 	ldrb.w	r3, [r1], #1
  4073d2:	f800 3b01 	strb.w	r3, [r0], #1
  4073d6:	d2f9      	bcs.n	4073cc <memcpy+0x118>
  4073d8:	780b      	ldrb	r3, [r1, #0]
  4073da:	7003      	strb	r3, [r0, #0]
  4073dc:	784b      	ldrb	r3, [r1, #1]
  4073de:	7043      	strb	r3, [r0, #1]
  4073e0:	788b      	ldrb	r3, [r1, #2]
  4073e2:	7083      	strb	r3, [r0, #2]
  4073e4:	4660      	mov	r0, ip
  4073e6:	4770      	bx	lr

004073e8 <memmove>:
  4073e8:	4288      	cmp	r0, r1
  4073ea:	b5f0      	push	{r4, r5, r6, r7, lr}
  4073ec:	d90d      	bls.n	40740a <memmove+0x22>
  4073ee:	188b      	adds	r3, r1, r2
  4073f0:	4298      	cmp	r0, r3
  4073f2:	d20a      	bcs.n	40740a <memmove+0x22>
  4073f4:	1881      	adds	r1, r0, r2
  4073f6:	2a00      	cmp	r2, #0
  4073f8:	d051      	beq.n	40749e <memmove+0xb6>
  4073fa:	1a9a      	subs	r2, r3, r2
  4073fc:	f813 4d01 	ldrb.w	r4, [r3, #-1]!
  407400:	f801 4d01 	strb.w	r4, [r1, #-1]!
  407404:	4293      	cmp	r3, r2
  407406:	d1f9      	bne.n	4073fc <memmove+0x14>
  407408:	bdf0      	pop	{r4, r5, r6, r7, pc}
  40740a:	2a0f      	cmp	r2, #15
  40740c:	d948      	bls.n	4074a0 <memmove+0xb8>
  40740e:	ea41 0300 	orr.w	r3, r1, r0
  407412:	079b      	lsls	r3, r3, #30
  407414:	d146      	bne.n	4074a4 <memmove+0xbc>
  407416:	f100 0410 	add.w	r4, r0, #16
  40741a:	f101 0310 	add.w	r3, r1, #16
  40741e:	4615      	mov	r5, r2
  407420:	f853 6c10 	ldr.w	r6, [r3, #-16]
  407424:	f844 6c10 	str.w	r6, [r4, #-16]
  407428:	f853 6c0c 	ldr.w	r6, [r3, #-12]
  40742c:	f844 6c0c 	str.w	r6, [r4, #-12]
  407430:	f853 6c08 	ldr.w	r6, [r3, #-8]
  407434:	f844 6c08 	str.w	r6, [r4, #-8]
  407438:	3d10      	subs	r5, #16
  40743a:	f853 6c04 	ldr.w	r6, [r3, #-4]
  40743e:	f844 6c04 	str.w	r6, [r4, #-4]
  407442:	2d0f      	cmp	r5, #15
  407444:	f103 0310 	add.w	r3, r3, #16
  407448:	f104 0410 	add.w	r4, r4, #16
  40744c:	d8e8      	bhi.n	407420 <memmove+0x38>
  40744e:	f1a2 0310 	sub.w	r3, r2, #16
  407452:	f023 030f 	bic.w	r3, r3, #15
  407456:	f002 0e0f 	and.w	lr, r2, #15
  40745a:	3310      	adds	r3, #16
  40745c:	f1be 0f03 	cmp.w	lr, #3
  407460:	4419      	add	r1, r3
  407462:	4403      	add	r3, r0
  407464:	d921      	bls.n	4074aa <memmove+0xc2>
  407466:	1f1e      	subs	r6, r3, #4
  407468:	460d      	mov	r5, r1
  40746a:	4674      	mov	r4, lr
  40746c:	3c04      	subs	r4, #4
  40746e:	f855 7b04 	ldr.w	r7, [r5], #4
  407472:	f846 7f04 	str.w	r7, [r6, #4]!
  407476:	2c03      	cmp	r4, #3
  407478:	d8f8      	bhi.n	40746c <memmove+0x84>
  40747a:	f1ae 0404 	sub.w	r4, lr, #4
  40747e:	f024 0403 	bic.w	r4, r4, #3
  407482:	3404      	adds	r4, #4
  407484:	4423      	add	r3, r4
  407486:	4421      	add	r1, r4
  407488:	f002 0203 	and.w	r2, r2, #3
  40748c:	b162      	cbz	r2, 4074a8 <memmove+0xc0>
  40748e:	3b01      	subs	r3, #1
  407490:	440a      	add	r2, r1
  407492:	f811 4b01 	ldrb.w	r4, [r1], #1
  407496:	f803 4f01 	strb.w	r4, [r3, #1]!
  40749a:	428a      	cmp	r2, r1
  40749c:	d1f9      	bne.n	407492 <memmove+0xaa>
  40749e:	bdf0      	pop	{r4, r5, r6, r7, pc}
  4074a0:	4603      	mov	r3, r0
  4074a2:	e7f3      	b.n	40748c <memmove+0xa4>
  4074a4:	4603      	mov	r3, r0
  4074a6:	e7f2      	b.n	40748e <memmove+0xa6>
  4074a8:	bdf0      	pop	{r4, r5, r6, r7, pc}
  4074aa:	4672      	mov	r2, lr
  4074ac:	e7ee      	b.n	40748c <memmove+0xa4>
  4074ae:	bf00      	nop

004074b0 <_realloc_r>:
  4074b0:	e92d 4ff0 	stmdb	sp!, {r4, r5, r6, r7, r8, r9, sl, fp, lr}
  4074b4:	4617      	mov	r7, r2
  4074b6:	b083      	sub	sp, #12
  4074b8:	2900      	cmp	r1, #0
  4074ba:	f000 80c1 	beq.w	407640 <_realloc_r+0x190>
  4074be:	460e      	mov	r6, r1
  4074c0:	4681      	mov	r9, r0
  4074c2:	f107 050b 	add.w	r5, r7, #11
  4074c6:	f7fd fc1f 	bl	404d08 <__malloc_lock>
  4074ca:	f856 ec04 	ldr.w	lr, [r6, #-4]
  4074ce:	2d16      	cmp	r5, #22
  4074d0:	f02e 0403 	bic.w	r4, lr, #3
  4074d4:	f1a6 0808 	sub.w	r8, r6, #8
  4074d8:	d840      	bhi.n	40755c <_realloc_r+0xac>
  4074da:	2210      	movs	r2, #16
  4074dc:	4615      	mov	r5, r2
  4074de:	42af      	cmp	r7, r5
  4074e0:	d841      	bhi.n	407566 <_realloc_r+0xb6>
  4074e2:	4294      	cmp	r4, r2
  4074e4:	da75      	bge.n	4075d2 <_realloc_r+0x122>
  4074e6:	4bc9      	ldr	r3, [pc, #804]	; (40780c <_realloc_r+0x35c>)
  4074e8:	6899      	ldr	r1, [r3, #8]
  4074ea:	eb08 0004 	add.w	r0, r8, r4
  4074ee:	4288      	cmp	r0, r1
  4074f0:	6841      	ldr	r1, [r0, #4]
  4074f2:	f000 80d9 	beq.w	4076a8 <_realloc_r+0x1f8>
  4074f6:	f021 0301 	bic.w	r3, r1, #1
  4074fa:	4403      	add	r3, r0
  4074fc:	685b      	ldr	r3, [r3, #4]
  4074fe:	07db      	lsls	r3, r3, #31
  407500:	d57d      	bpl.n	4075fe <_realloc_r+0x14e>
  407502:	f01e 0f01 	tst.w	lr, #1
  407506:	d035      	beq.n	407574 <_realloc_r+0xc4>
  407508:	4639      	mov	r1, r7
  40750a:	4648      	mov	r0, r9
  40750c:	f7fd f8f6 	bl	4046fc <_malloc_r>
  407510:	4607      	mov	r7, r0
  407512:	b1e0      	cbz	r0, 40754e <_realloc_r+0x9e>
  407514:	f856 3c04 	ldr.w	r3, [r6, #-4]
  407518:	f023 0301 	bic.w	r3, r3, #1
  40751c:	4443      	add	r3, r8
  40751e:	f1a0 0208 	sub.w	r2, r0, #8
  407522:	429a      	cmp	r2, r3
  407524:	f000 8144 	beq.w	4077b0 <_realloc_r+0x300>
  407528:	1f22      	subs	r2, r4, #4
  40752a:	2a24      	cmp	r2, #36	; 0x24
  40752c:	f200 8131 	bhi.w	407792 <_realloc_r+0x2e2>
  407530:	2a13      	cmp	r2, #19
  407532:	f200 8104 	bhi.w	40773e <_realloc_r+0x28e>
  407536:	4603      	mov	r3, r0
  407538:	4632      	mov	r2, r6
  40753a:	6811      	ldr	r1, [r2, #0]
  40753c:	6019      	str	r1, [r3, #0]
  40753e:	6851      	ldr	r1, [r2, #4]
  407540:	6059      	str	r1, [r3, #4]
  407542:	6892      	ldr	r2, [r2, #8]
  407544:	609a      	str	r2, [r3, #8]
  407546:	4631      	mov	r1, r6
  407548:	4648      	mov	r0, r9
  40754a:	f7ff fb19 	bl	406b80 <_free_r>
  40754e:	4648      	mov	r0, r9
  407550:	f7fd fbdc 	bl	404d0c <__malloc_unlock>
  407554:	4638      	mov	r0, r7
  407556:	b003      	add	sp, #12
  407558:	e8bd 8ff0 	ldmia.w	sp!, {r4, r5, r6, r7, r8, r9, sl, fp, pc}
  40755c:	f025 0507 	bic.w	r5, r5, #7
  407560:	2d00      	cmp	r5, #0
  407562:	462a      	mov	r2, r5
  407564:	dabb      	bge.n	4074de <_realloc_r+0x2e>
  407566:	230c      	movs	r3, #12
  407568:	2000      	movs	r0, #0
  40756a:	f8c9 3000 	str.w	r3, [r9]
  40756e:	b003      	add	sp, #12
  407570:	e8bd 8ff0 	ldmia.w	sp!, {r4, r5, r6, r7, r8, r9, sl, fp, pc}
  407574:	f856 3c08 	ldr.w	r3, [r6, #-8]
  407578:	ebc3 0a08 	rsb	sl, r3, r8
  40757c:	f8da 3004 	ldr.w	r3, [sl, #4]
  407580:	f023 0c03 	bic.w	ip, r3, #3
  407584:	eb04 030c 	add.w	r3, r4, ip
  407588:	4293      	cmp	r3, r2
  40758a:	dbbd      	blt.n	407508 <_realloc_r+0x58>
  40758c:	4657      	mov	r7, sl
  40758e:	f8da 100c 	ldr.w	r1, [sl, #12]
  407592:	f857 0f08 	ldr.w	r0, [r7, #8]!
  407596:	1f22      	subs	r2, r4, #4
  407598:	2a24      	cmp	r2, #36	; 0x24
  40759a:	60c1      	str	r1, [r0, #12]
  40759c:	6088      	str	r0, [r1, #8]
  40759e:	f200 8117 	bhi.w	4077d0 <_realloc_r+0x320>
  4075a2:	2a13      	cmp	r2, #19
  4075a4:	f240 8112 	bls.w	4077cc <_realloc_r+0x31c>
  4075a8:	6831      	ldr	r1, [r6, #0]
  4075aa:	f8ca 1008 	str.w	r1, [sl, #8]
  4075ae:	6871      	ldr	r1, [r6, #4]
  4075b0:	f8ca 100c 	str.w	r1, [sl, #12]
  4075b4:	2a1b      	cmp	r2, #27
  4075b6:	f200 812b 	bhi.w	407810 <_realloc_r+0x360>
  4075ba:	3608      	adds	r6, #8
  4075bc:	f10a 0210 	add.w	r2, sl, #16
  4075c0:	6831      	ldr	r1, [r6, #0]
  4075c2:	6011      	str	r1, [r2, #0]
  4075c4:	6871      	ldr	r1, [r6, #4]
  4075c6:	6051      	str	r1, [r2, #4]
  4075c8:	68b1      	ldr	r1, [r6, #8]
  4075ca:	6091      	str	r1, [r2, #8]
  4075cc:	463e      	mov	r6, r7
  4075ce:	461c      	mov	r4, r3
  4075d0:	46d0      	mov	r8, sl
  4075d2:	1b63      	subs	r3, r4, r5
  4075d4:	2b0f      	cmp	r3, #15
  4075d6:	d81d      	bhi.n	407614 <_realloc_r+0x164>
  4075d8:	f8d8 3004 	ldr.w	r3, [r8, #4]
  4075dc:	f003 0301 	and.w	r3, r3, #1
  4075e0:	4323      	orrs	r3, r4
  4075e2:	4444      	add	r4, r8
  4075e4:	f8c8 3004 	str.w	r3, [r8, #4]
  4075e8:	6863      	ldr	r3, [r4, #4]
  4075ea:	f043 0301 	orr.w	r3, r3, #1
  4075ee:	6063      	str	r3, [r4, #4]
  4075f0:	4648      	mov	r0, r9
  4075f2:	f7fd fb8b 	bl	404d0c <__malloc_unlock>
  4075f6:	4630      	mov	r0, r6
  4075f8:	b003      	add	sp, #12
  4075fa:	e8bd 8ff0 	ldmia.w	sp!, {r4, r5, r6, r7, r8, r9, sl, fp, pc}
  4075fe:	f021 0103 	bic.w	r1, r1, #3
  407602:	4421      	add	r1, r4
  407604:	4291      	cmp	r1, r2
  407606:	db21      	blt.n	40764c <_realloc_r+0x19c>
  407608:	68c3      	ldr	r3, [r0, #12]
  40760a:	6882      	ldr	r2, [r0, #8]
  40760c:	460c      	mov	r4, r1
  40760e:	60d3      	str	r3, [r2, #12]
  407610:	609a      	str	r2, [r3, #8]
  407612:	e7de      	b.n	4075d2 <_realloc_r+0x122>
  407614:	f8d8 2004 	ldr.w	r2, [r8, #4]
  407618:	eb08 0105 	add.w	r1, r8, r5
  40761c:	f002 0201 	and.w	r2, r2, #1
  407620:	4315      	orrs	r5, r2
  407622:	f043 0201 	orr.w	r2, r3, #1
  407626:	440b      	add	r3, r1
  407628:	f8c8 5004 	str.w	r5, [r8, #4]
  40762c:	604a      	str	r2, [r1, #4]
  40762e:	685a      	ldr	r2, [r3, #4]
  407630:	f042 0201 	orr.w	r2, r2, #1
  407634:	3108      	adds	r1, #8
  407636:	605a      	str	r2, [r3, #4]
  407638:	4648      	mov	r0, r9
  40763a:	f7ff faa1 	bl	406b80 <_free_r>
  40763e:	e7d7      	b.n	4075f0 <_realloc_r+0x140>
  407640:	4611      	mov	r1, r2
  407642:	b003      	add	sp, #12
  407644:	e8bd 4ff0 	ldmia.w	sp!, {r4, r5, r6, r7, r8, r9, sl, fp, lr}
  407648:	f7fd b858 	b.w	4046fc <_malloc_r>
  40764c:	f01e 0f01 	tst.w	lr, #1
  407650:	f47f af5a 	bne.w	407508 <_realloc_r+0x58>
  407654:	f856 3c08 	ldr.w	r3, [r6, #-8]
  407658:	ebc3 0a08 	rsb	sl, r3, r8
  40765c:	f8da 3004 	ldr.w	r3, [sl, #4]
  407660:	f023 0c03 	bic.w	ip, r3, #3
  407664:	eb01 0e0c 	add.w	lr, r1, ip
  407668:	4596      	cmp	lr, r2
  40766a:	db8b      	blt.n	407584 <_realloc_r+0xd4>
  40766c:	68c3      	ldr	r3, [r0, #12]
  40766e:	6882      	ldr	r2, [r0, #8]
  407670:	4657      	mov	r7, sl
  407672:	60d3      	str	r3, [r2, #12]
  407674:	609a      	str	r2, [r3, #8]
  407676:	f857 1f08 	ldr.w	r1, [r7, #8]!
  40767a:	f8da 300c 	ldr.w	r3, [sl, #12]
  40767e:	60cb      	str	r3, [r1, #12]
  407680:	1f22      	subs	r2, r4, #4
  407682:	2a24      	cmp	r2, #36	; 0x24
  407684:	6099      	str	r1, [r3, #8]
  407686:	f200 8099 	bhi.w	4077bc <_realloc_r+0x30c>
  40768a:	2a13      	cmp	r2, #19
  40768c:	d962      	bls.n	407754 <_realloc_r+0x2a4>
  40768e:	6833      	ldr	r3, [r6, #0]
  407690:	f8ca 3008 	str.w	r3, [sl, #8]
  407694:	6873      	ldr	r3, [r6, #4]
  407696:	f8ca 300c 	str.w	r3, [sl, #12]
  40769a:	2a1b      	cmp	r2, #27
  40769c:	f200 80a0 	bhi.w	4077e0 <_realloc_r+0x330>
  4076a0:	3608      	adds	r6, #8
  4076a2:	f10a 0310 	add.w	r3, sl, #16
  4076a6:	e056      	b.n	407756 <_realloc_r+0x2a6>
  4076a8:	f021 0b03 	bic.w	fp, r1, #3
  4076ac:	44a3      	add	fp, r4
  4076ae:	f105 0010 	add.w	r0, r5, #16
  4076b2:	4583      	cmp	fp, r0
  4076b4:	da59      	bge.n	40776a <_realloc_r+0x2ba>
  4076b6:	f01e 0f01 	tst.w	lr, #1
  4076ba:	f47f af25 	bne.w	407508 <_realloc_r+0x58>
  4076be:	f856 1c08 	ldr.w	r1, [r6, #-8]
  4076c2:	ebc1 0a08 	rsb	sl, r1, r8
  4076c6:	f8da 1004 	ldr.w	r1, [sl, #4]
  4076ca:	f021 0c03 	bic.w	ip, r1, #3
  4076ce:	44e3      	add	fp, ip
  4076d0:	4558      	cmp	r0, fp
  4076d2:	f73f af57 	bgt.w	407584 <_realloc_r+0xd4>
  4076d6:	4657      	mov	r7, sl
  4076d8:	f8da 100c 	ldr.w	r1, [sl, #12]
  4076dc:	f857 0f08 	ldr.w	r0, [r7, #8]!
  4076e0:	1f22      	subs	r2, r4, #4
  4076e2:	2a24      	cmp	r2, #36	; 0x24
  4076e4:	60c1      	str	r1, [r0, #12]
  4076e6:	6088      	str	r0, [r1, #8]
  4076e8:	f200 80b4 	bhi.w	407854 <_realloc_r+0x3a4>
  4076ec:	2a13      	cmp	r2, #19
  4076ee:	f240 80a5 	bls.w	40783c <_realloc_r+0x38c>
  4076f2:	6831      	ldr	r1, [r6, #0]
  4076f4:	f8ca 1008 	str.w	r1, [sl, #8]
  4076f8:	6871      	ldr	r1, [r6, #4]
  4076fa:	f8ca 100c 	str.w	r1, [sl, #12]
  4076fe:	2a1b      	cmp	r2, #27
  407700:	f200 80af 	bhi.w	407862 <_realloc_r+0x3b2>
  407704:	3608      	adds	r6, #8
  407706:	f10a 0210 	add.w	r2, sl, #16
  40770a:	6831      	ldr	r1, [r6, #0]
  40770c:	6011      	str	r1, [r2, #0]
  40770e:	6871      	ldr	r1, [r6, #4]
  407710:	6051      	str	r1, [r2, #4]
  407712:	68b1      	ldr	r1, [r6, #8]
  407714:	6091      	str	r1, [r2, #8]
  407716:	eb0a 0105 	add.w	r1, sl, r5
  40771a:	ebc5 020b 	rsb	r2, r5, fp
  40771e:	f042 0201 	orr.w	r2, r2, #1
  407722:	6099      	str	r1, [r3, #8]
  407724:	604a      	str	r2, [r1, #4]
  407726:	f8da 3004 	ldr.w	r3, [sl, #4]
  40772a:	f003 0301 	and.w	r3, r3, #1
  40772e:	431d      	orrs	r5, r3
  407730:	4648      	mov	r0, r9
  407732:	f8ca 5004 	str.w	r5, [sl, #4]
  407736:	f7fd fae9 	bl	404d0c <__malloc_unlock>
  40773a:	4638      	mov	r0, r7
  40773c:	e75c      	b.n	4075f8 <_realloc_r+0x148>
  40773e:	6833      	ldr	r3, [r6, #0]
  407740:	6003      	str	r3, [r0, #0]
  407742:	6873      	ldr	r3, [r6, #4]
  407744:	6043      	str	r3, [r0, #4]
  407746:	2a1b      	cmp	r2, #27
  407748:	d827      	bhi.n	40779a <_realloc_r+0x2ea>
  40774a:	f100 0308 	add.w	r3, r0, #8
  40774e:	f106 0208 	add.w	r2, r6, #8
  407752:	e6f2      	b.n	40753a <_realloc_r+0x8a>
  407754:	463b      	mov	r3, r7
  407756:	6832      	ldr	r2, [r6, #0]
  407758:	601a      	str	r2, [r3, #0]
  40775a:	6872      	ldr	r2, [r6, #4]
  40775c:	605a      	str	r2, [r3, #4]
  40775e:	68b2      	ldr	r2, [r6, #8]
  407760:	609a      	str	r2, [r3, #8]
  407762:	463e      	mov	r6, r7
  407764:	4674      	mov	r4, lr
  407766:	46d0      	mov	r8, sl
  407768:	e733      	b.n	4075d2 <_realloc_r+0x122>
  40776a:	eb08 0105 	add.w	r1, r8, r5
  40776e:	ebc5 0b0b 	rsb	fp, r5, fp
  407772:	f04b 0201 	orr.w	r2, fp, #1
  407776:	6099      	str	r1, [r3, #8]
  407778:	604a      	str	r2, [r1, #4]
  40777a:	f856 3c04 	ldr.w	r3, [r6, #-4]
  40777e:	f003 0301 	and.w	r3, r3, #1
  407782:	431d      	orrs	r5, r3
  407784:	4648      	mov	r0, r9
  407786:	f846 5c04 	str.w	r5, [r6, #-4]
  40778a:	f7fd fabf 	bl	404d0c <__malloc_unlock>
  40778e:	4630      	mov	r0, r6
  407790:	e732      	b.n	4075f8 <_realloc_r+0x148>
  407792:	4631      	mov	r1, r6
  407794:	f7ff fe28 	bl	4073e8 <memmove>
  407798:	e6d5      	b.n	407546 <_realloc_r+0x96>
  40779a:	68b3      	ldr	r3, [r6, #8]
  40779c:	6083      	str	r3, [r0, #8]
  40779e:	68f3      	ldr	r3, [r6, #12]
  4077a0:	60c3      	str	r3, [r0, #12]
  4077a2:	2a24      	cmp	r2, #36	; 0x24
  4077a4:	d028      	beq.n	4077f8 <_realloc_r+0x348>
  4077a6:	f100 0310 	add.w	r3, r0, #16
  4077aa:	f106 0210 	add.w	r2, r6, #16
  4077ae:	e6c4      	b.n	40753a <_realloc_r+0x8a>
  4077b0:	f850 3c04 	ldr.w	r3, [r0, #-4]
  4077b4:	f023 0303 	bic.w	r3, r3, #3
  4077b8:	441c      	add	r4, r3
  4077ba:	e70a      	b.n	4075d2 <_realloc_r+0x122>
  4077bc:	4631      	mov	r1, r6
  4077be:	4638      	mov	r0, r7
  4077c0:	4674      	mov	r4, lr
  4077c2:	46d0      	mov	r8, sl
  4077c4:	f7ff fe10 	bl	4073e8 <memmove>
  4077c8:	463e      	mov	r6, r7
  4077ca:	e702      	b.n	4075d2 <_realloc_r+0x122>
  4077cc:	463a      	mov	r2, r7
  4077ce:	e6f7      	b.n	4075c0 <_realloc_r+0x110>
  4077d0:	4631      	mov	r1, r6
  4077d2:	4638      	mov	r0, r7
  4077d4:	461c      	mov	r4, r3
  4077d6:	46d0      	mov	r8, sl
  4077d8:	f7ff fe06 	bl	4073e8 <memmove>
  4077dc:	463e      	mov	r6, r7
  4077de:	e6f8      	b.n	4075d2 <_realloc_r+0x122>
  4077e0:	68b3      	ldr	r3, [r6, #8]
  4077e2:	f8ca 3010 	str.w	r3, [sl, #16]
  4077e6:	68f3      	ldr	r3, [r6, #12]
  4077e8:	f8ca 3014 	str.w	r3, [sl, #20]
  4077ec:	2a24      	cmp	r2, #36	; 0x24
  4077ee:	d01b      	beq.n	407828 <_realloc_r+0x378>
  4077f0:	3610      	adds	r6, #16
  4077f2:	f10a 0318 	add.w	r3, sl, #24
  4077f6:	e7ae      	b.n	407756 <_realloc_r+0x2a6>
  4077f8:	6933      	ldr	r3, [r6, #16]
  4077fa:	6103      	str	r3, [r0, #16]
  4077fc:	6973      	ldr	r3, [r6, #20]
  4077fe:	6143      	str	r3, [r0, #20]
  407800:	f106 0218 	add.w	r2, r6, #24
  407804:	f100 0318 	add.w	r3, r0, #24
  407808:	e697      	b.n	40753a <_realloc_r+0x8a>
  40780a:	bf00      	nop
  40780c:	2040044c 	.word	0x2040044c
  407810:	68b1      	ldr	r1, [r6, #8]
  407812:	f8ca 1010 	str.w	r1, [sl, #16]
  407816:	68f1      	ldr	r1, [r6, #12]
  407818:	f8ca 1014 	str.w	r1, [sl, #20]
  40781c:	2a24      	cmp	r2, #36	; 0x24
  40781e:	d00f      	beq.n	407840 <_realloc_r+0x390>
  407820:	3610      	adds	r6, #16
  407822:	f10a 0218 	add.w	r2, sl, #24
  407826:	e6cb      	b.n	4075c0 <_realloc_r+0x110>
  407828:	6933      	ldr	r3, [r6, #16]
  40782a:	f8ca 3018 	str.w	r3, [sl, #24]
  40782e:	6973      	ldr	r3, [r6, #20]
  407830:	f8ca 301c 	str.w	r3, [sl, #28]
  407834:	3618      	adds	r6, #24
  407836:	f10a 0320 	add.w	r3, sl, #32
  40783a:	e78c      	b.n	407756 <_realloc_r+0x2a6>
  40783c:	463a      	mov	r2, r7
  40783e:	e764      	b.n	40770a <_realloc_r+0x25a>
  407840:	6932      	ldr	r2, [r6, #16]
  407842:	f8ca 2018 	str.w	r2, [sl, #24]
  407846:	6972      	ldr	r2, [r6, #20]
  407848:	f8ca 201c 	str.w	r2, [sl, #28]
  40784c:	3618      	adds	r6, #24
  40784e:	f10a 0220 	add.w	r2, sl, #32
  407852:	e6b5      	b.n	4075c0 <_realloc_r+0x110>
  407854:	4631      	mov	r1, r6
  407856:	4638      	mov	r0, r7
  407858:	9301      	str	r3, [sp, #4]
  40785a:	f7ff fdc5 	bl	4073e8 <memmove>
  40785e:	9b01      	ldr	r3, [sp, #4]
  407860:	e759      	b.n	407716 <_realloc_r+0x266>
  407862:	68b1      	ldr	r1, [r6, #8]
  407864:	f8ca 1010 	str.w	r1, [sl, #16]
  407868:	68f1      	ldr	r1, [r6, #12]
  40786a:	f8ca 1014 	str.w	r1, [sl, #20]
  40786e:	2a24      	cmp	r2, #36	; 0x24
  407870:	d003      	beq.n	40787a <_realloc_r+0x3ca>
  407872:	3610      	adds	r6, #16
  407874:	f10a 0218 	add.w	r2, sl, #24
  407878:	e747      	b.n	40770a <_realloc_r+0x25a>
  40787a:	6932      	ldr	r2, [r6, #16]
  40787c:	f8ca 2018 	str.w	r2, [sl, #24]
  407880:	6972      	ldr	r2, [r6, #20]
  407882:	f8ca 201c 	str.w	r2, [sl, #28]
  407886:	3618      	adds	r6, #24
  407888:	f10a 0220 	add.w	r2, sl, #32
  40788c:	e73d      	b.n	40770a <_realloc_r+0x25a>
  40788e:	bf00      	nop

00407890 <__sread>:
  407890:	b510      	push	{r4, lr}
  407892:	460c      	mov	r4, r1
  407894:	f9b1 100e 	ldrsh.w	r1, [r1, #14]
  407898:	f000 fa2c 	bl	407cf4 <_read_r>
  40789c:	2800      	cmp	r0, #0
  40789e:	db03      	blt.n	4078a8 <__sread+0x18>
  4078a0:	6d23      	ldr	r3, [r4, #80]	; 0x50
  4078a2:	4403      	add	r3, r0
  4078a4:	6523      	str	r3, [r4, #80]	; 0x50
  4078a6:	bd10      	pop	{r4, pc}
  4078a8:	89a3      	ldrh	r3, [r4, #12]
  4078aa:	f423 5380 	bic.w	r3, r3, #4096	; 0x1000
  4078ae:	81a3      	strh	r3, [r4, #12]
  4078b0:	bd10      	pop	{r4, pc}
  4078b2:	bf00      	nop

004078b4 <__swrite>:
  4078b4:	e92d 41f0 	stmdb	sp!, {r4, r5, r6, r7, r8, lr}
  4078b8:	4616      	mov	r6, r2
  4078ba:	f9b1 200c 	ldrsh.w	r2, [r1, #12]
  4078be:	461f      	mov	r7, r3
  4078c0:	05d3      	lsls	r3, r2, #23
  4078c2:	460c      	mov	r4, r1
  4078c4:	4605      	mov	r5, r0
  4078c6:	d507      	bpl.n	4078d8 <__swrite+0x24>
  4078c8:	2200      	movs	r2, #0
  4078ca:	2302      	movs	r3, #2
  4078cc:	f9b1 100e 	ldrsh.w	r1, [r1, #14]
  4078d0:	f000 f9fa 	bl	407cc8 <_lseek_r>
  4078d4:	f9b4 200c 	ldrsh.w	r2, [r4, #12]
  4078d8:	f9b4 100e 	ldrsh.w	r1, [r4, #14]
  4078dc:	f422 5280 	bic.w	r2, r2, #4096	; 0x1000
  4078e0:	81a2      	strh	r2, [r4, #12]
  4078e2:	463b      	mov	r3, r7
  4078e4:	4632      	mov	r2, r6
  4078e6:	4628      	mov	r0, r5
  4078e8:	e8bd 41f0 	ldmia.w	sp!, {r4, r5, r6, r7, r8, lr}
  4078ec:	f000 b90a 	b.w	407b04 <_write_r>

004078f0 <__sseek>:
  4078f0:	b510      	push	{r4, lr}
  4078f2:	460c      	mov	r4, r1
  4078f4:	f9b1 100e 	ldrsh.w	r1, [r1, #14]
  4078f8:	f000 f9e6 	bl	407cc8 <_lseek_r>
  4078fc:	89a3      	ldrh	r3, [r4, #12]
  4078fe:	1c42      	adds	r2, r0, #1
  407900:	bf0e      	itee	eq
  407902:	f423 5380 	biceq.w	r3, r3, #4096	; 0x1000
  407906:	f443 5380 	orrne.w	r3, r3, #4096	; 0x1000
  40790a:	6520      	strne	r0, [r4, #80]	; 0x50
  40790c:	81a3      	strh	r3, [r4, #12]
  40790e:	bd10      	pop	{r4, pc}

00407910 <__sclose>:
  407910:	f9b1 100e 	ldrsh.w	r1, [r1, #14]
  407914:	f000 b95e 	b.w	407bd4 <_close_r>

00407918 <strchr>:
  407918:	b470      	push	{r4, r5, r6}
  40791a:	f011 04ff 	ands.w	r4, r1, #255	; 0xff
  40791e:	d034      	beq.n	40798a <strchr+0x72>
  407920:	0785      	lsls	r5, r0, #30
  407922:	d00f      	beq.n	407944 <strchr+0x2c>
  407924:	7803      	ldrb	r3, [r0, #0]
  407926:	2b00      	cmp	r3, #0
  407928:	d05a      	beq.n	4079e0 <strchr+0xc8>
  40792a:	429c      	cmp	r4, r3
  40792c:	d02b      	beq.n	407986 <strchr+0x6e>
  40792e:	1c43      	adds	r3, r0, #1
  407930:	e005      	b.n	40793e <strchr+0x26>
  407932:	f813 2b01 	ldrb.w	r2, [r3], #1
  407936:	2a00      	cmp	r2, #0
  407938:	d04f      	beq.n	4079da <strchr+0xc2>
  40793a:	4294      	cmp	r4, r2
  40793c:	d023      	beq.n	407986 <strchr+0x6e>
  40793e:	079a      	lsls	r2, r3, #30
  407940:	4618      	mov	r0, r3
  407942:	d1f6      	bne.n	407932 <strchr+0x1a>
  407944:	020e      	lsls	r6, r1, #8
  407946:	f406 467f 	and.w	r6, r6, #65280	; 0xff00
  40794a:	4326      	orrs	r6, r4
  40794c:	6803      	ldr	r3, [r0, #0]
  40794e:	ea46 4606 	orr.w	r6, r6, r6, lsl #16
  407952:	e001      	b.n	407958 <strchr+0x40>
  407954:	f850 3f04 	ldr.w	r3, [r0, #4]!
  407958:	ea86 0503 	eor.w	r5, r6, r3
  40795c:	f1a5 3201 	sub.w	r2, r5, #16843009	; 0x1010101
  407960:	f1a3 3101 	sub.w	r1, r3, #16843009	; 0x1010101
  407964:	ea22 0205 	bic.w	r2, r2, r5
  407968:	ea21 0303 	bic.w	r3, r1, r3
  40796c:	4313      	orrs	r3, r2
  40796e:	f013 3f80 	tst.w	r3, #2155905152	; 0x80808080
  407972:	d0ef      	beq.n	407954 <strchr+0x3c>
  407974:	7803      	ldrb	r3, [r0, #0]
  407976:	b923      	cbnz	r3, 407982 <strchr+0x6a>
  407978:	e032      	b.n	4079e0 <strchr+0xc8>
  40797a:	f810 3f01 	ldrb.w	r3, [r0, #1]!
  40797e:	2b00      	cmp	r3, #0
  407980:	d02e      	beq.n	4079e0 <strchr+0xc8>
  407982:	429c      	cmp	r4, r3
  407984:	d1f9      	bne.n	40797a <strchr+0x62>
  407986:	bc70      	pop	{r4, r5, r6}
  407988:	4770      	bx	lr
  40798a:	0784      	lsls	r4, r0, #30
  40798c:	d00b      	beq.n	4079a6 <strchr+0x8e>
  40798e:	7803      	ldrb	r3, [r0, #0]
  407990:	2b00      	cmp	r3, #0
  407992:	d0f8      	beq.n	407986 <strchr+0x6e>
  407994:	1c43      	adds	r3, r0, #1
  407996:	e003      	b.n	4079a0 <strchr+0x88>
  407998:	7802      	ldrb	r2, [r0, #0]
  40799a:	3301      	adds	r3, #1
  40799c:	2a00      	cmp	r2, #0
  40799e:	d0f2      	beq.n	407986 <strchr+0x6e>
  4079a0:	0799      	lsls	r1, r3, #30
  4079a2:	4618      	mov	r0, r3
  4079a4:	d1f8      	bne.n	407998 <strchr+0x80>
  4079a6:	6802      	ldr	r2, [r0, #0]
  4079a8:	f1a2 3301 	sub.w	r3, r2, #16843009	; 0x1010101
  4079ac:	ea23 0302 	bic.w	r3, r3, r2
  4079b0:	f013 3f80 	tst.w	r3, #2155905152	; 0x80808080
  4079b4:	d108      	bne.n	4079c8 <strchr+0xb0>
  4079b6:	f850 2f04 	ldr.w	r2, [r0, #4]!
  4079ba:	f1a2 3301 	sub.w	r3, r2, #16843009	; 0x1010101
  4079be:	ea23 0302 	bic.w	r3, r3, r2
  4079c2:	f013 3f80 	tst.w	r3, #2155905152	; 0x80808080
  4079c6:	d0f6      	beq.n	4079b6 <strchr+0x9e>
  4079c8:	7803      	ldrb	r3, [r0, #0]
  4079ca:	2b00      	cmp	r3, #0
  4079cc:	d0db      	beq.n	407986 <strchr+0x6e>
  4079ce:	f810 3f01 	ldrb.w	r3, [r0, #1]!
  4079d2:	2b00      	cmp	r3, #0
  4079d4:	d1fb      	bne.n	4079ce <strchr+0xb6>
  4079d6:	bc70      	pop	{r4, r5, r6}
  4079d8:	4770      	bx	lr
  4079da:	4610      	mov	r0, r2
  4079dc:	bc70      	pop	{r4, r5, r6}
  4079de:	4770      	bx	lr
  4079e0:	4618      	mov	r0, r3
  4079e2:	bc70      	pop	{r4, r5, r6}
  4079e4:	4770      	bx	lr
  4079e6:	bf00      	nop

004079e8 <__swbuf_r>:
  4079e8:	b5f8      	push	{r3, r4, r5, r6, r7, lr}
  4079ea:	460e      	mov	r6, r1
  4079ec:	4614      	mov	r4, r2
  4079ee:	4607      	mov	r7, r0
  4079f0:	b110      	cbz	r0, 4079f8 <__swbuf_r+0x10>
  4079f2:	6b83      	ldr	r3, [r0, #56]	; 0x38
  4079f4:	2b00      	cmp	r3, #0
  4079f6:	d04a      	beq.n	407a8e <__swbuf_r+0xa6>
  4079f8:	f9b4 200c 	ldrsh.w	r2, [r4, #12]
  4079fc:	69a3      	ldr	r3, [r4, #24]
  4079fe:	60a3      	str	r3, [r4, #8]
  407a00:	b291      	uxth	r1, r2
  407a02:	0708      	lsls	r0, r1, #28
  407a04:	d538      	bpl.n	407a78 <__swbuf_r+0x90>
  407a06:	6923      	ldr	r3, [r4, #16]
  407a08:	2b00      	cmp	r3, #0
  407a0a:	d035      	beq.n	407a78 <__swbuf_r+0x90>
  407a0c:	0489      	lsls	r1, r1, #18
  407a0e:	b2f5      	uxtb	r5, r6
  407a10:	d515      	bpl.n	407a3e <__swbuf_r+0x56>
  407a12:	6822      	ldr	r2, [r4, #0]
  407a14:	6961      	ldr	r1, [r4, #20]
  407a16:	1ad3      	subs	r3, r2, r3
  407a18:	428b      	cmp	r3, r1
  407a1a:	da1c      	bge.n	407a56 <__swbuf_r+0x6e>
  407a1c:	3301      	adds	r3, #1
  407a1e:	68a1      	ldr	r1, [r4, #8]
  407a20:	1c50      	adds	r0, r2, #1
  407a22:	3901      	subs	r1, #1
  407a24:	60a1      	str	r1, [r4, #8]
  407a26:	6020      	str	r0, [r4, #0]
  407a28:	7016      	strb	r6, [r2, #0]
  407a2a:	6962      	ldr	r2, [r4, #20]
  407a2c:	429a      	cmp	r2, r3
  407a2e:	d01a      	beq.n	407a66 <__swbuf_r+0x7e>
  407a30:	89a3      	ldrh	r3, [r4, #12]
  407a32:	07db      	lsls	r3, r3, #31
  407a34:	d501      	bpl.n	407a3a <__swbuf_r+0x52>
  407a36:	2d0a      	cmp	r5, #10
  407a38:	d015      	beq.n	407a66 <__swbuf_r+0x7e>
  407a3a:	4628      	mov	r0, r5
  407a3c:	bdf8      	pop	{r3, r4, r5, r6, r7, pc}
  407a3e:	6e61      	ldr	r1, [r4, #100]	; 0x64
  407a40:	f442 5200 	orr.w	r2, r2, #8192	; 0x2000
  407a44:	f421 5100 	bic.w	r1, r1, #8192	; 0x2000
  407a48:	81a2      	strh	r2, [r4, #12]
  407a4a:	6822      	ldr	r2, [r4, #0]
  407a4c:	6661      	str	r1, [r4, #100]	; 0x64
  407a4e:	6961      	ldr	r1, [r4, #20]
  407a50:	1ad3      	subs	r3, r2, r3
  407a52:	428b      	cmp	r3, r1
  407a54:	dbe2      	blt.n	407a1c <__swbuf_r+0x34>
  407a56:	4621      	mov	r1, r4
  407a58:	4638      	mov	r0, r7
  407a5a:	f7fe ff33 	bl	4068c4 <_fflush_r>
  407a5e:	b940      	cbnz	r0, 407a72 <__swbuf_r+0x8a>
  407a60:	6822      	ldr	r2, [r4, #0]
  407a62:	2301      	movs	r3, #1
  407a64:	e7db      	b.n	407a1e <__swbuf_r+0x36>
  407a66:	4621      	mov	r1, r4
  407a68:	4638      	mov	r0, r7
  407a6a:	f7fe ff2b 	bl	4068c4 <_fflush_r>
  407a6e:	2800      	cmp	r0, #0
  407a70:	d0e3      	beq.n	407a3a <__swbuf_r+0x52>
  407a72:	f04f 30ff 	mov.w	r0, #4294967295
  407a76:	bdf8      	pop	{r3, r4, r5, r6, r7, pc}
  407a78:	4621      	mov	r1, r4
  407a7a:	4638      	mov	r0, r7
  407a7c:	f7fe fe0a 	bl	406694 <__swsetup_r>
  407a80:	2800      	cmp	r0, #0
  407a82:	d1f6      	bne.n	407a72 <__swbuf_r+0x8a>
  407a84:	f9b4 200c 	ldrsh.w	r2, [r4, #12]
  407a88:	6923      	ldr	r3, [r4, #16]
  407a8a:	b291      	uxth	r1, r2
  407a8c:	e7be      	b.n	407a0c <__swbuf_r+0x24>
  407a8e:	f7fe ffad 	bl	4069ec <__sinit>
  407a92:	e7b1      	b.n	4079f8 <__swbuf_r+0x10>

00407a94 <_wcrtomb_r>:
  407a94:	e92d 41f0 	stmdb	sp!, {r4, r5, r6, r7, r8, lr}
  407a98:	4605      	mov	r5, r0
  407a9a:	b086      	sub	sp, #24
  407a9c:	461e      	mov	r6, r3
  407a9e:	460c      	mov	r4, r1
  407aa0:	b1a1      	cbz	r1, 407acc <_wcrtomb_r+0x38>
  407aa2:	4b10      	ldr	r3, [pc, #64]	; (407ae4 <_wcrtomb_r+0x50>)
  407aa4:	4617      	mov	r7, r2
  407aa6:	f8d3 8000 	ldr.w	r8, [r3]
  407aaa:	f7ff fafd 	bl	4070a8 <__locale_charset>
  407aae:	9600      	str	r6, [sp, #0]
  407ab0:	4603      	mov	r3, r0
  407ab2:	463a      	mov	r2, r7
  407ab4:	4621      	mov	r1, r4
  407ab6:	4628      	mov	r0, r5
  407ab8:	47c0      	blx	r8
  407aba:	1c43      	adds	r3, r0, #1
  407abc:	d103      	bne.n	407ac6 <_wcrtomb_r+0x32>
  407abe:	2200      	movs	r2, #0
  407ac0:	238a      	movs	r3, #138	; 0x8a
  407ac2:	6032      	str	r2, [r6, #0]
  407ac4:	602b      	str	r3, [r5, #0]
  407ac6:	b006      	add	sp, #24
  407ac8:	e8bd 81f0 	ldmia.w	sp!, {r4, r5, r6, r7, r8, pc}
  407acc:	4b05      	ldr	r3, [pc, #20]	; (407ae4 <_wcrtomb_r+0x50>)
  407ace:	681f      	ldr	r7, [r3, #0]
  407ad0:	f7ff faea 	bl	4070a8 <__locale_charset>
  407ad4:	9600      	str	r6, [sp, #0]
  407ad6:	4603      	mov	r3, r0
  407ad8:	4622      	mov	r2, r4
  407ada:	a903      	add	r1, sp, #12
  407adc:	4628      	mov	r0, r5
  407ade:	47b8      	blx	r7
  407ae0:	e7eb      	b.n	407aba <_wcrtomb_r+0x26>
  407ae2:	bf00      	nop
  407ae4:	20400880 	.word	0x20400880

00407ae8 <__ascii_wctomb>:
  407ae8:	b121      	cbz	r1, 407af4 <__ascii_wctomb+0xc>
  407aea:	2aff      	cmp	r2, #255	; 0xff
  407aec:	d804      	bhi.n	407af8 <__ascii_wctomb+0x10>
  407aee:	700a      	strb	r2, [r1, #0]
  407af0:	2001      	movs	r0, #1
  407af2:	4770      	bx	lr
  407af4:	4608      	mov	r0, r1
  407af6:	4770      	bx	lr
  407af8:	238a      	movs	r3, #138	; 0x8a
  407afa:	6003      	str	r3, [r0, #0]
  407afc:	f04f 30ff 	mov.w	r0, #4294967295
  407b00:	4770      	bx	lr
  407b02:	bf00      	nop

00407b04 <_write_r>:
  407b04:	b570      	push	{r4, r5, r6, lr}
  407b06:	460d      	mov	r5, r1
  407b08:	4c08      	ldr	r4, [pc, #32]	; (407b2c <_write_r+0x28>)
  407b0a:	4611      	mov	r1, r2
  407b0c:	4606      	mov	r6, r0
  407b0e:	461a      	mov	r2, r3
  407b10:	4628      	mov	r0, r5
  407b12:	2300      	movs	r3, #0
  407b14:	6023      	str	r3, [r4, #0]
  407b16:	f7fb fbb1 	bl	40327c <_write>
  407b1a:	1c43      	adds	r3, r0, #1
  407b1c:	d000      	beq.n	407b20 <_write_r+0x1c>
  407b1e:	bd70      	pop	{r4, r5, r6, pc}
  407b20:	6823      	ldr	r3, [r4, #0]
  407b22:	2b00      	cmp	r3, #0
  407b24:	d0fb      	beq.n	407b1e <_write_r+0x1a>
  407b26:	6033      	str	r3, [r6, #0]
  407b28:	bd70      	pop	{r4, r5, r6, pc}
  407b2a:	bf00      	nop
  407b2c:	20401014 	.word	0x20401014

00407b30 <__register_exitproc>:
  407b30:	e92d 47f0 	stmdb	sp!, {r4, r5, r6, r7, r8, r9, sl, lr}
  407b34:	4c25      	ldr	r4, [pc, #148]	; (407bcc <__register_exitproc+0x9c>)
  407b36:	6825      	ldr	r5, [r4, #0]
  407b38:	f8d5 4148 	ldr.w	r4, [r5, #328]	; 0x148
  407b3c:	4606      	mov	r6, r0
  407b3e:	4688      	mov	r8, r1
  407b40:	4692      	mov	sl, r2
  407b42:	4699      	mov	r9, r3
  407b44:	b3c4      	cbz	r4, 407bb8 <__register_exitproc+0x88>
  407b46:	6860      	ldr	r0, [r4, #4]
  407b48:	281f      	cmp	r0, #31
  407b4a:	dc17      	bgt.n	407b7c <__register_exitproc+0x4c>
  407b4c:	1c43      	adds	r3, r0, #1
  407b4e:	b176      	cbz	r6, 407b6e <__register_exitproc+0x3e>
  407b50:	eb04 0580 	add.w	r5, r4, r0, lsl #2
  407b54:	2201      	movs	r2, #1
  407b56:	f8c5 a088 	str.w	sl, [r5, #136]	; 0x88
  407b5a:	f8d4 1188 	ldr.w	r1, [r4, #392]	; 0x188
  407b5e:	4082      	lsls	r2, r0
  407b60:	4311      	orrs	r1, r2
  407b62:	2e02      	cmp	r6, #2
  407b64:	f8c4 1188 	str.w	r1, [r4, #392]	; 0x188
  407b68:	f8c5 9108 	str.w	r9, [r5, #264]	; 0x108
  407b6c:	d01e      	beq.n	407bac <__register_exitproc+0x7c>
  407b6e:	3002      	adds	r0, #2
  407b70:	6063      	str	r3, [r4, #4]
  407b72:	f844 8020 	str.w	r8, [r4, r0, lsl #2]
  407b76:	2000      	movs	r0, #0
  407b78:	e8bd 87f0 	ldmia.w	sp!, {r4, r5, r6, r7, r8, r9, sl, pc}
  407b7c:	4b14      	ldr	r3, [pc, #80]	; (407bd0 <__register_exitproc+0xa0>)
  407b7e:	b303      	cbz	r3, 407bc2 <__register_exitproc+0x92>
  407b80:	f44f 70c8 	mov.w	r0, #400	; 0x190
  407b84:	f7fc fdaa 	bl	4046dc <malloc>
  407b88:	4604      	mov	r4, r0
  407b8a:	b1d0      	cbz	r0, 407bc2 <__register_exitproc+0x92>
  407b8c:	f8d5 3148 	ldr.w	r3, [r5, #328]	; 0x148
  407b90:	2700      	movs	r7, #0
  407b92:	e880 0088 	stmia.w	r0, {r3, r7}
  407b96:	f8c5 4148 	str.w	r4, [r5, #328]	; 0x148
  407b9a:	4638      	mov	r0, r7
  407b9c:	2301      	movs	r3, #1
  407b9e:	f8c4 7188 	str.w	r7, [r4, #392]	; 0x188
  407ba2:	f8c4 718c 	str.w	r7, [r4, #396]	; 0x18c
  407ba6:	2e00      	cmp	r6, #0
  407ba8:	d0e1      	beq.n	407b6e <__register_exitproc+0x3e>
  407baa:	e7d1      	b.n	407b50 <__register_exitproc+0x20>
  407bac:	f8d4 118c 	ldr.w	r1, [r4, #396]	; 0x18c
  407bb0:	430a      	orrs	r2, r1
  407bb2:	f8c4 218c 	str.w	r2, [r4, #396]	; 0x18c
  407bb6:	e7da      	b.n	407b6e <__register_exitproc+0x3e>
  407bb8:	f505 74a6 	add.w	r4, r5, #332	; 0x14c
  407bbc:	f8c5 4148 	str.w	r4, [r5, #328]	; 0x148
  407bc0:	e7c1      	b.n	407b46 <__register_exitproc+0x16>
  407bc2:	f04f 30ff 	mov.w	r0, #4294967295
  407bc6:	e8bd 87f0 	ldmia.w	sp!, {r4, r5, r6, r7, r8, r9, sl, pc}
  407bca:	bf00      	nop
  407bcc:	00409324 	.word	0x00409324
  407bd0:	004046dd 	.word	0x004046dd

00407bd4 <_close_r>:
  407bd4:	b538      	push	{r3, r4, r5, lr}
  407bd6:	4c07      	ldr	r4, [pc, #28]	; (407bf4 <_close_r+0x20>)
  407bd8:	2300      	movs	r3, #0
  407bda:	4605      	mov	r5, r0
  407bdc:	4608      	mov	r0, r1
  407bde:	6023      	str	r3, [r4, #0]
  407be0:	f7fc f9a4 	bl	403f2c <_close>
  407be4:	1c43      	adds	r3, r0, #1
  407be6:	d000      	beq.n	407bea <_close_r+0x16>
  407be8:	bd38      	pop	{r3, r4, r5, pc}
  407bea:	6823      	ldr	r3, [r4, #0]
  407bec:	2b00      	cmp	r3, #0
  407bee:	d0fb      	beq.n	407be8 <_close_r+0x14>
  407bf0:	602b      	str	r3, [r5, #0]
  407bf2:	bd38      	pop	{r3, r4, r5, pc}
  407bf4:	20401014 	.word	0x20401014

00407bf8 <_fclose_r>:
  407bf8:	2900      	cmp	r1, #0
  407bfa:	d03d      	beq.n	407c78 <_fclose_r+0x80>
  407bfc:	b570      	push	{r4, r5, r6, lr}
  407bfe:	4605      	mov	r5, r0
  407c00:	460c      	mov	r4, r1
  407c02:	b108      	cbz	r0, 407c08 <_fclose_r+0x10>
  407c04:	6b83      	ldr	r3, [r0, #56]	; 0x38
  407c06:	b37b      	cbz	r3, 407c68 <_fclose_r+0x70>
  407c08:	f9b4 300c 	ldrsh.w	r3, [r4, #12]
  407c0c:	b90b      	cbnz	r3, 407c12 <_fclose_r+0x1a>
  407c0e:	2000      	movs	r0, #0
  407c10:	bd70      	pop	{r4, r5, r6, pc}
  407c12:	4621      	mov	r1, r4
  407c14:	4628      	mov	r0, r5
  407c16:	f7fe fdb1 	bl	40677c <__sflush_r>
  407c1a:	6ae3      	ldr	r3, [r4, #44]	; 0x2c
  407c1c:	4606      	mov	r6, r0
  407c1e:	b133      	cbz	r3, 407c2e <_fclose_r+0x36>
  407c20:	69e1      	ldr	r1, [r4, #28]
  407c22:	4628      	mov	r0, r5
  407c24:	4798      	blx	r3
  407c26:	2800      	cmp	r0, #0
  407c28:	bfb8      	it	lt
  407c2a:	f04f 36ff 	movlt.w	r6, #4294967295
  407c2e:	89a3      	ldrh	r3, [r4, #12]
  407c30:	061b      	lsls	r3, r3, #24
  407c32:	d41c      	bmi.n	407c6e <_fclose_r+0x76>
  407c34:	6b21      	ldr	r1, [r4, #48]	; 0x30
  407c36:	b141      	cbz	r1, 407c4a <_fclose_r+0x52>
  407c38:	f104 0340 	add.w	r3, r4, #64	; 0x40
  407c3c:	4299      	cmp	r1, r3
  407c3e:	d002      	beq.n	407c46 <_fclose_r+0x4e>
  407c40:	4628      	mov	r0, r5
  407c42:	f7fe ff9d 	bl	406b80 <_free_r>
  407c46:	2300      	movs	r3, #0
  407c48:	6323      	str	r3, [r4, #48]	; 0x30
  407c4a:	6c61      	ldr	r1, [r4, #68]	; 0x44
  407c4c:	b121      	cbz	r1, 407c58 <_fclose_r+0x60>
  407c4e:	4628      	mov	r0, r5
  407c50:	f7fe ff96 	bl	406b80 <_free_r>
  407c54:	2300      	movs	r3, #0
  407c56:	6463      	str	r3, [r4, #68]	; 0x44
  407c58:	f7fe fece 	bl	4069f8 <__sfp_lock_acquire>
  407c5c:	2300      	movs	r3, #0
  407c5e:	81a3      	strh	r3, [r4, #12]
  407c60:	f7fe fecc 	bl	4069fc <__sfp_lock_release>
  407c64:	4630      	mov	r0, r6
  407c66:	bd70      	pop	{r4, r5, r6, pc}
  407c68:	f7fe fec0 	bl	4069ec <__sinit>
  407c6c:	e7cc      	b.n	407c08 <_fclose_r+0x10>
  407c6e:	6921      	ldr	r1, [r4, #16]
  407c70:	4628      	mov	r0, r5
  407c72:	f7fe ff85 	bl	406b80 <_free_r>
  407c76:	e7dd      	b.n	407c34 <_fclose_r+0x3c>
  407c78:	2000      	movs	r0, #0
  407c7a:	4770      	bx	lr

00407c7c <_fstat_r>:
  407c7c:	b538      	push	{r3, r4, r5, lr}
  407c7e:	460b      	mov	r3, r1
  407c80:	4c07      	ldr	r4, [pc, #28]	; (407ca0 <_fstat_r+0x24>)
  407c82:	4605      	mov	r5, r0
  407c84:	4611      	mov	r1, r2
  407c86:	4618      	mov	r0, r3
  407c88:	2300      	movs	r3, #0
  407c8a:	6023      	str	r3, [r4, #0]
  407c8c:	f7fc f952 	bl	403f34 <_fstat>
  407c90:	1c43      	adds	r3, r0, #1
  407c92:	d000      	beq.n	407c96 <_fstat_r+0x1a>
  407c94:	bd38      	pop	{r3, r4, r5, pc}
  407c96:	6823      	ldr	r3, [r4, #0]
  407c98:	2b00      	cmp	r3, #0
  407c9a:	d0fb      	beq.n	407c94 <_fstat_r+0x18>
  407c9c:	602b      	str	r3, [r5, #0]
  407c9e:	bd38      	pop	{r3, r4, r5, pc}
  407ca0:	20401014 	.word	0x20401014

00407ca4 <_isatty_r>:
  407ca4:	b538      	push	{r3, r4, r5, lr}
  407ca6:	4c07      	ldr	r4, [pc, #28]	; (407cc4 <_isatty_r+0x20>)
  407ca8:	2300      	movs	r3, #0
  407caa:	4605      	mov	r5, r0
  407cac:	4608      	mov	r0, r1
  407cae:	6023      	str	r3, [r4, #0]
  407cb0:	f7fc f946 	bl	403f40 <_isatty>
  407cb4:	1c43      	adds	r3, r0, #1
  407cb6:	d000      	beq.n	407cba <_isatty_r+0x16>
  407cb8:	bd38      	pop	{r3, r4, r5, pc}
  407cba:	6823      	ldr	r3, [r4, #0]
  407cbc:	2b00      	cmp	r3, #0
  407cbe:	d0fb      	beq.n	407cb8 <_isatty_r+0x14>
  407cc0:	602b      	str	r3, [r5, #0]
  407cc2:	bd38      	pop	{r3, r4, r5, pc}
  407cc4:	20401014 	.word	0x20401014

00407cc8 <_lseek_r>:
  407cc8:	b570      	push	{r4, r5, r6, lr}
  407cca:	460d      	mov	r5, r1
  407ccc:	4c08      	ldr	r4, [pc, #32]	; (407cf0 <_lseek_r+0x28>)
  407cce:	4611      	mov	r1, r2
  407cd0:	4606      	mov	r6, r0
  407cd2:	461a      	mov	r2, r3
  407cd4:	4628      	mov	r0, r5
  407cd6:	2300      	movs	r3, #0
  407cd8:	6023      	str	r3, [r4, #0]
  407cda:	f7fc f933 	bl	403f44 <_lseek>
  407cde:	1c43      	adds	r3, r0, #1
  407ce0:	d000      	beq.n	407ce4 <_lseek_r+0x1c>
  407ce2:	bd70      	pop	{r4, r5, r6, pc}
  407ce4:	6823      	ldr	r3, [r4, #0]
  407ce6:	2b00      	cmp	r3, #0
  407ce8:	d0fb      	beq.n	407ce2 <_lseek_r+0x1a>
  407cea:	6033      	str	r3, [r6, #0]
  407cec:	bd70      	pop	{r4, r5, r6, pc}
  407cee:	bf00      	nop
  407cf0:	20401014 	.word	0x20401014

00407cf4 <_read_r>:
  407cf4:	b570      	push	{r4, r5, r6, lr}
  407cf6:	460d      	mov	r5, r1
  407cf8:	4c08      	ldr	r4, [pc, #32]	; (407d1c <_read_r+0x28>)
  407cfa:	4611      	mov	r1, r2
  407cfc:	4606      	mov	r6, r0
  407cfe:	461a      	mov	r2, r3
  407d00:	4628      	mov	r0, r5
  407d02:	2300      	movs	r3, #0
  407d04:	6023      	str	r3, [r4, #0]
  407d06:	f7fb fa9b 	bl	403240 <_read>
  407d0a:	1c43      	adds	r3, r0, #1
  407d0c:	d000      	beq.n	407d10 <_read_r+0x1c>
  407d0e:	bd70      	pop	{r4, r5, r6, pc}
  407d10:	6823      	ldr	r3, [r4, #0]
  407d12:	2b00      	cmp	r3, #0
  407d14:	d0fb      	beq.n	407d0e <_read_r+0x1a>
  407d16:	6033      	str	r3, [r6, #0]
  407d18:	bd70      	pop	{r4, r5, r6, pc}
  407d1a:	bf00      	nop
  407d1c:	20401014 	.word	0x20401014

00407d20 <__aeabi_uldivmod>:
  407d20:	b953      	cbnz	r3, 407d38 <__aeabi_uldivmod+0x18>
  407d22:	b94a      	cbnz	r2, 407d38 <__aeabi_uldivmod+0x18>
  407d24:	2900      	cmp	r1, #0
  407d26:	bf08      	it	eq
  407d28:	2800      	cmpeq	r0, #0
  407d2a:	bf1c      	itt	ne
  407d2c:	f04f 31ff 	movne.w	r1, #4294967295
  407d30:	f04f 30ff 	movne.w	r0, #4294967295
  407d34:	f000 b97e 	b.w	408034 <__aeabi_idiv0>
  407d38:	f1ad 0c08 	sub.w	ip, sp, #8
  407d3c:	e96d ce04 	strd	ip, lr, [sp, #-16]!
  407d40:	f000 f806 	bl	407d50 <__udivmoddi4>
  407d44:	f8dd e004 	ldr.w	lr, [sp, #4]
  407d48:	e9dd 2302 	ldrd	r2, r3, [sp, #8]
  407d4c:	b004      	add	sp, #16
  407d4e:	4770      	bx	lr

00407d50 <__udivmoddi4>:
  407d50:	e92d 47f0 	stmdb	sp!, {r4, r5, r6, r7, r8, r9, sl, lr}
  407d54:	468c      	mov	ip, r1
  407d56:	460e      	mov	r6, r1
  407d58:	4604      	mov	r4, r0
  407d5a:	9d08      	ldr	r5, [sp, #32]
  407d5c:	2b00      	cmp	r3, #0
  407d5e:	d150      	bne.n	407e02 <__udivmoddi4+0xb2>
  407d60:	428a      	cmp	r2, r1
  407d62:	4617      	mov	r7, r2
  407d64:	d96c      	bls.n	407e40 <__udivmoddi4+0xf0>
  407d66:	fab2 fe82 	clz	lr, r2
  407d6a:	f1be 0f00 	cmp.w	lr, #0
  407d6e:	d00b      	beq.n	407d88 <__udivmoddi4+0x38>
  407d70:	f1ce 0420 	rsb	r4, lr, #32
  407d74:	fa20 f404 	lsr.w	r4, r0, r4
  407d78:	fa01 f60e 	lsl.w	r6, r1, lr
  407d7c:	ea44 0c06 	orr.w	ip, r4, r6
  407d80:	fa02 f70e 	lsl.w	r7, r2, lr
  407d84:	fa00 f40e 	lsl.w	r4, r0, lr
  407d88:	ea4f 4917 	mov.w	r9, r7, lsr #16
  407d8c:	0c22      	lsrs	r2, r4, #16
  407d8e:	fbbc f0f9 	udiv	r0, ip, r9
  407d92:	fa1f f887 	uxth.w	r8, r7
  407d96:	fb09 c610 	mls	r6, r9, r0, ip
  407d9a:	ea42 4606 	orr.w	r6, r2, r6, lsl #16
  407d9e:	fb00 f308 	mul.w	r3, r0, r8
  407da2:	42b3      	cmp	r3, r6
  407da4:	d909      	bls.n	407dba <__udivmoddi4+0x6a>
  407da6:	19f6      	adds	r6, r6, r7
  407da8:	f100 32ff 	add.w	r2, r0, #4294967295
  407dac:	f080 8122 	bcs.w	407ff4 <__udivmoddi4+0x2a4>
  407db0:	42b3      	cmp	r3, r6
  407db2:	f240 811f 	bls.w	407ff4 <__udivmoddi4+0x2a4>
  407db6:	3802      	subs	r0, #2
  407db8:	443e      	add	r6, r7
  407dba:	1af6      	subs	r6, r6, r3
  407dbc:	b2a2      	uxth	r2, r4
  407dbe:	fbb6 f3f9 	udiv	r3, r6, r9
  407dc2:	fb09 6613 	mls	r6, r9, r3, r6
  407dc6:	ea42 4406 	orr.w	r4, r2, r6, lsl #16
  407dca:	fb03 f808 	mul.w	r8, r3, r8
  407dce:	45a0      	cmp	r8, r4
  407dd0:	d909      	bls.n	407de6 <__udivmoddi4+0x96>
  407dd2:	19e4      	adds	r4, r4, r7
  407dd4:	f103 32ff 	add.w	r2, r3, #4294967295
  407dd8:	f080 810a 	bcs.w	407ff0 <__udivmoddi4+0x2a0>
  407ddc:	45a0      	cmp	r8, r4
  407dde:	f240 8107 	bls.w	407ff0 <__udivmoddi4+0x2a0>
  407de2:	3b02      	subs	r3, #2
  407de4:	443c      	add	r4, r7
  407de6:	ebc8 0404 	rsb	r4, r8, r4
  407dea:	ea43 4000 	orr.w	r0, r3, r0, lsl #16
  407dee:	2100      	movs	r1, #0
  407df0:	2d00      	cmp	r5, #0
  407df2:	d062      	beq.n	407eba <__udivmoddi4+0x16a>
  407df4:	fa24 f40e 	lsr.w	r4, r4, lr
  407df8:	2300      	movs	r3, #0
  407dfa:	602c      	str	r4, [r5, #0]
  407dfc:	606b      	str	r3, [r5, #4]
  407dfe:	e8bd 87f0 	ldmia.w	sp!, {r4, r5, r6, r7, r8, r9, sl, pc}
  407e02:	428b      	cmp	r3, r1
  407e04:	d907      	bls.n	407e16 <__udivmoddi4+0xc6>
  407e06:	2d00      	cmp	r5, #0
  407e08:	d055      	beq.n	407eb6 <__udivmoddi4+0x166>
  407e0a:	2100      	movs	r1, #0
  407e0c:	e885 0041 	stmia.w	r5, {r0, r6}
  407e10:	4608      	mov	r0, r1
  407e12:	e8bd 87f0 	ldmia.w	sp!, {r4, r5, r6, r7, r8, r9, sl, pc}
  407e16:	fab3 f183 	clz	r1, r3
  407e1a:	2900      	cmp	r1, #0
  407e1c:	f040 8090 	bne.w	407f40 <__udivmoddi4+0x1f0>
  407e20:	42b3      	cmp	r3, r6
  407e22:	d302      	bcc.n	407e2a <__udivmoddi4+0xda>
  407e24:	4282      	cmp	r2, r0
  407e26:	f200 80f8 	bhi.w	40801a <__udivmoddi4+0x2ca>
  407e2a:	1a84      	subs	r4, r0, r2
  407e2c:	eb66 0603 	sbc.w	r6, r6, r3
  407e30:	2001      	movs	r0, #1
  407e32:	46b4      	mov	ip, r6
  407e34:	2d00      	cmp	r5, #0
  407e36:	d040      	beq.n	407eba <__udivmoddi4+0x16a>
  407e38:	e885 1010 	stmia.w	r5, {r4, ip}
  407e3c:	e8bd 87f0 	ldmia.w	sp!, {r4, r5, r6, r7, r8, r9, sl, pc}
  407e40:	b912      	cbnz	r2, 407e48 <__udivmoddi4+0xf8>
  407e42:	2701      	movs	r7, #1
  407e44:	fbb7 f7f2 	udiv	r7, r7, r2
  407e48:	fab7 fe87 	clz	lr, r7
  407e4c:	f1be 0f00 	cmp.w	lr, #0
  407e50:	d135      	bne.n	407ebe <__udivmoddi4+0x16e>
  407e52:	1bf3      	subs	r3, r6, r7
  407e54:	ea4f 4817 	mov.w	r8, r7, lsr #16
  407e58:	fa1f fc87 	uxth.w	ip, r7
  407e5c:	2101      	movs	r1, #1
  407e5e:	fbb3 f0f8 	udiv	r0, r3, r8
  407e62:	0c22      	lsrs	r2, r4, #16
  407e64:	fb08 3610 	mls	r6, r8, r0, r3
  407e68:	ea42 4606 	orr.w	r6, r2, r6, lsl #16
  407e6c:	fb0c f300 	mul.w	r3, ip, r0
  407e70:	42b3      	cmp	r3, r6
  407e72:	d907      	bls.n	407e84 <__udivmoddi4+0x134>
  407e74:	19f6      	adds	r6, r6, r7
  407e76:	f100 32ff 	add.w	r2, r0, #4294967295
  407e7a:	d202      	bcs.n	407e82 <__udivmoddi4+0x132>
  407e7c:	42b3      	cmp	r3, r6
  407e7e:	f200 80ce 	bhi.w	40801e <__udivmoddi4+0x2ce>
  407e82:	4610      	mov	r0, r2
  407e84:	1af6      	subs	r6, r6, r3
  407e86:	b2a2      	uxth	r2, r4
  407e88:	fbb6 f3f8 	udiv	r3, r6, r8
  407e8c:	fb08 6613 	mls	r6, r8, r3, r6
  407e90:	ea42 4406 	orr.w	r4, r2, r6, lsl #16
  407e94:	fb0c fc03 	mul.w	ip, ip, r3
  407e98:	45a4      	cmp	ip, r4
  407e9a:	d907      	bls.n	407eac <__udivmoddi4+0x15c>
  407e9c:	19e4      	adds	r4, r4, r7
  407e9e:	f103 32ff 	add.w	r2, r3, #4294967295
  407ea2:	d202      	bcs.n	407eaa <__udivmoddi4+0x15a>
  407ea4:	45a4      	cmp	ip, r4
  407ea6:	f200 80b5 	bhi.w	408014 <__udivmoddi4+0x2c4>
  407eaa:	4613      	mov	r3, r2
  407eac:	ebcc 0404 	rsb	r4, ip, r4
  407eb0:	ea43 4000 	orr.w	r0, r3, r0, lsl #16
  407eb4:	e79c      	b.n	407df0 <__udivmoddi4+0xa0>
  407eb6:	4629      	mov	r1, r5
  407eb8:	4628      	mov	r0, r5
  407eba:	e8bd 87f0 	ldmia.w	sp!, {r4, r5, r6, r7, r8, r9, sl, pc}
  407ebe:	f1ce 0120 	rsb	r1, lr, #32
  407ec2:	fa06 f30e 	lsl.w	r3, r6, lr
  407ec6:	fa07 f70e 	lsl.w	r7, r7, lr
  407eca:	fa20 f901 	lsr.w	r9, r0, r1
  407ece:	ea4f 4817 	mov.w	r8, r7, lsr #16
  407ed2:	40ce      	lsrs	r6, r1
  407ed4:	ea49 0903 	orr.w	r9, r9, r3
  407ed8:	fbb6 faf8 	udiv	sl, r6, r8
  407edc:	ea4f 4419 	mov.w	r4, r9, lsr #16
  407ee0:	fb08 661a 	mls	r6, r8, sl, r6
  407ee4:	fa1f fc87 	uxth.w	ip, r7
  407ee8:	ea44 4306 	orr.w	r3, r4, r6, lsl #16
  407eec:	fb0a f20c 	mul.w	r2, sl, ip
  407ef0:	429a      	cmp	r2, r3
  407ef2:	fa00 f40e 	lsl.w	r4, r0, lr
  407ef6:	d90a      	bls.n	407f0e <__udivmoddi4+0x1be>
  407ef8:	19db      	adds	r3, r3, r7
  407efa:	f10a 31ff 	add.w	r1, sl, #4294967295
  407efe:	f080 8087 	bcs.w	408010 <__udivmoddi4+0x2c0>
  407f02:	429a      	cmp	r2, r3
  407f04:	f240 8084 	bls.w	408010 <__udivmoddi4+0x2c0>
  407f08:	f1aa 0a02 	sub.w	sl, sl, #2
  407f0c:	443b      	add	r3, r7
  407f0e:	1a9b      	subs	r3, r3, r2
  407f10:	fa1f f989 	uxth.w	r9, r9
  407f14:	fbb3 f1f8 	udiv	r1, r3, r8
  407f18:	fb08 3311 	mls	r3, r8, r1, r3
  407f1c:	ea49 4303 	orr.w	r3, r9, r3, lsl #16
  407f20:	fb01 f60c 	mul.w	r6, r1, ip
  407f24:	429e      	cmp	r6, r3
  407f26:	d907      	bls.n	407f38 <__udivmoddi4+0x1e8>
  407f28:	19db      	adds	r3, r3, r7
  407f2a:	f101 32ff 	add.w	r2, r1, #4294967295
  407f2e:	d26b      	bcs.n	408008 <__udivmoddi4+0x2b8>
  407f30:	429e      	cmp	r6, r3
  407f32:	d969      	bls.n	408008 <__udivmoddi4+0x2b8>
  407f34:	3902      	subs	r1, #2
  407f36:	443b      	add	r3, r7
  407f38:	1b9b      	subs	r3, r3, r6
  407f3a:	ea41 410a 	orr.w	r1, r1, sl, lsl #16
  407f3e:	e78e      	b.n	407e5e <__udivmoddi4+0x10e>
  407f40:	f1c1 0e20 	rsb	lr, r1, #32
  407f44:	fa22 f40e 	lsr.w	r4, r2, lr
  407f48:	408b      	lsls	r3, r1
  407f4a:	4323      	orrs	r3, r4
  407f4c:	fa20 f70e 	lsr.w	r7, r0, lr
  407f50:	fa06 f401 	lsl.w	r4, r6, r1
  407f54:	ea4f 4c13 	mov.w	ip, r3, lsr #16
  407f58:	fa26 f60e 	lsr.w	r6, r6, lr
  407f5c:	433c      	orrs	r4, r7
  407f5e:	fbb6 f9fc 	udiv	r9, r6, ip
  407f62:	0c27      	lsrs	r7, r4, #16
  407f64:	fb0c 6619 	mls	r6, ip, r9, r6
  407f68:	fa1f f883 	uxth.w	r8, r3
  407f6c:	ea47 4606 	orr.w	r6, r7, r6, lsl #16
  407f70:	fb09 f708 	mul.w	r7, r9, r8
  407f74:	42b7      	cmp	r7, r6
  407f76:	fa02 f201 	lsl.w	r2, r2, r1
  407f7a:	fa00 fa01 	lsl.w	sl, r0, r1
  407f7e:	d908      	bls.n	407f92 <__udivmoddi4+0x242>
  407f80:	18f6      	adds	r6, r6, r3
  407f82:	f109 30ff 	add.w	r0, r9, #4294967295
  407f86:	d241      	bcs.n	40800c <__udivmoddi4+0x2bc>
  407f88:	42b7      	cmp	r7, r6
  407f8a:	d93f      	bls.n	40800c <__udivmoddi4+0x2bc>
  407f8c:	f1a9 0902 	sub.w	r9, r9, #2
  407f90:	441e      	add	r6, r3
  407f92:	1bf6      	subs	r6, r6, r7
  407f94:	b2a0      	uxth	r0, r4
  407f96:	fbb6 f4fc 	udiv	r4, r6, ip
  407f9a:	fb0c 6614 	mls	r6, ip, r4, r6
  407f9e:	ea40 4706 	orr.w	r7, r0, r6, lsl #16
  407fa2:	fb04 f808 	mul.w	r8, r4, r8
  407fa6:	45b8      	cmp	r8, r7
  407fa8:	d907      	bls.n	407fba <__udivmoddi4+0x26a>
  407faa:	18ff      	adds	r7, r7, r3
  407fac:	f104 30ff 	add.w	r0, r4, #4294967295
  407fb0:	d228      	bcs.n	408004 <__udivmoddi4+0x2b4>
  407fb2:	45b8      	cmp	r8, r7
  407fb4:	d926      	bls.n	408004 <__udivmoddi4+0x2b4>
  407fb6:	3c02      	subs	r4, #2
  407fb8:	441f      	add	r7, r3
  407fba:	ea44 4009 	orr.w	r0, r4, r9, lsl #16
  407fbe:	ebc8 0707 	rsb	r7, r8, r7
  407fc2:	fba0 8902 	umull	r8, r9, r0, r2
  407fc6:	454f      	cmp	r7, r9
  407fc8:	4644      	mov	r4, r8
  407fca:	464e      	mov	r6, r9
  407fcc:	d314      	bcc.n	407ff8 <__udivmoddi4+0x2a8>
  407fce:	d029      	beq.n	408024 <__udivmoddi4+0x2d4>
  407fd0:	b365      	cbz	r5, 40802c <__udivmoddi4+0x2dc>
  407fd2:	ebba 0304 	subs.w	r3, sl, r4
  407fd6:	eb67 0706 	sbc.w	r7, r7, r6
  407fda:	fa07 fe0e 	lsl.w	lr, r7, lr
  407fde:	40cb      	lsrs	r3, r1
  407fe0:	40cf      	lsrs	r7, r1
  407fe2:	ea4e 0303 	orr.w	r3, lr, r3
  407fe6:	e885 0088 	stmia.w	r5, {r3, r7}
  407fea:	2100      	movs	r1, #0
  407fec:	e8bd 87f0 	ldmia.w	sp!, {r4, r5, r6, r7, r8, r9, sl, pc}
  407ff0:	4613      	mov	r3, r2
  407ff2:	e6f8      	b.n	407de6 <__udivmoddi4+0x96>
  407ff4:	4610      	mov	r0, r2
  407ff6:	e6e0      	b.n	407dba <__udivmoddi4+0x6a>
  407ff8:	ebb8 0402 	subs.w	r4, r8, r2
  407ffc:	eb69 0603 	sbc.w	r6, r9, r3
  408000:	3801      	subs	r0, #1
  408002:	e7e5      	b.n	407fd0 <__udivmoddi4+0x280>
  408004:	4604      	mov	r4, r0
  408006:	e7d8      	b.n	407fba <__udivmoddi4+0x26a>
  408008:	4611      	mov	r1, r2
  40800a:	e795      	b.n	407f38 <__udivmoddi4+0x1e8>
  40800c:	4681      	mov	r9, r0
  40800e:	e7c0      	b.n	407f92 <__udivmoddi4+0x242>
  408010:	468a      	mov	sl, r1
  408012:	e77c      	b.n	407f0e <__udivmoddi4+0x1be>
  408014:	3b02      	subs	r3, #2
  408016:	443c      	add	r4, r7
  408018:	e748      	b.n	407eac <__udivmoddi4+0x15c>
  40801a:	4608      	mov	r0, r1
  40801c:	e70a      	b.n	407e34 <__udivmoddi4+0xe4>
  40801e:	3802      	subs	r0, #2
  408020:	443e      	add	r6, r7
  408022:	e72f      	b.n	407e84 <__udivmoddi4+0x134>
  408024:	45c2      	cmp	sl, r8
  408026:	d3e7      	bcc.n	407ff8 <__udivmoddi4+0x2a8>
  408028:	463e      	mov	r6, r7
  40802a:	e7d1      	b.n	407fd0 <__udivmoddi4+0x280>
  40802c:	4629      	mov	r1, r5
  40802e:	e8bd 87f0 	ldmia.w	sp!, {r4, r5, r6, r7, r8, r9, sl, pc}
  408032:	bf00      	nop

00408034 <__aeabi_idiv0>:
  408034:	4770      	bx	lr
  408036:	bf00      	nop
  408038:	2044454c 	.word	0x2044454c
  40803c:	00004e4f 	.word	0x00004e4f
  408040:	0a207325 	.word	0x0a207325
  408044:	00000000 	.word	0x00000000
  408048:	2044454c 	.word	0x2044454c
  40804c:	0046464f 	.word	0x0046464f
  408050:	74736554 	.word	0x74736554
  408054:	6f432065 	.word	0x6f432065
  408058:	0000006d 	.word	0x0000006d
  40805c:	0a204b4f 	.word	0x0a204b4f
  408060:	00000000 	.word	0x00000000
  408064:	61726f68 	.word	0x61726f68
  408068:	0000003a 	.word	0x0000003a
  40806c:	65666143 	.word	0x65666143
  408070:	69726574 	.word	0x69726574
  408074:	4e4f2061 	.word	0x4e4f2061
  408078:	00000000 	.word	0x00000000
  40807c:	65666143 	.word	0x65666143
  408080:	69726574 	.word	0x69726574
  408084:	464f2061 	.word	0x464f2061
  408088:	00000046 	.word	0x00000046
  40808c:	7a7a7542 	.word	0x7a7a7542
  408090:	4f207265 	.word	0x4f207265
  408094:	0000004e 	.word	0x0000004e
  408098:	7a7a7542 	.word	0x7a7a7542
  40809c:	4f207265 	.word	0x4f207265
  4080a0:	00004646 	.word	0x00004646
  4080a4:	72616c41 	.word	0x72616c41
  4080a8:	6573206d 	.word	0x6573206d
  4080ac:	6f742074 	.word	0x6f742074
  4080b0:	2e25203a 	.word	0x2e25203a
  4080b4:	64686832 	.word	0x64686832
  4080b8:	322e253a 	.word	0x322e253a
  4080bc:	0a646868 	.word	0x0a646868
  4080c0:	00000000 	.word	0x00000000
  4080c4:	72727543 	.word	0x72727543
  4080c8:	20746e65 	.word	0x20746e65
  4080cc:	656d6974 	.word	0x656d6974
  4080d0:	2e25203a 	.word	0x2e25203a
  4080d4:	64686832 	.word	0x64686832
  4080d8:	322e253a 	.word	0x322e253a
  4080dc:	0a646868 	.word	0x0a646868
  4080e0:	00000000 	.word	0x00000000
  4080e4:	20435452 	.word	0x20435452
  4080e8:	72616c61 	.word	0x72616c61
  4080ec:	6573206d 	.word	0x6573206d
  4080f0:	72652074 	.word	0x72652074
  4080f4:	00726f72 	.word	0x00726f72

004080f8 <__FUNCTION__.9746>:
  4080f8:	625f6d6e 695f7375 6c74636f 00000000     nm_bus_ioctl....
  408108:	50504128 52452829 255b2952 255b5d73     (APP)(ERR)[%s][%
  408118:	00005d64 61766e49 2064696c 54434f49     d]..Invalid IOCT
  408128:	6f63204c 6e616d6d 000a2164 0000000d     L command!......

00408138 <__FUNCTION__.8784>:
  408138:	5f666968 00727369                       hif_isr.

00408140 <__FUNCTION__.8805>:
  408140:	5f666968 65636572 00657669 46494828     hif_receive.(HIF
  408150:	69614629 6f74206c 6b617720 74207075     )Fail to wakup t
  408160:	63206568 0a706968 00000000 66696828     he chip.....(hif
  408170:	49572029 485f4946 5f54534f 5f564352     ) WIFI_HOST_RCV_
  408180:	4c525443 6220315f 66207375 0a6c6961     CTRL_1 bus fail.
  408190:	00000000 66696828 64612029 73657264     ....(hif) addres
  4081a0:	75622073 61662073 000a6c69 66696828     s bus fail..(hif
  4081b0:	6f432029 70757272 20646574 6b636170     ) Corrupted pack
  4081c0:	53207465 20657a69 7525203d 204c3c20     et Size = %u <L 
  4081d0:	7525203d 2047202c 7525203d 504f202c     = %u, G = %u, OP
  4081e0:	25203d20 3e583230 0000000a 66696828      = %02X>....(hif
  4081f0:	6e692029 696c6176 72672064 2070756f     ) invalid group 
  408200:	000a4449 66696828 6f682029 61207473     ID..(hif) host a
  408210:	64207070 276e6469 65732074 58522074     pp didn't set RX
  408220:	6e6f4420 00000a65 66696828 72572029      Done...(hif) Wr
  408230:	20676e6f 657a6953 0000000a 66696828     ong Size....(hif
  408240:	61462029 2065736c 65746e69 70757272     ) False interrup
  408250:	6c252074 00000078 66696828 61462029     t %lx...(hif) Fa
  408260:	74206c69 6552206f 69206461 7265746e     il to Read inter
  408270:	74707572 67657220 0000000a 66696828     rupt reg....(hif
  408280:	41462029 74204c49 6177206f 7075656b     ) FAIL to wakeup
  408290:	65687420 69686320 00000a70 46494828      the chip...(HIF
  4082a0:	61462029 74206c69 6168206f 656c646e     ) Fail to handle
  4082b0:	746e6920 75727265 25207470 72742064      interrupt %d tr
  4082c0:	67412079 2e6e6961 00000a2e 66696820     y Again..... hif
  4082d0:	6365725f 65766965 6e49203a 696c6176     _receive: Invali
  4082e0:	72612064 656d7567 000a746e 20505041     d argument..APP 
  4082f0:	75716552 65747365 69532064 6920657a     Requested Size i
  408300:	616c2073 72656772 61687420 6874206e     s larger than th
  408310:	65722065 65766963 75622064 72656666     e recived buffer
  408320:	7a697320 253c2065 253c3e64 000a3e64      size <%d><%d>..
  408330:	20505041 75716552 65747365 64412064     APP Requested Ad
  408340:	73657264 65622073 646e6f79 65687420     dress beyond the
  408350:	63657220 64657669 66756220 20726566      recived buffer 
  408360:	72646461 20737365 20646e61 676e656c     address and leng
  408370:	000a6874 20705247 6425203f 0000000a     th..GRp ? %d....

00408380 <__FUNCTION__.8820>:
  408380:	5f666968 69676572 72657473 0062635f     hif_register_cb.

00408390 <__FUNCTION__.8774>:
  408390:	5f666968 646e6573 00000000              hif_send....

0040839c <__FUNCTION__.8790>:
  40839c:	5f666968 646e6168 695f656c 00007273     hif_handle_isr..

004083ac <__FUNCTION__.8799>:
  4083ac:	5f6d326d 69666977 6e6f635f 7463656e     m2m_wifi_connect
  4083bc:	0063735f                                _sc.

004083c0 <__FUNCTION__.8747>:
  4083c0:	5f6d326d 69666977 0062635f 50504128     m2m_wifi_cb.(APP
  4083d0:	4e492829 00294f46 666e6f43 7463696c     )(INFO).Conflict
  4083e0:	49206465 20222050 252e7525 75252e75     ed IP " %u.%u.%u
  4083f0:	2075252e 000a2022 20514552 20746f4e     .%u " ..REQ Not 
  408400:	69666564 2064656e 000a6425 41564e49     defined %d..INVA
  408410:	2044494c 4e494f50 0a524554 00000000     LID POINTER.....
  408420:	41564e49 2044494c 44495353 0000000a     INVALID SSID....
  408430:	41564e49 2044494c 000a4843 41564e49     INVALID CH..INVA
  408440:	2044494c 50434844 52455320 20524556     LID DHCP SERVER 
  408450:	000a5049 41564e49 2044494c 2059454b     IP..INVALID KEY 
  408460:	45444e49 00000a58 41564e49 2044494c     INDEX...INVALID 
  408470:	2059454b 455a4953 0000000a 41564e49     KEY SIZE....INVA
  408480:	2044494c 20504557 0a59454b 00000000     LID WEP KEY.....
  408490:	41564e49 2044494c 48545541 49544e45     INVALID AUTHENTI
  4084a0:	49544143 4d204e4f 0a45444f 00000000     CATION MODE.....
  4084b0:	6d726946 65726177 72657620 3a202020     Firmware ver   :
  4084c0:	2e752520 252e7525 00000a75 206e694d      %u.%u.%u...Min 
  4084d0:	76697264 76207265 3a207265 2e752520     driver ver : %u.
  4084e0:	252e7525 00000a75 72727543 69726420     %u.%u...Curr dri
  4084f0:	20726576 3a726576 2e752520 252e7525     ver ver: %u.%u.%
  408500:	00000a75 6d73694d 68637461 72694620     u...Mismatch Fir
  408510:	7277616d 65562065 6f697372 00000a6e     mawre Version...
  408520:	2079654b 6e207369 7620746f 64696c61     Key is not valid
  408530:	0000000a 61766e49 2064696c 0a79654b     ....Invalid Key.
  408540:	00000000 44495353 4e454c20 564e4920     ....SSID LEN INV
  408550:	44494c41 0000000a 49204843 4c41564e     ALID....CH INVAL
  408560:	000a4449 61766e49 2064696c 20706557     ID..Invalid Wep 
  408570:	2079656b 65646e69 64252078 0000000a     key index %d....
  408580:	61766e49 2064696c 20706557 2079656b     Invalid Wep key 
  408590:	676e656c 25206874 00000a64 6f636e49     length %d...Inco
  4085a0:	63657272 53502074 656b204b 656c2079     rrect PSK key le
  4085b0:	6874676e 0000000a 65646e75 656e6966     ngth....undefine
  4085c0:	65732064 79742063 000a6570 41564e49     d sec type..INVA
  4085d0:	2044494c 6f206f4e 63732066 73206e61     LID No of scan s
  4085e0:	73746f6c 00000a21 41564e49 2044494c     lots!...INVALID 
  4085f0:	6e616373 6f6c7320 69742074 0a21656d     scan slot time!.
  408600:	00000000 41564e49 2044494c 6f206f4e     ....INVALID No o
  408610:	72702066 2065626f 75716572 73747365     f probe requests
  408620:	72657020 61637320 6c73206e 000a746f      per scan slot..
  408630:	41564e49 2044494c 49535352 72687420     INVALID RSSI thr
  408640:	6f687365 2520646c 000a2064 5f53505f     eshold %d .._PS_
  408650:	56524553 205f5245 6e207369 6420746f     SERVER_ is not d
  408660:	6e696665 000a6465 7473694c 63206e65     efined..Listen c
  408670:	6e6e6168 73206c65 6c756f68 6e6f2064     hannel should on
  408680:	6220796c 2c312065 6f203620 31312072     ly be 1, 6 or 11
  408690:	0000000a 45574f50 41532052 25204556     ....POWER SAVE %
  4086a0:	00000a64 41564e49 2044494c 414d4f44     d...INVALID DOMA
  4086b0:	4e204e49 0a454d41 00000000 474e5250     IN NAME.....PRNG
  4086c0:	66754220 20726566 65637865 64656465      Buffer exceeded
  4086d0:	78616d20 6d756d69 7a697320 64252065      maximum size %d
  4086e0:	20726f20 4c4c554e 66754220 0a726566      or NULL Buffer.
  4086f0:	00000000                                ....

004086f4 <__FUNCTION__.8771>:
  4086f4:	5f6d326d 69666977 696e695f 00000074     m2m_wifi_init...

00408704 <__FUNCTION__.8678>:
  408704:	70696863 6965645f 0074696e              chip_deinit.

00408710 <__FUNCTION__.8584>:
  408710:	635f6d6e 656c6b6c 775f7373 00656b61     nm_clkless_wake.
  408720:	20737542 6f727265 31282072 57202e29     Bus error (1). W
  408730:	20656b61 66207075 656c6961 00000a64     ake up failed...
  408740:	20737542 6f727265 32282072 57202e29     Bus error (2). W
  408750:	20656b61 66207075 656c6961 00000a64     ake up failed...
  408760:	636f6c63 7320736b 6c6c6974 46464f20     clocks still OFF
  408770:	6157202e 7520656b 61662070 64656c69     . Wake up failed
  408780:	0000000a 696d6e5b 61747320 3a5d7472     ....[nmi start]:
  408790:	69616620 6572206c 72206461 30206765      fail read reg 0
  4087a0:	31313178 2e2e2038 00000a2e 3a676572     x1118 ......reg:
  4087b0:	2f207825 20782520 0000000a 6c696166     %x / %x ....fail
  4087c0:	74206465 6564206f 696e692d 6c616974     ed to de-initial
  4087d0:	0a657a69 00000000 6f727245 68772072     ize.....Error wh
  4087e0:	20656c69 74697277 20676e69 0a676572     ile writing reg.
  4087f0:	00000000 6f727245 68772072 20656c69     ....Error while 
  408800:	64616572 20676e69 0a676572 00000000     reading reg.....
  408810:	6c75705b 5f70756c 6c727463 66203a5d     [pullup_ctrl]: f
  408820:	656c6961 6f742064 61657220 00000a64     ailed to read...
  408830:	6c75705b 5f70756c 6c727463 66203a5d     [pullup_ctrl]: f
  408840:	656c6961 6f742064 69727720 000a6574     ailed to write..
  408850:	696d6e5b 61747320 3a5d7472 69616620     [nmi start]: fai
  408860:	6e69206c 62207469 000a7375 70696843     l init bus..Chip
  408870:	20444920 0a786c25 00000000 6c696166      ID %lx.....fail
  408880:	74206465 6e65206f 656c6261 746e6920     ed to enable int
  408890:	75727265 2e737470 00000a2e 696d6e5b     errupts.....[nmi
  4088a0:	6f747320 203a5d70 70696863 6965645f      stop]: chip_dei
  4088b0:	2074696e 6c696166 0000000a 696d6e5b     nit fail....[nmi
  4088c0:	6f747320 203a5d70 20495053 73616c66      stop]: SPI flas
  4088d0:	69642068 6c626173 61662065 000a6c69     h disable fail..
  4088e0:	696d6e5b 6f747320 203a5d70 6c696166     [nmi stop]: fail
  4088f0:	696e6920 75622074 00000a73               init bus...

004088fc <__FUNCTION__.8665>:
  4088fc:	645f6d6e 695f7672 0074696e              nm_drv_init.

00408908 <__FUNCTION__.8672>:
  408908:	645f6d6e 645f7672 696e6965 00000074     nm_drv_deinit...

00408918 <__FUNCTION__.8073>:
  408918:	5f697073 61746164 6165725f 00000064     spi_data_read...

00408928 <crc7_syndrome_table>:
  408928:	1b120900 3f362d24 535a4148 777e656c     ....$-6?HAZSle~w
  408938:	020b1019 262f343d 4a435851 6e677c75     ....=4/&QXCJu|gn
  408948:	29203b32 0d041f16 6168737a 454c575e     2; )....zsha^WLE
  408958:	3039222b 141d060f 78716a63 5c554e47     +"90....cjqxGNU\
  408968:	7f766d64 5b524940 373e252c 131a0108     dmv.@IR[,%>7....
  408978:	666f747d 424b5059 2e273c35 0a031811     }tofYPKB5<'.....
  408988:	4d445f56 69607b72 050c171e 2128333a     V_DMr{`i....:3(!
  408998:	545d464f 7079626b 1c150e07 38312a23     OF]Tkbyp....#*18
  4089a8:	5a534841 7e776c65 121b0009 363f242d     AHSZelw~....-$?6
  4089b8:	434a5158 676e757c 0b021910 2f263d34     XQJC|ung....4=&/
  4089c8:	68617a73 4c455e57 2029323b 040d161f     szahW^EL;2) ....
  4089d8:	7178636a 555c474e 39302b22 1d140f06     jcxqNG\U"+09....
  4089e8:	3e372c25 1a130801 767f646d 525b4049     %,7>....md.vI@[R
  4089f8:	272e353c 030a1118 6f667d74 4b425950     <5.'....t}foPYBK
  408a08:	0c051e17 28213a33 444d565f 6069727b     ....3:!(_VMD{ri`
  408a18:	151c070e 3138232a 5d544f46 79706b62     ....*#81FOT]bkpy

00408a28 <__FUNCTION__.8140>:
  408a28:	735f6d6e 695f6970 0074696e              nm_spi_init.

00408a34 <__FUNCTION__.8088>:
  408a34:	5f697073 61746164 6972775f 00006574     spi_data_write..

00408a44 <__FUNCTION__.8123>:
  408a44:	735f6d6e 725f6970 00646165 696d6e5b     nm_spi_read.[nmi
  408a54:	69707320 46203a5d 656c6961 6d632064      spi]: Failed cm
  408a64:	65722064 6e6f7073 72206573 2c646165     d response read,
  408a74:	73756220 72726520 2e2e726f 00000a2e      bus error......
  408a84:	696d6e5b 69707320 46203a5d 656c6961     [nmi spi]: Faile
  408a94:	61642064 72206174 6f707365 2065736e     d data response 
  408aa4:	64616572 7562202c 72652073 2e726f72     read, bus error.
  408ab4:	000a2e2e 696d6e5b 69707320 46203a5d     ....[nmi spi]: F
  408ac4:	656c6961 61642064 72206174 6f707365     ailed data respo
  408ad4:	2065736e 64616572 282e2e2e 78323025     nse read...(%02x
  408ae4:	00000a29 696d6e5b 69707320 46203a5d     )...[nmi spi]: F
  408af4:	656c6961 61642064 62206174 6b636f6c     ailed data block
  408b04:	61657220 62202c64 65207375 726f7272      read, bus error
  408b14:	0a2e2e2e 00000000 696d6e5b 69707320     ........[nmi spi
  408b24:	46203a5d 656c6961 61642064 62206174     ]: Failed data b
  408b34:	6b636f6c 63726320 61657220 62202c64     lock crc read, b
  408b44:	65207375 726f7272 0a2e2e2e 00000000     us error........
  408b54:	696d6e5b 69707320 46203a5d 656c6961     [nmi spi]: Faile
  408b64:	6d632064 72772064 2c657469 73756220     d cmd write, bus
  408b74:	72726520 2e2e726f 00000a2e 696d6e5b      error......[nmi
  408b84:	69707320 46203a5d 656c6961 6d632064      spi]: Failed cm
  408b94:	77202c64 65746972 67657220 30252820     d, write reg (%0
  408ba4:	2e297838 000a2e2e 696d6e5b 69707320     8x).....[nmi spi
  408bb4:	46203a5d 656c6961 6d632064 65722064     ]: Failed cmd re
  408bc4:	6e6f7073 202c6573 74697277 65722065     sponse, write re
  408bd4:	25282067 29783830 0a2e2e2e 00000000     g (%08x)........
  408be4:	696d6e5b 69707320 46203a5d 656c6961     [nmi spi]: Faile
  408bf4:	6d632064 72202c64 20646165 20676572     d cmd, read reg 
  408c04:	38302528 2e2e2978 00000a2e 696d6e5b     (%08x)......[nmi
  408c14:	69707320 46203a5d 656c6961 6d632064      spi]: Failed cm
  408c24:	65722064 6e6f7073 202c6573 64616572     d response, read
  408c34:	67657220 30252820 2e297838 000a2e2e      reg (%08x).....
  408c44:	696d6e5b 69707320 46203a5d 656c6961     [nmi spi]: Faile
  408c54:	61642064 72206174 2e646165 000a2e2e     d data read.....
  408c64:	696d6e5b 69707320 46203a5d 656c6961     [nmi spi]: Faile
  408c74:	6e692064 6e726574 72206c61 20646165     d internal read 
  408c84:	746f7270 6c6f636f 74697720 52432068     protocol with CR
  408c94:	6e6f2043 6572202c 69727974 7720676e     C on, retyring w
  408ca4:	20687469 20435243 2e66666f 000a2e2e     ith CRC off.....
  408cb4:	696d6e5b 69707320 46203a5d 656c6961     [nmi spi]: Faile
  408cc4:	6e692064 6e726574 72206c61 20646165     d internal read 
  408cd4:	746f7270 6c6f636f 0a2e2e2e 00000000     protocol........
  408ce4:	696d6e5b 69707320 46203a5d 656c6961     [nmi spi]: Faile
  408cf4:	6e692064 6e726574 77206c61 65746972     d internal write
  408d04:	6f727020 6f636f74 6572206c 2e2e2e67      protocol reg...
  408d14:	0000000a 696d6e5b 69707320 46203a5d     ....[nmi spi]: F
  408d24:	206c6961 20646d63 64616572 69686320     ail cmd read chi
  408d34:	64692070 0a2e2e2e 00000000 696d6e5b     p id........[nmi
  408d44:	69707320 46203a5d 656c6961 6d632064      spi]: Failed cm
  408d54:	72202c64 20646165 636f6c62 2528206b     d, read block (%
  408d64:	29783830 0a2e2e2e 00000000 696d6e5b     08x)........[nmi
  408d74:	69707320 46203a5d 656c6961 6d632064      spi]: Failed cm
  408d84:	65722064 6e6f7073 202c6573 64616572     d response, read
  408d94:	6f6c6220 28206b63 78383025 2e2e2e29      block (%08x)...
  408da4:	0000000a 696d6e5b 69707320 46203a5d     ....[nmi spi]: F
  408db4:	656c6961 6c622064 206b636f 61746164     ailed block data
  408dc4:	61657220 2e2e2e64 0000000a 696d6e5b      read.......[nmi
  408dd4:	69707320 46203a5d 656c6961 6d632064      spi]: Failed cm
  408de4:	77202c64 65746972 6f6c6220 28206b63     d, write block (
  408df4:	78383025 2e2e2e29 0000000a 696d6e5b     %08x).......[nmi
  408e04:	69707320 203a5d20 6c696146 63206465      spi ]: Failed c
  408e14:	7220646d 6f707365 2c65736e 69727720     md response, wri
  408e24:	62206574 6b636f6c 30252820 2e297838     te block (%08x).
  408e34:	000a2e2e 696d6e5b 69707320 46203a5d     ....[nmi spi]: F
  408e44:	656c6961 61642064 62206174 6b636f6c     ailed data block
  408e54:	646d6320 69727720 202c6574 20737562      cmd write, bus 
  408e64:	6f727265 2e2e2e72 0000000a 696d6e5b     error.......[nmi
  408e74:	69707320 46203a5d 656c6961 61642064      spi]: Failed da
  408e84:	62206174 6b636f6c 69727720 202c6574     ta block write, 
  408e94:	20737562 6f727265 2e2e2e72 0000000a     bus error.......
  408ea4:	696d6e5b 69707320 46203a5d 656c6961     [nmi spi]: Faile
  408eb4:	61642064 62206174 6b636f6c 63726320     d data block crc
  408ec4:	69727720 202c6574 20737562 6f727265      write, bus erro
  408ed4:	2e2e2e72 0000000a 696d6e5b 69707320     r.......[nmi spi
  408ee4:	46203a5d 656c6961 6c622064 206b636f     ]: Failed block 
  408ef4:	61746164 69727720 2e2e6574 00000a2e     data write......

00408f04 <__FUNCTION__.8098>:
  408f04:	5f697073 74697277 65725f65 00000067     spi_write_reg...

00408f14 <__FUNCTION__.8049>:
  408f14:	5f697073 00646d63                       spi_cmd.

00408f1c <__FUNCTION__.8106>:
  408f1c:	735f6d6e 775f6970 65746972 00000000     nm_spi_write....

00408f2c <__FUNCTION__.8057>:
  408f2c:	5f697073 5f646d63 00707372              spi_cmd_rsp.

00408f38 <__FUNCTION__.8115>:
  408f38:	5f697073 64616572 6765725f 00000000     spi_read_reg....
  408f48:	52524528 75432952 6e657272 253c2074     (ERRR)Current <%
  408f58:	000a3e64 20494e53 65637845 20736465     d>..SNI Exceeds 
  408f68:	2078614d 676e654c 000a6874 6e6b6e55     Max Length..Unkn
  408f78:	206e776f 204c5353 6b636f53 4f207465     own SSL Socket O
  408f88:	6f697470 6425206e 0000000a 20746f4e     ption %d....Not 
  408f98:	204c5353 6b636f53 000a7465 6b636f73     SSL Socket..sock
  408fa8:	635f7465 62203a62 20646e69 63637573     et_cb: bind succ
  408fb8:	21737365 00000a0d 6b636f73 635f7465     ess!....socket_c
  408fc8:	62203a62 20646e69 6f727265 0a0d2172     b: bind error!..
  408fd8:	00000000 6b636f73 635f7465 6c203a62     ....socket_cb: l
  408fe8:	65747369 7573206e 73656363 0a0d2173     isten success!..
  408ff8:	00000000 6b636f73 635f7465 6c203a62     ....socket_cb: l
  409008:	65747369 7265206e 21726f72 00000a0d     isten error!....
  409018:	6b636f73 635f7465 61203a62 70656363     socket_cb: accep
  409028:	75732074 73656363 0a0d2173 00000000     t success!......
  409038:	6b636f73 635f7465 61203a62 70656363     socket_cb: accep
  409048:	72652074 21726f72 00000a0d 6b636f73     t error!....sock
  409058:	635f7465 73203a62 20646e65 63637573     et_cb: send succ
  409068:	21737365 00000a0d 20504354 76726553     ess!....TCP Serv
  409078:	54207265 20747365 706d6f43 6574656c     er Test Complete
  409088:	000a0d21 736f6c63 6f732065 74656b63     !...close socket
  409098:	0000000a 736e654d 6d656761 63657220     ....Mensagem rec
  4090a8:	64696265 6f642061 54555020 203a5954     ebida do PUTTY: 
  4090b8:	656d756e 25206f72 000a2064 2d2d2d20     numero %d .. ---
  4090c8:	2d2d2d2d 000a202d 2044456c 004e4e4f     ----- ..lED ONN.
  4090d8:	2064656c 2066666f 0000000a e9666143     led off ....Caf.
  4090e8:	46464f20 00000000 e9666143 0a4e4f20      OFF....Caf. ON.
  4090f8:	00000000 7a7a7542 4f207265 00000a4e     ....Buzzer ON...
  409108:	7a7a7542 4f207265 000a4646 00007325     Buzzer OFF..%s..
  409118:	6b636f73 635f7465 72203a62 20766365     socket_cb: recv 
  409128:	6f727265 0a0d2172 00000000 69666977     error!......wifi
  409138:	3a62635f 4d324d20 4649575f 45525f49     _cb: M2M_WIFI_RE
  409148:	435f5053 535f4e4f 45544154 4148435f     SP_CON_STATE_CHA
  409158:	4445474e 4f43203a 43454e4e 0d444554     NGED: CONNECTED.
  409168:	0000000a 69666977 3a62635f 4d324d20     ....wifi_cb: M2M
  409178:	4649575f 45525f49 435f5053 535f4e4f     _WIFI_RESP_CON_S
  409188:	45544154 4148435f 4445474e 4944203a     TATE_CHANGED: DI
  409198:	4e4f4353 5443454e 0a0d4445 00000000     SCONNECTED......
  4091a8:	34333231 38373635 00000000 4e45504f     12345678....OPEN
  4091b8:	00000000 69666977 3a62635f 4d324d20     ....wifi_cb: M2M
  4091c8:	4649575f 45525f49 48445f51 435f5043     _WIFI_REQ_DHCP_C
  4091d8:	3a464e4f 20504920 25207369 75252e75     ONF: IP is %u.%u
  4091e8:	2e75252e 0a0d7525 00000000 52454c41     .%u.%u......ALER
  4091f8:	43204154 21454641 00000000 52414f42     TA CAFE!....BOAR
  409208:	4e492044 41495449 455a494c 00000044     D INITIALIZED...
  409218:	57202d2d 31434e49 20303035 20504354     -- WINC1500 TCP 
  409228:	76726573 65207265 706d6178 2d20656c     server example -
  409238:	2d0a0d2d 4153202d 3037454d 4c50582d     -..-- SAME70-XPL
  409248:	2d2d2044 2d2d0a0d 6d6f4320 656c6970     D --..-- Compile
  409258:	4d203a64 32207961 30322039 31203731     d: May 29 2017 1
  409268:	35333a34 2035323a 0a0d2d2d 00000000     4:35:25 --......
  409278:	20435452 54494e49 45544149 00000044     RTC INITIATED...
  409288:	6e69616d 326d203a 69775f6d 695f6966     main: m2m_wifi_i
  409298:	2074696e 6c6c6163 72726520 2821726f     nit call error!(
  4092a8:	0d296425 0000000a 49464957 494e4920     %d).....WIFI INI
  4092b8:	54414954 00004445 69797274 7420676e     TIATED..trying t
  4092c8:	6f63206f 63656e6e 2e2e2e74 00000000     o connect.......
  4092d8:	6e69616d 6166203a 64656c69 206f7420     main: failed to 
  4092e8:	61657263 54206574 73205043 65767265     create TCP serve
  4092f8:	6f732072 74656b63 72726520 0d21726f     r socket error!.
  409308:	0000000a 6e6e6f43 69746365 6c206e6f     ....Connection l
  409318:	2e74736f 0000000a 00000043              ost.....C...

00409324 <_global_impure_ptr>:
  409324:	20400020                                 .@ 

00409328 <zeroes.6993>:
  409328:	30303030 30303030 30303030 30303030     0000000000000000
  409338:	33323130 37363534 42413938 46454443     0123456789ABCDEF
  409348:	00000000 33323130 37363534 62613938     ....0123456789ab
  409358:	66656463 00000000 6c756e28 0000296c     cdef....(null)..

00409368 <blanks.6992>:
  409368:	20202020 20202020 20202020 20202020                     

00409378 <_init>:
  409378:	b5f8      	push	{r3, r4, r5, r6, r7, lr}
  40937a:	bf00      	nop
  40937c:	bcf8      	pop	{r3, r4, r5, r6, r7}
  40937e:	bc08      	pop	{r3}
  409380:	469e      	mov	lr, r3
  409382:	4770      	bx	lr

00409384 <__init_array_start>:
  409384:	0040675d 	.word	0x0040675d

00409388 <__frame_dummy_init_array_entry>:
  409388:	00400165                                e.@.

0040938c <_fini>:
  40938c:	b5f8      	push	{r3, r4, r5, r6, r7, lr}
  40938e:	bf00      	nop
  409390:	bcf8      	pop	{r3, r4, r5, r6, r7}
  409392:	bc08      	pop	{r3}
  409394:	469e      	mov	lr, r3
  409396:	4770      	bx	lr

00409398 <__fini_array_start>:
  409398:	00400141 	.word	0x00400141

Disassembly of section .relocate:

20400000 <portable_delay_cycles>:
RAMFUNC
void portable_delay_cycles(unsigned long n)
{
	UNUSED(n);

	__asm (
20400000:	f3bf 8f5f 	dmb	sy
20400004:	3801      	subs	r0, #1
20400006:	d1fb      	bne.n	20400000 <portable_delay_cycles>
20400008:	4770      	bx	lr
2040000a:	bf00      	nop

2040000c <egstrNmBusCapabilities>:
2040000c:	1000 0000                                   ....

20400010 <clk_status_reg_adr>:
20400010:	000f 0000                                   ....

20400014 <g_interrupt_enabled>:
20400014:	0001 0000                                   ....

20400018 <SystemCoreClock>:
20400018:	0900 003d                                   ..=.

2040001c <tcp_client_socket>:
2040001c:	ffff                                             .

2040001d <tcp_server_socket>:
2040001d:	00ff 0000                                        ...

20400020 <impure_data>:
20400020:	0000 0000 030c 2040 0374 2040 03dc 2040     ......@ t.@ ..@ 
	...
20400054:	9320 0040 0000 0000 0000 0000 0000 0000      .@.............
	...
204000c8:	0001 0000 0000 0000 330e abcd 1234 e66d     .........3..4.m.
204000d8:	deec 0005 000b 0000 0000 0000 0000 0000     ................
	...

20400448 <_impure_ptr>:
20400448:	0020 2040                                    .@ 

2040044c <__malloc_av_>:
	...
20400454:	044c 2040 044c 2040 0454 2040 0454 2040     L.@ L.@ T.@ T.@ 
20400464:	045c 2040 045c 2040 0464 2040 0464 2040     \.@ \.@ d.@ d.@ 
20400474:	046c 2040 046c 2040 0474 2040 0474 2040     l.@ l.@ t.@ t.@ 
20400484:	047c 2040 047c 2040 0484 2040 0484 2040     |.@ |.@ ..@ ..@ 
20400494:	048c 2040 048c 2040 0494 2040 0494 2040     ..@ ..@ ..@ ..@ 
204004a4:	049c 2040 049c 2040 04a4 2040 04a4 2040     ..@ ..@ ..@ ..@ 
204004b4:	04ac 2040 04ac 2040 04b4 2040 04b4 2040     ..@ ..@ ..@ ..@ 
204004c4:	04bc 2040 04bc 2040 04c4 2040 04c4 2040     ..@ ..@ ..@ ..@ 
204004d4:	04cc 2040 04cc 2040 04d4 2040 04d4 2040     ..@ ..@ ..@ ..@ 
204004e4:	04dc 2040 04dc 2040 04e4 2040 04e4 2040     ..@ ..@ ..@ ..@ 
204004f4:	04ec 2040 04ec 2040 04f4 2040 04f4 2040     ..@ ..@ ..@ ..@ 
20400504:	04fc 2040 04fc 2040 0504 2040 0504 2040     ..@ ..@ ..@ ..@ 
20400514:	050c 2040 050c 2040 0514 2040 0514 2040     ..@ ..@ ..@ ..@ 
20400524:	051c 2040 051c 2040 0524 2040 0524 2040     ..@ ..@ $.@ $.@ 
20400534:	052c 2040 052c 2040 0534 2040 0534 2040     ,.@ ,.@ 4.@ 4.@ 
20400544:	053c 2040 053c 2040 0544 2040 0544 2040     <.@ <.@ D.@ D.@ 
20400554:	054c 2040 054c 2040 0554 2040 0554 2040     L.@ L.@ T.@ T.@ 
20400564:	055c 2040 055c 2040 0564 2040 0564 2040     \.@ \.@ d.@ d.@ 
20400574:	056c 2040 056c 2040 0574 2040 0574 2040     l.@ l.@ t.@ t.@ 
20400584:	057c 2040 057c 2040 0584 2040 0584 2040     |.@ |.@ ..@ ..@ 
20400594:	058c 2040 058c 2040 0594 2040 0594 2040     ..@ ..@ ..@ ..@ 
204005a4:	059c 2040 059c 2040 05a4 2040 05a4 2040     ..@ ..@ ..@ ..@ 
204005b4:	05ac 2040 05ac 2040 05b4 2040 05b4 2040     ..@ ..@ ..@ ..@ 
204005c4:	05bc 2040 05bc 2040 05c4 2040 05c4 2040     ..@ ..@ ..@ ..@ 
204005d4:	05cc 2040 05cc 2040 05d4 2040 05d4 2040     ..@ ..@ ..@ ..@ 
204005e4:	05dc 2040 05dc 2040 05e4 2040 05e4 2040     ..@ ..@ ..@ ..@ 
204005f4:	05ec 2040 05ec 2040 05f4 2040 05f4 2040     ..@ ..@ ..@ ..@ 
20400604:	05fc 2040 05fc 2040 0604 2040 0604 2040     ..@ ..@ ..@ ..@ 
20400614:	060c 2040 060c 2040 0614 2040 0614 2040     ..@ ..@ ..@ ..@ 
20400624:	061c 2040 061c 2040 0624 2040 0624 2040     ..@ ..@ $.@ $.@ 
20400634:	062c 2040 062c 2040 0634 2040 0634 2040     ,.@ ,.@ 4.@ 4.@ 
20400644:	063c 2040 063c 2040 0644 2040 0644 2040     <.@ <.@ D.@ D.@ 
20400654:	064c 2040 064c 2040 0654 2040 0654 2040     L.@ L.@ T.@ T.@ 
20400664:	065c 2040 065c 2040 0664 2040 0664 2040     \.@ \.@ d.@ d.@ 
20400674:	066c 2040 066c 2040 0674 2040 0674 2040     l.@ l.@ t.@ t.@ 
20400684:	067c 2040 067c 2040 0684 2040 0684 2040     |.@ |.@ ..@ ..@ 
20400694:	068c 2040 068c 2040 0694 2040 0694 2040     ..@ ..@ ..@ ..@ 
204006a4:	069c 2040 069c 2040 06a4 2040 06a4 2040     ..@ ..@ ..@ ..@ 
204006b4:	06ac 2040 06ac 2040 06b4 2040 06b4 2040     ..@ ..@ ..@ ..@ 
204006c4:	06bc 2040 06bc 2040 06c4 2040 06c4 2040     ..@ ..@ ..@ ..@ 
204006d4:	06cc 2040 06cc 2040 06d4 2040 06d4 2040     ..@ ..@ ..@ ..@ 
204006e4:	06dc 2040 06dc 2040 06e4 2040 06e4 2040     ..@ ..@ ..@ ..@ 
204006f4:	06ec 2040 06ec 2040 06f4 2040 06f4 2040     ..@ ..@ ..@ ..@ 
20400704:	06fc 2040 06fc 2040 0704 2040 0704 2040     ..@ ..@ ..@ ..@ 
20400714:	070c 2040 070c 2040 0714 2040 0714 2040     ..@ ..@ ..@ ..@ 
20400724:	071c 2040 071c 2040 0724 2040 0724 2040     ..@ ..@ $.@ $.@ 
20400734:	072c 2040 072c 2040 0734 2040 0734 2040     ,.@ ,.@ 4.@ 4.@ 
20400744:	073c 2040 073c 2040 0744 2040 0744 2040     <.@ <.@ D.@ D.@ 
20400754:	074c 2040 074c 2040 0754 2040 0754 2040     L.@ L.@ T.@ T.@ 
20400764:	075c 2040 075c 2040 0764 2040 0764 2040     \.@ \.@ d.@ d.@ 
20400774:	076c 2040 076c 2040 0774 2040 0774 2040     l.@ l.@ t.@ t.@ 
20400784:	077c 2040 077c 2040 0784 2040 0784 2040     |.@ |.@ ..@ ..@ 
20400794:	078c 2040 078c 2040 0794 2040 0794 2040     ..@ ..@ ..@ ..@ 
204007a4:	079c 2040 079c 2040 07a4 2040 07a4 2040     ..@ ..@ ..@ ..@ 
204007b4:	07ac 2040 07ac 2040 07b4 2040 07b4 2040     ..@ ..@ ..@ ..@ 
204007c4:	07bc 2040 07bc 2040 07c4 2040 07c4 2040     ..@ ..@ ..@ ..@ 
204007d4:	07cc 2040 07cc 2040 07d4 2040 07d4 2040     ..@ ..@ ..@ ..@ 
204007e4:	07dc 2040 07dc 2040 07e4 2040 07e4 2040     ..@ ..@ ..@ ..@ 
204007f4:	07ec 2040 07ec 2040 07f4 2040 07f4 2040     ..@ ..@ ..@ ..@ 
20400804:	07fc 2040 07fc 2040 0804 2040 0804 2040     ..@ ..@ ..@ ..@ 
20400814:	080c 2040 080c 2040 0814 2040 0814 2040     ..@ ..@ ..@ ..@ 
20400824:	081c 2040 081c 2040 0824 2040 0824 2040     ..@ ..@ $.@ $.@ 
20400834:	082c 2040 082c 2040 0834 2040 0834 2040     ,.@ ,.@ 4.@ 4.@ 
20400844:	083c 2040 083c 2040 0844 2040 0844 2040     <.@ <.@ D.@ D.@ 

20400854 <__malloc_trim_threshold>:
20400854:	0000 0002                                   ....

20400858 <__malloc_sbrk_base>:
20400858:	ffff ffff                                   ....

2040085c <lc_ctype_charset>:
2040085c:	5341 4943 0049 0000 0000 0000 0000 0000     ASCII...........
	...

2040087c <__mb_cur_max>:
2040087c:	0001 0000                                   ....

20400880 <__wctomb>:
20400880:	7ae9 0040                                   .z@.
